(dp0
S'scuola_secondaria_i_grado_mera__updated.xml'
p1
F505.0
sS'Borchen4_updated.xml'
p2
F439.0
sS'Sabadell2_updated.xml'
p3
F1687.0
sS'rockislandgroundfloor_updated.xml'
p4
F4405.0
sS'Neulengbach1_updated.xml'
p5
F5037.0
sS'westasheville_updated.xml'
p6
F5080.0
sS'southmountainschool_2_updated.xml'
p7
F3667.0
sS'Ursy1_updated.xml'
p8
F1419.0
sS'RomainRolland1_updated.xml'
p9
F2430.0
sS'VarzeaPaulistaFDE2_updated.xml'
p10
F2657.0
sS'Lamuniere1_updated.xml'
p11
F440.0
sS'SKF_FloorPlan_updated.xml'
p12
F2216.0
sS'indianhead_updated.xml'
p13
F5122.0
sS'rockislandsecondfloor_updated.xml'
p14
F1974.0
sS'virginia_cross_updated.xml'
p15
F9449.0
sS'bronxville_updated.xml'
p16
F2875.0
sS'cunningham2f_updated.xml'
p17
F4555.0
sS'Sabadell3_updated.xml'
p18
F847.0
sS'Vieilley1_updated.xml'
p19
F4256.0
sS'scuolasconosciuta2_updated.xml'
p20
F1939.0
sS'UMTDSchoolFloorplan_updated.xml'
p21
F2709.0
sS'hendersonhighschool_updated.xml'
p22
F4267.0
sS'sidneyriver_updated.xml'
p23
F5474.0
sS'putnamjuniorhigh_updated.xml'
p24
F7094.0
sS'plans2_updated.xml'
p25
F2323.0
sS'battle_creekhs_2_updated.xml'
p26
F2344.0
sS'Valleceppi_P1_updated.xml'
p27
F1242.0
sS'VarzeaPaulistaFDE1_updated.xml'
p28
F1492.0
sS'Valleceppi_P0_updated.xml'
p29
F1200.0
sS'Sabadell1_updated.xml'
p30
F1006.0
sS'southmountainschool_1_updated.xml'
p31
F4235.0
sS'plans1_updated.xml'
p32
F2072.0
sS'Liselotte1_updated.xml'
p33
F949.0
sS'herndon_updated.xml'
p34
F1902.0
sS'wilbraham_updated.xml'
p35
F3977.0
sS'scuolasconosciuta_updated.xml'
p36
F1428.0
sS'Vipiteno2_updated.xml'
p37
F1183.0
sS'scuolasconosciuta3_updated.xml'
p38
F1453.0
sS'RomainRoland2_updated.xml'
p39
F2334.0
sS'Franch1_updated.xml'
p40
F846.0
sS'Sicurezza_1_updated.xml'
p41
F2455.0
sS'Histor4_updated.xml'
p42
F3378.0
sS'battle_creekhs_1_updated.xml'
p43
F4034.0
sS'FALAELEM2_updated.xml'
p44
F5422.0
sS'bluefieldschoolfirstfloor_updated.xml'
p45
F3369.0
sS"stjoseph'scatholichighschool_updated.xml"
p46
F9045.0
sS'Vipiteno1_updated.xml'
p47
F2702.0
sS'Neulengbach2_updated.xml'
p48
F5232.0
sS'millneckmanor_updated.xml'
p49
F5243.0
sS'FALAELEM1_updated.xml'
p50
F7934.0
s.