ccopy_reg
_reconstructor
p0
(cnetworkx.classes.graph
Graph
p1
c__builtin__
object
p2
Ntp3
Rp4
(dp5
S'node'
p6
(dp7
S'39b7861e-1601-4895-a2bc-44b4cd8d571d'
p8
(dp9
S'type'
p10
S'R'
p11
sS'label'
p12
S'LAB'
p13
ssS'3ee56c7d-f313-4a64-b584-749dc8fa6aa6'
p14
(dp15
g10
S'R'
p16
sg12
S'CLASSROOM'
p17
ssS'55fba560-3c63-4000-a9b0-bd7b6224e4a6'
p18
(dp19
g10
S'C'
p20
sg12
S'CORRIDOR'
p21
ssS'1eba1006-6705-4931-9b18-c510195cc657'
p22
(dp23
g10
S'R'
p24
sg12
S'CLASSROOM'
p25
ssS'9465ee49-8427-4a44-bb62-b02c151746b5'
p26
(dp27
g10
S'R'
p28
sg12
S'SMALL ADMINISTRATIVE'
p29
ssS'bab6f77e-c6ac-429b-8249-46eb7311aa96'
p30
(dp31
g10
S'R'
p32
sg12
S'LAB'
p33
ssS'217cc241-75a5-4af1-b75c-6bcd6beefacf'
p34
(dp35
g10
S'C'
p36
sg12
S'WASHROOM'
p37
ssS'480c3c42-0e7e-483e-bd06-d5391c075842'
p38
(dp39
g10
S'C'
p40
sg12
S'CORRIDOR'
p41
ssS'01f42d2b-73fb-4d99-b277-2e02c97cd4a6'
p42
(dp43
g10
S'R'
p44
sg12
S'CLASSROOM'
p45
ssS'56d57d74-cbe5-4bf5-83da-2e0f89de257f'
p46
(dp47
g10
S'E'
p48
sg12
S'STAIRS'
p49
ssS'9624ce3b-a91c-4fc2-bca0-defc7f924875'
p50
(dp51
g10
S'R'
p52
sg12
S'LAB'
p53
ssS'185cb871-2be1-47fe-b987-97f9cd81f76c'
p54
(dp55
g10
S'R'
p56
sg12
S'CLASSROOM'
p57
ssS'5120100e-a0b9-4ed6-8222-b400ebe3c529'
p58
(dp59
g10
S'R'
p60
sg12
S'CLASSROOM'
p61
ssS'3e601b24-843b-44d6-b65f-d6b553d59d9a'
p62
(dp63
g10
S'E'
p64
sg12
S'STAIRS'
p65
ssS'86657738-4471-4185-a341-3dfe281cc78e'
p66
(dp67
g10
S'R'
p68
sg12
S'CLASSROOM'
p69
ssS'9af9f398-e478-4431-a98f-d27ac2db95e2'
p70
(dp71
g10
S'E'
p72
sg12
S'STAIRS'
p73
ssS'ce24ba10-a7c7-4d37-bd7a-7013f8cbc96a'
p74
(dp75
g10
S'R'
p76
sg12
S'CONFERENCE'
p77
ssS'6ae09443-c6d0-4e6f-a68a-813e3f3ea9d3'
p78
(dp79
g10
S'C'
p80
sg12
S'WASHROOM'
p81
ssS'141e82b2-58ed-4e5d-9e57-08e40e41aeb5'
p82
(dp83
g10
S'R'
p84
sg12
S'CLASSROOM'
p85
ssS'8fa631dc-750d-4711-a144-5bd4fc5b146a'
p86
(dp87
g10
S'R'
p88
sg12
S'SMALL ADMINISTRATIVE'
p89
ssS'e09699b7-1e3b-4c66-9f00-0abce8c8c0a0'
p90
(dp91
g10
S'R'
p92
sg12
S'CLASSROOM'
p93
ssS'f27d9767-5623-4f2e-a314-8b55435e5513'
p94
(dp95
g10
S'R'
p96
sg12
S'CLASSROOM'
p97
ssS'b795b816-4126-4400-868d-99e930c5e74c'
p98
(dp99
g10
S'R'
p100
sg12
S'CLASSROOM'
p101
ssS'598080ba-5561-4022-9e8e-7e95af4f0623'
p102
(dp103
g10
S'C'
p104
sg12
S'CORRIDOR'
p105
sssS'graph'
p106
(dp107
sS'edge'
p108
(dp109
g8
(dp110
S'480c3c42-0e7e-483e-bd06-d5391c075842'
p111
(dp112
ssg14
(dp113
S'55fba560-3c63-4000-a9b0-bd7b6224e4a6'
p114
(dp115
ssg18
(dp116
S'141e82b2-58ed-4e5d-9e57-08e40e41aeb5'
p117
(dp118
sS'6ae09443-c6d0-4e6f-a68a-813e3f3ea9d3'
p119
(dp120
sS'480c3c42-0e7e-483e-bd06-d5391c075842'
p121
(dp122
sS'3ee56c7d-f313-4a64-b584-749dc8fa6aa6'
p123
g115
sS'01f42d2b-73fb-4d99-b277-2e02c97cd4a6'
p124
(dp125
ssg22
(dp126
S'480c3c42-0e7e-483e-bd06-d5391c075842'
p127
(dp128
ssg26
(dp129
S'8fa631dc-750d-4711-a144-5bd4fc5b146a'
p130
(dp131
sS'480c3c42-0e7e-483e-bd06-d5391c075842'
p132
(dp133
ssg30
(dp134
S'598080ba-5561-4022-9e8e-7e95af4f0623'
p135
(dp136
ssg34
(dp137
S'598080ba-5561-4022-9e8e-7e95af4f0623'
p138
(dp139
ssg38
(dp140
S'598080ba-5561-4022-9e8e-7e95af4f0623'
p141
(dp142
sS'86657738-4471-4185-a341-3dfe281cc78e'
p143
(dp144
sS'9af9f398-e478-4431-a98f-d27ac2db95e2'
p145
(dp146
sS'e09699b7-1e3b-4c66-9f00-0abce8c8c0a0'
p147
(dp148
sS'ce24ba10-a7c7-4d37-bd7a-7013f8cbc96a'
p149
(dp150
sS'39b7861e-1601-4895-a2bc-44b4cd8d571d'
p151
g112
sS'56d57d74-cbe5-4bf5-83da-2e0f89de257f'
p152
(dp153
sS'9624ce3b-a91c-4fc2-bca0-defc7f924875'
p154
(dp155
sS'185cb871-2be1-47fe-b987-97f9cd81f76c'
p156
(dp157
sS'1eba1006-6705-4931-9b18-c510195cc657'
p158
g128
sS'55fba560-3c63-4000-a9b0-bd7b6224e4a6'
p159
g122
sS'5120100e-a0b9-4ed6-8222-b400ebe3c529'
p160
(dp161
sS'3e601b24-843b-44d6-b65f-d6b553d59d9a'
p162
(dp163
sS'9465ee49-8427-4a44-bb62-b02c151746b5'
p164
g133
ssg42
(dp165
S'55fba560-3c63-4000-a9b0-bd7b6224e4a6'
p166
g125
ssg46
(dp167
S'480c3c42-0e7e-483e-bd06-d5391c075842'
p168
g153
ssg50
(dp169
S'480c3c42-0e7e-483e-bd06-d5391c075842'
p170
g155
ssg54
(dp171
S'480c3c42-0e7e-483e-bd06-d5391c075842'
p172
g157
ssg58
(dp173
S'480c3c42-0e7e-483e-bd06-d5391c075842'
p174
g161
ssg62
(dp175
S'480c3c42-0e7e-483e-bd06-d5391c075842'
p176
g163
ssg66
(dp177
S'480c3c42-0e7e-483e-bd06-d5391c075842'
p178
g144
ssg70
(dp179
S'480c3c42-0e7e-483e-bd06-d5391c075842'
p180
g146
ssg74
(dp181
S'480c3c42-0e7e-483e-bd06-d5391c075842'
p182
g150
ssg78
(dp183
S'55fba560-3c63-4000-a9b0-bd7b6224e4a6'
p184
g120
ssg82
(dp185
S'55fba560-3c63-4000-a9b0-bd7b6224e4a6'
p186
g118
ssg86
(dp187
S'9465ee49-8427-4a44-bb62-b02c151746b5'
p188
g131
ssg90
(dp189
S'480c3c42-0e7e-483e-bd06-d5391c075842'
p190
g148
ssg94
(dp191
S'598080ba-5561-4022-9e8e-7e95af4f0623'
p192
(dp193
ssg98
(dp194
S'598080ba-5561-4022-9e8e-7e95af4f0623'
p195
(dp196
ssg102
(dp197
S'217cc241-75a5-4af1-b75c-6bcd6beefacf'
p198
g139
sS'b795b816-4126-4400-868d-99e930c5e74c'
p199
g196
sS'480c3c42-0e7e-483e-bd06-d5391c075842'
p200
g142
sS'bab6f77e-c6ac-429b-8249-46eb7311aa96'
p201
g136
sS'f27d9767-5623-4f2e-a314-8b55435e5513'
p202
g193
sssS'adj'
p203
g109
sb.