ccopy_reg
_reconstructor
p0
(cnetworkx.classes.graph
Graph
p1
c__builtin__
object
p2
Ntp3
Rp4
(dp5
S'node'
p6
(dp7
S'45a31db9-f8dd-4de1-a310-6aa71f540df6'
p8
(dp9
S'type'
p10
S'R'
p11
sS'label'
p12
S'MEDIUM SERVICE'
p13
ssS'd7eb449f-ac00-475f-9a38-8cd11444a8eb'
p14
(dp15
g10
S'C'
p16
sg12
S'CORRIDOR'
p17
ssS'1f8ee5be-d186-479b-979c-565adc45b383'
p18
(dp19
g10
S'C'
p20
sg12
S'CORRIDOR'
p21
ssS'42fd1ad4-ba65-4c2f-b628-f748cc8b2c1c'
p22
(dp23
g10
S'C'
p24
sg12
S'WASHROOM'
p25
ssS'eb3a7d25-4419-4935-9b3d-eb726f66c0d5'
p26
(dp27
g10
S'C'
p28
sg12
S'WASHROOM'
p29
ssS'2131d157-c89d-40c5-b2f1-c76b3e24c740'
p30
(dp31
g10
S'C'
p32
sg12
S'CORRIDOR'
p33
ssS'403a077c-ae69-4e6a-987a-4e6bfee74d16'
p34
(dp35
g10
S'R'
p36
sg12
S'LAB'
p37
ssS'39f90a35-71f5-4d79-89fc-5b9916ef4860'
p38
(dp39
g10
S'R'
p40
sg12
S'CLASSROOM'
p41
ssS'df0e059d-da52-42c5-93d7-74a28da84054'
p42
(dp43
g10
S'R'
p44
sg12
S'CLASSROOM'
p45
ssS'b7aee818-6adf-4006-828b-eb5e825d9744'
p46
(dp47
g10
S'R'
p48
sg12
S'CLASSROOM'
p49
ssS'9563dc31-2b71-40cd-83fc-8d3c75524f77'
p50
(dp51
g10
S'R'
p52
sg12
S'CLASSROOM'
p53
ssS'b7c10018-806d-47c4-be77-1074feb3938c'
p54
(dp55
g10
S'R'
p56
sg12
S'CLASSROOM'
p57
ssS'8644c5c6-c56f-411f-b5a9-1a8973b6d7d7'
p58
(dp59
g10
S'R'
p60
sg12
S'CLASSROOM'
p61
ssS'aacfdfc2-d572-45f7-9b3e-bd3cbb442442'
p62
(dp63
g10
S'R'
p64
sg12
S'LIBRARY'
p65
ssS'16d16958-d9ab-4fda-bbfb-5251b3d5bee3'
p66
(dp67
g10
S'R'
p68
sg12
S'CLASSROOM'
p69
ssS'f8faf0ee-e69b-4935-809f-887a9b697242'
p70
(dp71
g10
S'E'
p72
sg12
S'STAIRS'
p73
ssS'2cce734a-bc5d-46df-9c0e-5856620f8430'
p74
(dp75
g10
S'R'
p76
sg12
S'CLASSROOM'
p77
ssS'570efb1e-0db6-46fd-a057-b4a15fc82243'
p78
(dp79
g10
S'R'
p80
sg12
S'LAB'
p81
ssS'97192e45-f7b1-4895-bc93-c4e13f278332'
p82
(dp83
g10
S'R'
p84
sg12
S'CLASSROOM'
p85
ssS'0bf83806-fff5-47a2-8f9a-fd298e7c10da'
p86
(dp87
g10
S'R'
p88
sg12
S'CLASSROOM'
p89
ssS'a04c4ab6-f6a6-48b7-89db-0cf0a147efa9'
p90
(dp91
g10
S'E'
p92
sg12
S'STAIRS'
p93
ssS'004f69ea-a5b2-48ef-bc57-ba01039c29e5'
p94
(dp95
g10
S'R'
p96
sg12
S'LAB'
p97
sssS'graph'
p98
(dp99
sS'edge'
p100
(dp101
g8
(dp102
S'd7eb449f-ac00-475f-9a38-8cd11444a8eb'
p103
(dp104
ssg14
(dp105
S'42fd1ad4-ba65-4c2f-b628-f748cc8b2c1c'
p106
(dp107
sS'df0e059d-da52-42c5-93d7-74a28da84054'
p108
(dp109
sS'b7aee818-6adf-4006-828b-eb5e825d9744'
p110
(dp111
sS'45a31db9-f8dd-4de1-a310-6aa71f540df6'
p112
g104
sS'2131d157-c89d-40c5-b2f1-c76b3e24c740'
p113
(dp114
sS'403a077c-ae69-4e6a-987a-4e6bfee74d16'
p115
(dp116
sS'0bf83806-fff5-47a2-8f9a-fd298e7c10da'
p117
(dp118
ssg18
(dp119
S'570efb1e-0db6-46fd-a057-b4a15fc82243'
p120
(dp121
sS'eb3a7d25-4419-4935-9b3d-eb726f66c0d5'
p122
(dp123
sS'2131d157-c89d-40c5-b2f1-c76b3e24c740'
p124
(dp125
sS'39f90a35-71f5-4d79-89fc-5b9916ef4860'
p126
(dp127
sS'004f69ea-a5b2-48ef-bc57-ba01039c29e5'
p128
(dp129
ssg22
(dp130
S'd7eb449f-ac00-475f-9a38-8cd11444a8eb'
p131
g107
ssg26
(dp132
S'1f8ee5be-d186-479b-979c-565adc45b383'
p133
g123
ssg30
(dp134
S'f8faf0ee-e69b-4935-809f-887a9b697242'
p135
(dp136
sS'1f8ee5be-d186-479b-979c-565adc45b383'
p137
g125
sS'b7c10018-806d-47c4-be77-1074feb3938c'
p138
(dp139
sS'2cce734a-bc5d-46df-9c0e-5856620f8430'
p140
(dp141
sS'9563dc31-2b71-40cd-83fc-8d3c75524f77'
p142
(dp143
sS'97192e45-f7b1-4895-bc93-c4e13f278332'
p144
(dp145
sS'8644c5c6-c56f-411f-b5a9-1a8973b6d7d7'
p146
(dp147
sS'a04c4ab6-f6a6-48b7-89db-0cf0a147efa9'
p148
(dp149
sS'd7eb449f-ac00-475f-9a38-8cd11444a8eb'
p150
g114
sS'aacfdfc2-d572-45f7-9b3e-bd3cbb442442'
p151
(dp152
sS'16d16958-d9ab-4fda-bbfb-5251b3d5bee3'
p153
(dp154
ssg34
(dp155
S'd7eb449f-ac00-475f-9a38-8cd11444a8eb'
p156
g116
ssg38
(dp157
S'1f8ee5be-d186-479b-979c-565adc45b383'
p158
g127
ssg42
(dp159
S'd7eb449f-ac00-475f-9a38-8cd11444a8eb'
p160
g109
ssg46
(dp161
S'd7eb449f-ac00-475f-9a38-8cd11444a8eb'
p162
g111
ssg50
(dp163
S'2131d157-c89d-40c5-b2f1-c76b3e24c740'
p164
g143
ssg54
(dp165
S'2131d157-c89d-40c5-b2f1-c76b3e24c740'
p166
g139
ssg58
(dp167
S'2131d157-c89d-40c5-b2f1-c76b3e24c740'
p168
g147
ssg62
(dp169
S'2131d157-c89d-40c5-b2f1-c76b3e24c740'
p170
g152
ssg66
(dp171
S'2131d157-c89d-40c5-b2f1-c76b3e24c740'
p172
g154
ssg70
(dp173
S'2131d157-c89d-40c5-b2f1-c76b3e24c740'
p174
g136
ssg74
(dp175
S'2131d157-c89d-40c5-b2f1-c76b3e24c740'
p176
g141
ssg78
(dp177
S'1f8ee5be-d186-479b-979c-565adc45b383'
p178
g121
ssg82
(dp179
S'2131d157-c89d-40c5-b2f1-c76b3e24c740'
p180
g145
ssg86
(dp181
S'd7eb449f-ac00-475f-9a38-8cd11444a8eb'
p182
g118
ssg90
(dp183
S'2131d157-c89d-40c5-b2f1-c76b3e24c740'
p184
g149
ssg94
(dp185
S'1f8ee5be-d186-479b-979c-565adc45b383'
p186
g129
sssS'adj'
p187
g101
sb.