ccopy_reg
_reconstructor
p0
(cnetworkx.classes.graph
Graph
p1
c__builtin__
object
p2
Ntp3
Rp4
(dp5
S'node'
p6
(dp7
S'09fe224b-10df-4831-a9ce-885a7d16ed76'
p8
(dp9
S'type'
p10
S'C'
p11
sS'label'
p12
S'CORRIDOR'
p13
ssS'a1661781-5d2e-45af-a6e6-b4afb384407f'
p14
(dp15
g10
S'R'
p16
sg12
S'MEDIUM SERVICE'
p17
ssS'4ce40e77-4d8a-48a5-8730-2af8694a42a3'
p18
(dp19
g10
S'C'
p20
sg12
S'CORRIDOR'
p21
ssS'4fd5fb65-3187-4528-95cb-e465c5b42a02'
p22
(dp23
g10
S'R'
p24
sg12
S'CLOSET'
p25
ssS'b92c0d3e-f915-437f-87f1-fd357d783e0b'
p26
(dp27
g10
S'C'
p28
sg12
S'LOBBY'
p29
ssS'64d9bad7-7cfe-40b2-81f6-92f4f612d498'
p30
(dp31
g10
S'R'
p32
sg12
S'CLASSROOM'
p33
ssS'3c1e7c10-c44f-477c-b381-76b2b6628f0f'
p34
(dp35
g10
S'R'
p36
sg12
S'CLOSET'
p37
ssS'3deb80ab-e258-47fa-897f-0becc691be16'
p38
(dp39
g10
S'R'
p40
sg12
S'BATHROOM'
p41
ssS'ebe41db5-e6c7-4f8e-aa90-b05937c891d0'
p42
(dp43
g10
S'R'
p44
sg12
S'CLASSROOM'
p45
ssS'f633571e-a9f3-4bb8-ac07-a4ec3499f16b'
p46
(dp47
g10
S'R'
p48
sg12
S'CLASSROOM'
p49
ssS'411ede5d-9d4e-46d3-9057-7952ea482f0a'
p50
(dp51
g10
S'E'
p52
sg12
S'STAIRS'
p53
ssS'38040280-7838-4210-97c2-aae04652b232'
p54
(dp55
g10
S'C'
p56
sg12
S'WASHROOM'
p57
ssS'd39cb8a7-ad7c-4f1e-991b-82ab93a6c9d2'
p58
(dp59
g10
S'R'
p60
sg12
S'CLOSET'
p61
ssS'1855878d-b03c-43cd-8f89-36feee593a40'
p62
(dp63
g10
S'R'
p64
sg12
S'CLASSROOM'
p65
ssS'48b03880-ed70-4a79-9e13-fc9eba75a84a'
p66
(dp67
g10
S'R'
p68
sg12
S'CONFERENCE'
p69
ssS'534bd911-ec7b-4a82-b032-1714b74aabbf'
p70
(dp71
g10
S'R'
p72
sg12
S'MEDIUM SERVICE'
p73
ssS'de224b17-43f9-48ab-bfa2-105b58ffe9d9'
p74
(dp75
g10
S'R'
p76
sg12
S'CLASSROOM'
p77
ssS'a79ebbee-eeb2-4548-b147-c91d6478aaa6'
p78
(dp79
g10
S'C'
p80
sg12
S'HALL'
p81
ssS'e819bec5-28f7-4197-b49d-0da26f12688a'
p82
(dp83
g10
S'R'
p84
sg12
S'CLASSROOM'
p85
ssS'dd5e2fd5-4531-49e2-8000-746d4f13d537'
p86
(dp87
g10
S'R'
p88
sg12
S'CLASSROOM'
p89
ssS'89bf0600-b35d-4ead-80b3-4a7cdf0262e6'
p90
(dp91
g10
S'C'
p92
sg12
S'WASHROOM'
p93
ssS'ac316150-980e-46b0-9bb5-4341b2c8464a'
p94
(dp95
g10
S'R'
p96
sg12
S'MEDIUM SERVICE'
p97
ssS'2a1b0273-d026-4d7d-bf3c-313b56b23da7'
p98
(dp99
g10
S'R'
p100
sg12
S'CLASSROOM'
p101
ssS'9b6a7e3a-f031-472a-a311-1253a0e11fbe'
p102
(dp103
g10
S'R'
p104
sg12
S'BATHROOM'
p105
ssS'7e419b31-bd94-4db8-8420-4270d2364a1f'
p106
(dp107
g10
S'E'
p108
sg12
S'ENTRANCE'
p109
ssS'd63040df-6a34-4110-9867-22f0b85d9a2f'
p110
(dp111
g10
S'E'
p112
sg12
S'STAIRS'
p113
sssS'graph'
p114
(dp115
sS'edge'
p116
(dp117
g8
(dp118
S'ebe41db5-e6c7-4f8e-aa90-b05937c891d0'
p119
(dp120
sS'a1661781-5d2e-45af-a6e6-b4afb384407f'
p121
(dp122
sS'1855878d-b03c-43cd-8f89-36feee593a40'
p123
(dp124
sS'38040280-7838-4210-97c2-aae04652b232'
p125
(dp126
sS'48b03880-ed70-4a79-9e13-fc9eba75a84a'
p127
(dp128
sS'a79ebbee-eeb2-4548-b147-c91d6478aaa6'
p129
(dp130
sS'9b6a7e3a-f031-472a-a311-1253a0e11fbe'
p131
(dp132
ssg14
(dp133
S'1855878d-b03c-43cd-8f89-36feee593a40'
p134
(dp135
sS'ebe41db5-e6c7-4f8e-aa90-b05937c891d0'
p136
(dp137
sS'09fe224b-10df-4831-a9ce-885a7d16ed76'
p138
g122
ssg18
(dp139
S'f633571e-a9f3-4bb8-ac07-a4ec3499f16b'
p140
(dp141
sS'89bf0600-b35d-4ead-80b3-4a7cdf0262e6'
p142
(dp143
sS'de224b17-43f9-48ab-bfa2-105b58ffe9d9'
p144
(dp145
sS'48b03880-ed70-4a79-9e13-fc9eba75a84a'
p146
(dp147
sS'a79ebbee-eeb2-4548-b147-c91d6478aaa6'
p148
(dp149
sS'ac316150-980e-46b0-9bb5-4341b2c8464a'
p150
(dp151
sS'3deb80ab-e258-47fa-897f-0becc691be16'
p152
(dp153
ssg22
(dp154
S'e819bec5-28f7-4197-b49d-0da26f12688a'
p155
(dp156
ssg26
(dp157
S'a79ebbee-eeb2-4548-b147-c91d6478aaa6'
p158
(dp159
sS'7e419b31-bd94-4db8-8420-4270d2364a1f'
p160
(dp161
ssg30
(dp162
S'a79ebbee-eeb2-4548-b147-c91d6478aaa6'
p163
(dp164
ssg34
(dp165
S'48b03880-ed70-4a79-9e13-fc9eba75a84a'
p166
(dp167
ssg38
(dp168
S'4ce40e77-4d8a-48a5-8730-2af8694a42a3'
p169
g153
ssg42
(dp170
S'09fe224b-10df-4831-a9ce-885a7d16ed76'
p171
g120
sS'a1661781-5d2e-45af-a6e6-b4afb384407f'
p172
g137
ssg46
(dp173
S'4ce40e77-4d8a-48a5-8730-2af8694a42a3'
p174
g141
sS'ac316150-980e-46b0-9bb5-4341b2c8464a'
p175
(dp176
ssg50
(dp177
S'a79ebbee-eeb2-4548-b147-c91d6478aaa6'
p178
(dp179
ssg54
(dp180
S'09fe224b-10df-4831-a9ce-885a7d16ed76'
p181
g126
ssg58
(dp182
S'48b03880-ed70-4a79-9e13-fc9eba75a84a'
p183
(dp184
ssg62
(dp185
S'09fe224b-10df-4831-a9ce-885a7d16ed76'
p186
g124
sS'a1661781-5d2e-45af-a6e6-b4afb384407f'
p187
g135
ssg66
(dp188
S'09fe224b-10df-4831-a9ce-885a7d16ed76'
p189
g128
sS'4ce40e77-4d8a-48a5-8730-2af8694a42a3'
p190
g147
sS'3c1e7c10-c44f-477c-b381-76b2b6628f0f'
p191
g167
sS'd39cb8a7-ad7c-4f1e-991b-82ab93a6c9d2'
p192
g184
ssg70
(dp193
S'dd5e2fd5-4531-49e2-8000-746d4f13d537'
p194
(dp195
ssg74
(dp196
S'4ce40e77-4d8a-48a5-8730-2af8694a42a3'
p197
g145
sS'ac316150-980e-46b0-9bb5-4341b2c8464a'
p198
(dp199
ssg78
(dp200
S'dd5e2fd5-4531-49e2-8000-746d4f13d537'
p201
(dp202
sS'09fe224b-10df-4831-a9ce-885a7d16ed76'
p203
g130
sS'4ce40e77-4d8a-48a5-8730-2af8694a42a3'
p204
g149
sS'411ede5d-9d4e-46d3-9057-7952ea482f0a'
p205
g179
sS'b92c0d3e-f915-437f-87f1-fd357d783e0b'
p206
g159
sS'64d9bad7-7cfe-40b2-81f6-92f4f612d498'
p207
g164
sS'e819bec5-28f7-4197-b49d-0da26f12688a'
p208
(dp209
sS'2a1b0273-d026-4d7d-bf3c-313b56b23da7'
p210
(dp211
sS'd63040df-6a34-4110-9867-22f0b85d9a2f'
p212
(dp213
ssg82
(dp214
S'a79ebbee-eeb2-4548-b147-c91d6478aaa6'
p215
g209
sS'4fd5fb65-3187-4528-95cb-e465c5b42a02'
p216
g156
ssg86
(dp217
S'a79ebbee-eeb2-4548-b147-c91d6478aaa6'
p218
g202
sS'534bd911-ec7b-4a82-b032-1714b74aabbf'
p219
g195
ssg90
(dp220
S'4ce40e77-4d8a-48a5-8730-2af8694a42a3'
p221
g143
ssg94
(dp222
S'4ce40e77-4d8a-48a5-8730-2af8694a42a3'
p223
g151
sS'de224b17-43f9-48ab-bfa2-105b58ffe9d9'
p224
g199
sS'f633571e-a9f3-4bb8-ac07-a4ec3499f16b'
p225
g176
ssg98
(dp226
S'a79ebbee-eeb2-4548-b147-c91d6478aaa6'
p227
g211
ssg102
(dp228
S'09fe224b-10df-4831-a9ce-885a7d16ed76'
p229
g132
ssg106
(dp230
S'b92c0d3e-f915-437f-87f1-fd357d783e0b'
p231
g161
ssg110
(dp232
S'a79ebbee-eeb2-4548-b147-c91d6478aaa6'
p233
g213
sssS'adj'
p234
g117
sb.