ccopy_reg
_reconstructor
p0
(cnetworkx.classes.graph
Graph
p1
c__builtin__
object
p2
Ntp3
Rp4
(dp5
S'node'
p6
(dp7
S'ac11d00c-fe78-4475-88a9-f72c9be0855f'
p8
(dp9
S'type'
p10
S'C'
p11
sS'label'
p12
S'CORRIDOR'
p13
ssS'27df4355-de91-41b9-8d13-fc7ca9ea927f'
p14
(dp15
g10
S'R'
p16
sg12
S'CLASSROOM'
p17
ssS'9c1a1519-0625-4510-8218-f45bf425c927'
p18
(dp19
g10
S'E'
p20
sg12
S'STAIRS'
p21
ssS'26ba1540-d579-4343-8888-44de94840944'
p22
(dp23
g10
S'R'
p24
sg12
S'MEDIUM SERVICE'
p25
ssS'4ebc40ca-6289-4f72-b12c-97e571eb0a60'
p26
(dp27
g10
S'R'
p28
sg12
S'BATHROOM'
p29
ssS'30bafb4e-02f1-4760-b615-16ebc56d4b86'
p30
(dp31
g10
S'E'
p32
sg12
S'ELEVATOR'
p33
ssS'f1ac244d-99bc-4e35-94fc-76d4e10549c6'
p34
(dp35
g10
S'R'
p36
sg12
S'MEDIUM'
p37
ssS'32fc9ebd-921c-4e92-90c6-f7bc1e2d3d71'
p38
(dp39
g10
S'R'
p40
sg12
S'BATHROOM'
p41
ssS'eb07a644-6d46-4424-b34d-0836402f2009'
p42
(dp43
g10
S'R'
p44
sg12
S'MEDIUM SERVICE'
p45
ssS'ad7f64f1-ef6b-471d-b157-1c28080ee05c'
p46
(dp47
g10
S'R'
p48
sg12
S'CLASSROOM'
p49
sssS'graph'
p50
(dp51
sS'edge'
p52
(dp53
g8
(dp54
S'27df4355-de91-41b9-8d13-fc7ca9ea927f'
p55
(dp56
sS'9c1a1519-0625-4510-8218-f45bf425c927'
p57
(dp58
sS'26ba1540-d579-4343-8888-44de94840944'
p59
(dp60
sS'4ebc40ca-6289-4f72-b12c-97e571eb0a60'
p61
(dp62
sS'30bafb4e-02f1-4760-b615-16ebc56d4b86'
p63
(dp64
sS'f1ac244d-99bc-4e35-94fc-76d4e10549c6'
p65
(dp66
sS'32fc9ebd-921c-4e92-90c6-f7bc1e2d3d71'
p67
(dp68
sS'eb07a644-6d46-4424-b34d-0836402f2009'
p69
(dp70
sS'ad7f64f1-ef6b-471d-b157-1c28080ee05c'
p71
(dp72
ssg14
(dp73
S'ac11d00c-fe78-4475-88a9-f72c9be0855f'
p74
g56
ssg18
(dp75
S'ac11d00c-fe78-4475-88a9-f72c9be0855f'
p76
g58
ssg22
(dp77
S'ac11d00c-fe78-4475-88a9-f72c9be0855f'
p78
g60
ssg26
(dp79
S'ac11d00c-fe78-4475-88a9-f72c9be0855f'
p80
g62
ssg30
(dp81
S'ac11d00c-fe78-4475-88a9-f72c9be0855f'
p82
g64
ssg34
(dp83
S'ac11d00c-fe78-4475-88a9-f72c9be0855f'
p84
g66
ssg38
(dp85
S'ac11d00c-fe78-4475-88a9-f72c9be0855f'
p86
g68
ssg42
(dp87
S'ac11d00c-fe78-4475-88a9-f72c9be0855f'
p88
g70
ssg46
(dp89
S'ac11d00c-fe78-4475-88a9-f72c9be0855f'
p90
g72
sssS'adj'
p91
g53
sb.