ccopy_reg
_reconstructor
p0
(cnetworkx.classes.graph
Graph
p1
c__builtin__
object
p2
Ntp3
Rp4
(dp5
S'node'
p6
(dp7
S'5978dd91-3ad4-4e31-9b80-01a1ed70378c'
p8
(dp9
S'type'
p10
S'R'
p11
sS'label'
p12
S'CLASSROOM'
p13
ssS'e363be66-a6c8-4b07-b1d8-477f75faad8e'
p14
(dp15
g10
S'R'
p16
sg12
S'CLASSROOM'
p17
ssS'bce21822-5f95-42c3-b46d-b8eb1cb3d105'
p18
(dp19
g10
S'R'
p20
sg12
S'CLASSROOM'
p21
ssS'7638ff10-9d26-47d1-84e6-3dd913de55ef'
p22
(dp23
g10
S'R'
p24
sg12
S'CLASSROOM'
p25
ssS'9ce36db8-34b2-4c7d-b0a0-40230e400fb7'
p26
(dp27
g10
S'R'
p28
sg12
S'CLASSROOM'
p29
ssS'24b0253f-f177-4554-86ac-6959afac374a'
p30
(dp31
g10
S'C'
p32
sg12
S'CORRIDOR'
p33
ssS'680f4c8a-4456-4f8c-ac66-03181ebfd37d'
p34
(dp35
g10
S'R'
p36
sg12
S'GYM'
p37
ssS'4070a0df-ab75-4749-8a45-009f8aa7e889'
p38
(dp39
g10
S'R'
p40
sg12
S'CLOSET'
p41
ssS'ff1aa667-5cc6-409b-8116-83fff56a3b06'
p42
(dp43
g10
S'R'
p44
sg12
S'CLASSROOM'
p45
ssS'32e4e136-552f-4664-8677-01e5c3f90727'
p46
(dp47
g10
S'E'
p48
sg12
S'STAIRS'
p49
ssS'5847e8a8-7bc6-4742-b972-86eadcff26ab'
p50
(dp51
g10
S'R'
p52
sg12
S'CLOSET'
p53
ssS'ae13a721-d2b6-41d1-a77e-ffa1444e01bd'
p54
(dp55
g10
S'R'
p56
sg12
S'CLOSET'
p57
ssS'4df94722-00c1-492a-b226-b5081c73dcb2'
p58
(dp59
g10
S'C'
p60
sg12
S'CORRIDOR'
p61
ssS'6b372e75-8b63-4288-9f06-91324f6fc6a7'
p62
(dp63
g10
S'C'
p64
sg12
S'CORRIDOR'
p65
ssS'ef257fae-31f5-452b-ae70-c60d6c7a451c'
p66
(dp67
g10
S'R'
p68
sg12
S'CLASSROOM'
p69
ssS'0133409e-47b3-4c2d-8cb9-bfd0a5a001d0'
p70
(dp71
g10
S'R'
p72
sg12
S'CLASSROOM'
p73
ssS'1394d58e-46d8-4695-a189-8a773775efba'
p74
(dp75
g10
S'R'
p76
sg12
S'CLASSROOM'
p77
ssS'd03c52a5-2e6b-49f1-9d3c-76d4550de297'
p78
(dp79
g10
S'R'
p80
sg12
S'CLASSROOM'
p81
ssS'2c3d26ce-3efc-4003-9774-8410f671c8e0'
p82
(dp83
g10
S'E'
p84
sg12
S'STAIRS'
p85
ssS'cdd4d0f7-ae9e-4f44-9607-04b03da6d0da'
p86
(dp87
g10
S'R'
p88
sg12
S'CLASSROOM'
p89
ssS'd7360b6f-00fd-46e3-af94-463eb5944077'
p90
(dp91
g10
S'R'
p92
sg12
S'CLASSROOM'
p93
ssS'ecbd7eeb-ca09-422b-864f-34086260ee7e'
p94
(dp95
g10
S'R'
p96
sg12
S'CLOSET'
p97
ssS'623699c9-c60e-48fe-ae34-d327dd2a0359'
p98
(dp99
g10
S'R'
p100
sg12
S'CLASSROOM'
p101
ssS'3f8103cb-7110-40f6-96fb-ee723ebbd9ff'
p102
(dp103
g10
S'C'
p104
sg12
S'HALL'
p105
ssS'518a68f0-acbb-44bd-8c2d-e6f9e9d4889d'
p106
(dp107
g10
S'R'
p108
sg12
S'CONFERENCE'
p109
ssS'ca8535f3-a683-4b85-b5cd-b004c722ea50'
p110
(dp111
g10
S'R'
p112
sg12
S'CLASSROOM'
p113
ssS'd89b8d7b-3464-4415-a8dd-a5f742d2e52d'
p114
(dp115
g10
S'R'
p116
sg12
S'LAB'
p117
ssS'412123c4-d37c-4cac-821f-8b204fb23065'
p118
(dp119
g10
S'R'
p120
sg12
S'CLASSROOM'
p121
ssS'837802ff-e1ff-4ce1-b687-d7dfd4fbf640'
p122
(dp123
g10
S'R'
p124
sg12
S'CLOSET'
p125
ssS'4f6ccbf5-2555-402d-b808-af4000e81b7a'
p126
(dp127
g10
S'E'
p128
sg12
S'STAIRS'
p129
ssS'19bd03a9-e840-4020-9a4c-0ca1ada80592'
p130
(dp131
g10
S'C'
p132
sg12
S'CORRIDOR'
p133
ssS'87dafb61-dd8c-4c7a-9d91-ec70f14a0bcd'
p134
(dp135
g10
S'C'
p136
sg12
S'CORRIDOR'
p137
ssS'ca8c1bcd-bd4e-4614-95b8-74400a895658'
p138
(dp139
g10
S'R'
p140
sg12
S'CLASSROOM'
p141
ssS'62e2dcb6-74a1-4f92-8b1a-d4908a710ae2'
p142
(dp143
g10
S'R'
p144
sg12
S'MEDIUM ADMINISTRATIVE'
p145
ssS'5c31c9d9-868f-4abf-847a-19ae890c183a'
p146
(dp147
g10
S'R'
p148
sg12
S'CLASSROOM'
p149
ssS'94b7b9f1-f3f8-4a44-8513-7dc913072177'
p150
(dp151
g10
S'R'
p152
sg12
S'CLASSROOM'
p153
ssS'c5ed86bd-a578-4414-9c7e-b4fd0d4ab3cd'
p154
(dp155
g10
S'C'
p156
sg12
S'CORRIDOR'
p157
ssS'025805c1-444f-443b-b868-f4b5a536f4a5'
p158
(dp159
g10
S'R'
p160
sg12
S'SMALL ADMINISTRATIVE'
p161
ssS'4f46eb6e-ae1a-4e86-a025-b4ad8bd589a0'
p162
(dp163
g10
S'E'
p164
sg12
S'STAIRS'
p165
ssS'0eacff1e-f8c1-4038-9c65-7755b3f91a60'
p166
(dp167
g10
S'R'
p168
sg12
S'CLASSROOM'
p169
ssS'c5367f83-4a90-4ca1-a34f-30ff3936a69b'
p170
(dp171
g10
S'E'
p172
sg12
S'ENTRANCE'
p173
ssS'488166ac-e948-4722-83d1-9443a72bf33d'
p174
(dp175
g10
S'R'
p176
sg12
S'LAB'
p177
ssS'ac955e73-ca4f-4e26-90e5-b8551ed72811'
p178
(dp179
g10
S'R'
p180
sg12
S'MEDIUM SERVICE'
p181
ssS'72d5ae98-c190-48e6-8618-f2e7246e8dc0'
p182
(dp183
g10
S'R'
p184
sg12
S'CLASSROOM'
p185
ssS'e4ba361b-55e7-4118-8f68-9fcb3d21117f'
p186
(dp187
g10
S'R'
p188
sg12
S'CLASSROOM'
p189
ssS'5b4b74b0-dda3-4b38-9654-49a900dc33df'
p190
(dp191
g10
S'R'
p192
sg12
S'CLASSROOM'
p193
ssS'00004820-1719-40e5-9c24-1268e4f62f76'
p194
(dp195
g10
S'C'
p196
sg12
S'WASHROOM'
p197
ssS'f09b29b4-0184-4f6a-b69a-51b2a5e86e5a'
p198
(dp199
g10
S'C'
p200
sg12
S'CORRIDOR'
p201
ssS'4cabc7bd-e5ea-4d55-870e-2407430b2f58'
p202
(dp203
g10
S'R'
p204
sg12
S'CLASSROOM'
p205
ssS'0268c30d-51fe-4f2f-a89d-1a718c94a16f'
p206
(dp207
g10
S'R'
p208
sg12
S'CLASSROOM'
p209
ssS'84d3b5fc-db03-41d4-9c3e-a351c2cca6cb'
p210
(dp211
g10
S'C'
p212
sg12
S'CORRIDOR'
p213
sssS'graph'
p214
(dp215
sS'edge'
p216
(dp217
g8
(dp218
S'6b372e75-8b63-4288-9f06-91324f6fc6a7'
p219
(dp220
ssg14
(dp221
S'19bd03a9-e840-4020-9a4c-0ca1ada80592'
p222
(dp223
ssg18
(dp224
S'6b372e75-8b63-4288-9f06-91324f6fc6a7'
p225
(dp226
ssg22
(dp227
S'19bd03a9-e840-4020-9a4c-0ca1ada80592'
p228
(dp229
ssg26
(dp230
S'f09b29b4-0184-4f6a-b69a-51b2a5e86e5a'
p231
(dp232
ssg30
(dp233
S'4070a0df-ab75-4749-8a45-009f8aa7e889'
p234
(dp235
sS'025805c1-444f-443b-b868-f4b5a536f4a5'
p236
(dp237
sS'6b372e75-8b63-4288-9f06-91324f6fc6a7'
p238
(dp239
sS'32e4e136-552f-4664-8677-01e5c3f90727'
p240
(dp241
sS'680f4c8a-4456-4f8c-ac66-03181ebfd37d'
p242
(dp243
sS'e4ba361b-55e7-4118-8f68-9fcb3d21117f'
p244
(dp245
sS'5b4b74b0-dda3-4b38-9654-49a900dc33df'
p246
(dp247
sS'0133409e-47b3-4c2d-8cb9-bfd0a5a001d0'
p248
(dp249
sS'00004820-1719-40e5-9c24-1268e4f62f76'
p250
(dp251
sS'ff1aa667-5cc6-409b-8116-83fff56a3b06'
p252
(dp253
sS'4cabc7bd-e5ea-4d55-870e-2407430b2f58'
p254
(dp255
sS'0268c30d-51fe-4f2f-a89d-1a718c94a16f'
p256
(dp257
ssg34
(dp258
S'24b0253f-f177-4554-86ac-6959afac374a'
p259
g243
ssg38
(dp260
S'24b0253f-f177-4554-86ac-6959afac374a'
p261
g235
ssg42
(dp262
S'24b0253f-f177-4554-86ac-6959afac374a'
p263
g253
ssg46
(dp264
S'24b0253f-f177-4554-86ac-6959afac374a'
p265
g241
ssg50
(dp266
S'84d3b5fc-db03-41d4-9c3e-a351c2cca6cb'
p267
(dp268
ssg54
(dp269
S'6b372e75-8b63-4288-9f06-91324f6fc6a7'
p270
(dp271
ssg58
(dp272
S'3f8103cb-7110-40f6-96fb-ee723ebbd9ff'
p273
(dp274
sS'c5367f83-4a90-4ca1-a34f-30ff3936a69b'
p275
(dp276
sS'62e2dcb6-74a1-4f92-8b1a-d4908a710ae2'
p277
(dp278
sS'ac955e73-ca4f-4e26-90e5-b8551ed72811'
p279
(dp280
ssg62
(dp281
S'5978dd91-3ad4-4e31-9b80-01a1ed70378c'
p282
g220
sS'3f8103cb-7110-40f6-96fb-ee723ebbd9ff'
p283
(dp284
sS'ecbd7eeb-ca09-422b-864f-34086260ee7e'
p285
(dp286
sS'24b0253f-f177-4554-86ac-6959afac374a'
p287
g239
sS'bce21822-5f95-42c3-b46d-b8eb1cb3d105'
p288
g226
sS'ae13a721-d2b6-41d1-a77e-ffa1444e01bd'
p289
g271
sS'd7360b6f-00fd-46e3-af94-463eb5944077'
p290
(dp291
ssg66
(dp292
S'f09b29b4-0184-4f6a-b69a-51b2a5e86e5a'
p293
(dp294
ssg70
(dp295
S'24b0253f-f177-4554-86ac-6959afac374a'
p296
g249
ssg74
(dp297
S'c5ed86bd-a578-4414-9c7e-b4fd0d4ab3cd'
p298
(dp299
ssg78
(dp300
S'84d3b5fc-db03-41d4-9c3e-a351c2cca6cb'
p301
(dp302
ssg82
(dp303
S'c5ed86bd-a578-4414-9c7e-b4fd0d4ab3cd'
p304
(dp305
ssg86
(dp306
S'84d3b5fc-db03-41d4-9c3e-a351c2cca6cb'
p307
(dp308
ssg90
(dp309
S'6b372e75-8b63-4288-9f06-91324f6fc6a7'
p310
g291
ssg94
(dp311
S'6b372e75-8b63-4288-9f06-91324f6fc6a7'
p312
g286
ssg98
(dp313
sg102
(dp314
S'19bd03a9-e840-4020-9a4c-0ca1ada80592'
p315
(dp316
sS'4df94722-00c1-492a-b226-b5081c73dcb2'
p317
g274
sS'6b372e75-8b63-4288-9f06-91324f6fc6a7'
p318
g284
sS'87dafb61-dd8c-4c7a-9d91-ec70f14a0bcd'
p319
(dp320
ssg106
(dp321
S'c5ed86bd-a578-4414-9c7e-b4fd0d4ab3cd'
p322
(dp323
ssg110
(dp324
S'f09b29b4-0184-4f6a-b69a-51b2a5e86e5a'
p325
(dp326
ssg114
(dp327
S'f09b29b4-0184-4f6a-b69a-51b2a5e86e5a'
p328
(dp329
ssg118
(dp330
S'19bd03a9-e840-4020-9a4c-0ca1ada80592'
p331
(dp332
ssg122
(dp333
S'19bd03a9-e840-4020-9a4c-0ca1ada80592'
p334
(dp335
ssg126
(dp336
S'f09b29b4-0184-4f6a-b69a-51b2a5e86e5a'
p337
(dp338
ssg130
(dp339
S'e363be66-a6c8-4b07-b1d8-477f75faad8e'
p340
g223
sS'3f8103cb-7110-40f6-96fb-ee723ebbd9ff'
p341
g316
sS'7638ff10-9d26-47d1-84e6-3dd913de55ef'
p342
g229
sS'412123c4-d37c-4cac-821f-8b204fb23065'
p343
g332
sS'84d3b5fc-db03-41d4-9c3e-a351c2cca6cb'
p344
(dp345
sS'837802ff-e1ff-4ce1-b687-d7dfd4fbf640'
p346
g335
ssg134
(dp347
S'3f8103cb-7110-40f6-96fb-ee723ebbd9ff'
p348
g320
sS'f09b29b4-0184-4f6a-b69a-51b2a5e86e5a'
p349
(dp350
ssg138
(dp351
S'84d3b5fc-db03-41d4-9c3e-a351c2cca6cb'
p352
(dp353
ssg142
(dp354
S'4df94722-00c1-492a-b226-b5081c73dcb2'
p355
g278
ssg146
(dp356
S'f09b29b4-0184-4f6a-b69a-51b2a5e86e5a'
p357
(dp358
ssg150
(dp359
S'f09b29b4-0184-4f6a-b69a-51b2a5e86e5a'
p360
(dp361
ssg154
(dp362
S'518a68f0-acbb-44bd-8c2d-e6f9e9d4889d'
p363
g323
sS'2c3d26ce-3efc-4003-9774-8410f671c8e0'
p364
g305
sS'84d3b5fc-db03-41d4-9c3e-a351c2cca6cb'
p365
(dp366
sS'1394d58e-46d8-4695-a189-8a773775efba'
p367
g299
ssg158
(dp368
S'24b0253f-f177-4554-86ac-6959afac374a'
p369
g237
ssg162
(dp370
S'f09b29b4-0184-4f6a-b69a-51b2a5e86e5a'
p371
(dp372
ssg166
(dp373
S'f09b29b4-0184-4f6a-b69a-51b2a5e86e5a'
p374
(dp375
ssg170
(dp376
S'4df94722-00c1-492a-b226-b5081c73dcb2'
p377
g276
ssg174
(dp378
S'f09b29b4-0184-4f6a-b69a-51b2a5e86e5a'
p379
(dp380
ssg178
(dp381
S'4df94722-00c1-492a-b226-b5081c73dcb2'
p382
g280
ssg182
(dp383
S'f09b29b4-0184-4f6a-b69a-51b2a5e86e5a'
p384
(dp385
ssg186
(dp386
S'24b0253f-f177-4554-86ac-6959afac374a'
p387
g245
ssg190
(dp388
S'24b0253f-f177-4554-86ac-6959afac374a'
p389
g247
ssg194
(dp390
S'24b0253f-f177-4554-86ac-6959afac374a'
p391
g251
ssg198
(dp392
S'5c31c9d9-868f-4abf-847a-19ae890c183a'
p393
g358
sS'94b7b9f1-f3f8-4a44-8513-7dc913072177'
p394
g361
sS'87dafb61-dd8c-4c7a-9d91-ec70f14a0bcd'
p395
g350
sS'9ce36db8-34b2-4c7d-b0a0-40230e400fb7'
p396
g232
sS'0eacff1e-f8c1-4038-9c65-7755b3f91a60'
p397
g375
sS'4f46eb6e-ae1a-4e86-a025-b4ad8bd589a0'
p398
g372
sS'ca8535f3-a683-4b85-b5cd-b004c722ea50'
p399
g326
sS'4f6ccbf5-2555-402d-b808-af4000e81b7a'
p400
g338
sS'488166ac-e948-4722-83d1-9443a72bf33d'
p401
g380
sS'72d5ae98-c190-48e6-8618-f2e7246e8dc0'
p402
g385
sS'ef257fae-31f5-452b-ae70-c60d6c7a451c'
p403
g294
sS'd89b8d7b-3464-4415-a8dd-a5f742d2e52d'
p404
g329
ssg202
(dp405
S'24b0253f-f177-4554-86ac-6959afac374a'
p406
g255
ssg206
(dp407
S'24b0253f-f177-4554-86ac-6959afac374a'
p408
g257
ssg210
(dp409
S'c5ed86bd-a578-4414-9c7e-b4fd0d4ab3cd'
p410
g366
sS'19bd03a9-e840-4020-9a4c-0ca1ada80592'
p411
g345
sS'd03c52a5-2e6b-49f1-9d3c-76d4550de297'
p412
g302
sS'cdd4d0f7-ae9e-4f44-9607-04b03da6d0da'
p413
g308
sS'ca8c1bcd-bd4e-4614-95b8-74400a895658'
p414
g353
sS'5847e8a8-7bc6-4742-b972-86eadcff26ab'
p415
g268
sssS'adj'
p416
g217
sb.