ccopy_reg
_reconstructor
p0
(cnetworkx.classes.graph
Graph
p1
c__builtin__
object
p2
Ntp3
Rp4
(dp5
S'node'
p6
(dp7
S'c7dcba7a-1c31-45ed-a121-63541f01f8d3'
p8
(dp9
S'type'
p10
S'R'
p11
sS'label'
p12
S'CLOSET'
p13
ssS'7cb0d3ee-fda9-4a6b-941b-c6aa8d8bc615'
p14
(dp15
g10
S'C'
p16
sg12
S'CORRIDOR'
p17
ssS'e6cd52e4-c043-49fb-8dbe-f46d66d7cd02'
p18
(dp19
g10
S'C'
p20
sg12
S'WASHROOM'
p21
ssS'cd931f83-1b81-4f5a-93de-2b9c7eaedb78'
p22
(dp23
g10
S'R'
p24
sg12
S'CLASSROOM'
p25
ssS'2176f517-2baf-48e2-a135-21a80539e450'
p26
(dp27
g10
S'C'
p28
sg12
S'CORRIDOR'
p29
ssS'3b68f796-5a7c-4fa1-81db-a7664d987abc'
p30
(dp31
g10
S'E'
p32
sg12
S'STAIRS'
p33
ssS'70bc27cf-628d-4b74-b906-d645697754ef'
p34
(dp35
g10
S'E'
p36
sg12
S'STAIRS'
p37
ssS'3d96441d-b39a-4041-8484-899636020d1f'
p38
(dp39
g10
S'R'
p40
sg12
S'MEDIUM SERVICE'
p41
ssS'727cb1eb-019a-4c92-92e4-6e367576c04f'
p42
(dp43
g10
S'R'
p44
sg12
S'CLASSROOM'
p45
ssS'ad4b6c7f-63a5-44be-adcb-04b0ab7f7e9b'
p46
(dp47
g10
S'R'
p48
sg12
S'CLOSET'
p49
ssS'f867518e-49d4-4c34-b1fc-f5dbbc799a6f'
p50
(dp51
g10
S'E'
p52
sg12
S'STAIRS'
p53
ssS'888c94c0-e97e-4060-9d14-4b437738cc10'
p54
(dp55
g10
S'C'
p56
sg12
S'CORRIDOR'
p57
ssS'8b3ff172-408c-4cbd-a9a8-59b1847874aa'
p58
(dp59
g10
S'R'
p60
sg12
S'CLASSROOM'
p61
ssS'c996091d-876b-4143-a2ce-34fb1d3b8318'
p62
(dp63
g10
S'R'
p64
sg12
S'LAB'
p65
ssS'21c75d52-fedb-43cf-888c-7159bfc4e0c3'
p66
(dp67
g10
S'E'
p68
sg12
S'STAIRS'
p69
ssS'd522d7e9-34dd-4fd0-9a69-06f81b4deb9a'
p70
(dp71
g10
S'R'
p72
sg12
S'CLASSROOM'
p73
ssS'd0dddb86-6fdf-47a2-bf89-f8122052b69d'
p74
(dp75
g10
S'R'
p76
sg12
S'CLASSROOM'
p77
ssS'dba110f7-2586-4426-8cac-84444a0c4b0f'
p78
(dp79
g10
S'C'
p80
sg12
S'CORRIDOR'
p81
ssS'309a5c81-52b6-4207-83e5-fd3e5cbccfe9'
p82
(dp83
g10
S'R'
p84
sg12
S'LAB'
p85
ssS'49f102ec-a507-4ae4-a183-aba20963467c'
p86
(dp87
g10
S'R'
p88
sg12
S'LAB'
p89
ssS'c089df66-d645-4d84-9e88-9a9059706daa'
p90
(dp91
g10
S'C'
p92
sg12
S'WASHROOM'
p93
ssS'60e27dd7-0ba7-4729-877d-60cb263064c3'
p94
(dp95
g10
S'R'
p96
sg12
S'CLOSET'
p97
ssS'6ade26cc-b121-4ce9-94e2-3abe362d1210'
p98
(dp99
g10
S'C'
p100
sg12
S'WASHROOM'
p101
ssS'4bca92b7-94cb-4ae0-b310-b6ace0d500f2'
p102
(dp103
g10
S'R'
p104
sg12
S'CLASSROOM'
p105
ssS'55c28c38-7701-4098-a9cd-969110ec766a'
p106
(dp107
g10
S'C'
p108
sg12
S'CORRIDOR'
p109
ssS'13ec522c-6891-4b27-9204-53c1ba18d36b'
p110
(dp111
g10
S'R'
p112
sg12
S'CLASSROOM'
p113
ssS'374d151b-6c98-4534-9c2a-f5ed012b72b7'
p114
(dp115
g10
S'R'
p116
sg12
S'MEDIUM ADMINISTRATIVE'
p117
ssS'253b1515-0c47-4a0d-843c-ee44ae0f2eb0'
p118
(dp119
g10
S'R'
p120
sg12
S'CLASSROOM'
p121
ssS'050a6d08-3494-4aa0-a9b0-a0ad1fd71cdc'
p122
(dp123
g10
S'R'
p124
sg12
S'CLASSROOM'
p125
ssS'2dd20bc9-dc6c-464a-91cf-57e394d2ac87'
p126
(dp127
g10
S'R'
p128
sg12
S'MEDIUM SERVICE'
p129
ssS'10a40c5f-cada-450b-8827-5db7b9dd449e'
p130
(dp131
g10
S'C'
p132
sg12
S'WASHROOM'
p133
ssS'c20e4003-e08b-4022-897f-a4c0a614b9b6'
p134
(dp135
g10
S'R'
p136
sg12
S'CLASSROOM'
p137
ssS'c76c9f8c-c4d8-40a9-a4e1-fe533b7c7001'
p138
(dp139
g10
S'E'
p140
sg12
S'STAIRS'
p141
ssS'a89ea544-3e98-4db8-aef2-3986ca502e77'
p142
(dp143
g10
S'R'
p144
sg12
S'LAB'
p145
ssS'f9dffba1-4d60-4638-83d0-61900c03256a'
p146
(dp147
g10
S'C'
p148
sg12
S'WASHROOM'
p149
ssS'd8eff2a4-e87d-44aa-b185-ea436f5d4eb4'
p150
(dp151
g10
S'R'
p152
sg12
S'LIBRARY'
p153
ssS'dbabeb76-65ae-4108-9fea-bf7a94d931c2'
p154
(dp155
g10
S'R'
p156
sg12
S'CLASSROOM'
p157
ssS'fe9c43df-0b2e-4d0f-8a0d-60dd1707bf51'
p158
(dp159
g10
S'C'
p160
sg12
S'CORRIDOR'
p161
ssS'0de41af4-1959-42c7-abe2-d1472ea26884'
p162
(dp163
g10
S'C'
p164
sg12
S'CORRIDOR'
p165
ssS'efb87c25-879f-4ed2-a423-e62d8b2006af'
p166
(dp167
g10
S'E'
p168
sg12
S'STAIRS'
p169
ssS'42668808-ab5c-4862-8674-9217d0e5509a'
p170
(dp171
g10
S'R'
p172
sg12
S'LAB'
p173
ssS'33a896d9-4387-4f5b-a11f-26c84900d2ae'
p174
(dp175
g10
S'R'
p176
sg12
S'LAB'
p177
ssS'936382c3-e4d2-4bac-accd-aa89395129c8'
p178
(dp179
g10
S'R'
p180
sg12
S'CLASSROOM'
p181
ssS'2f8f5f4b-0d0f-43e2-a51f-bdbb4a18e7a6'
p182
(dp183
g10
S'R'
p184
sg12
S'CLASSROOM'
p185
sssS'graph'
p186
(dp187
sS'edge'
p188
(dp189
g8
(dp190
S'dba110f7-2586-4426-8cac-84444a0c4b0f'
p191
(dp192
ssg14
(dp193
S'2176f517-2baf-48e2-a135-21a80539e450'
p194
(dp195
sS'fe9c43df-0b2e-4d0f-8a0d-60dd1707bf51'
p196
(dp197
sS'2dd20bc9-dc6c-464a-91cf-57e394d2ac87'
p198
(dp199
sS'70bc27cf-628d-4b74-b906-d645697754ef'
p200
(dp201
sS'd0dddb86-6fdf-47a2-bf89-f8122052b69d'
p202
(dp203
sS'727cb1eb-019a-4c92-92e4-6e367576c04f'
p204
(dp205
sS'ad4b6c7f-63a5-44be-adcb-04b0ab7f7e9b'
p206
(dp207
sS'dba110f7-2586-4426-8cac-84444a0c4b0f'
p208
(dp209
ssg18
(dp210
S'888c94c0-e97e-4060-9d14-4b437738cc10'
p211
(dp212
ssg22
(dp213
S'55c28c38-7701-4098-a9cd-969110ec766a'
p214
(dp215
ssg26
(dp216
S'7cb0d3ee-fda9-4a6b-941b-c6aa8d8bc615'
p217
g195
sS'd522d7e9-34dd-4fd0-9a69-06f81b4deb9a'
p218
(dp219
sS'2f8f5f4b-0d0f-43e2-a51f-bdbb4a18e7a6'
p220
(dp221
sS'888c94c0-e97e-4060-9d14-4b437738cc10'
p222
(dp223
ssg30
(dp224
S'888c94c0-e97e-4060-9d14-4b437738cc10'
p225
(dp226
ssg34
(dp227
S'7cb0d3ee-fda9-4a6b-941b-c6aa8d8bc615'
p228
g201
ssg38
(dp229
S'55c28c38-7701-4098-a9cd-969110ec766a'
p230
(dp231
ssg42
(dp232
S'7cb0d3ee-fda9-4a6b-941b-c6aa8d8bc615'
p233
g205
ssg46
(dp234
S'7cb0d3ee-fda9-4a6b-941b-c6aa8d8bc615'
p235
g207
ssg50
(dp236
S'55c28c38-7701-4098-a9cd-969110ec766a'
p237
(dp238
ssg54
(dp239
S'050a6d08-3494-4aa0-a9b0-a0ad1fd71cdc'
p240
(dp241
sS'4bca92b7-94cb-4ae0-b310-b6ace0d500f2'
p242
(dp243
sS'2176f517-2baf-48e2-a135-21a80539e450'
p244
g223
sS'374d151b-6c98-4534-9c2a-f5ed012b72b7'
p245
(dp246
sS'3b68f796-5a7c-4fa1-81db-a7664d987abc'
p247
g226
sS'efb87c25-879f-4ed2-a423-e62d8b2006af'
p248
(dp249
sS'42668808-ab5c-4862-8674-9217d0e5509a'
p250
(dp251
sS'c20e4003-e08b-4022-897f-a4c0a614b9b6'
p252
(dp253
sS'10a40c5f-cada-450b-8827-5db7b9dd449e'
p254
(dp255
sS'e6cd52e4-c043-49fb-8dbe-f46d66d7cd02'
p256
g212
sS'0de41af4-1959-42c7-abe2-d1472ea26884'
p257
(dp258
ssg58
(dp259
S'dba110f7-2586-4426-8cac-84444a0c4b0f'
p260
(dp261
ssg62
(dp262
S'dba110f7-2586-4426-8cac-84444a0c4b0f'
p263
(dp264
ssg66
(dp265
S'dba110f7-2586-4426-8cac-84444a0c4b0f'
p266
(dp267
ssg70
(dp268
S'2176f517-2baf-48e2-a135-21a80539e450'
p269
g219
ssg74
(dp270
S'7cb0d3ee-fda9-4a6b-941b-c6aa8d8bc615'
p271
g203
ssg78
(dp272
S'c7dcba7a-1c31-45ed-a121-63541f01f8d3'
p273
g192
sS'7cb0d3ee-fda9-4a6b-941b-c6aa8d8bc615'
p274
g209
sS'c996091d-876b-4143-a2ce-34fb1d3b8318'
p275
g264
sS'f9dffba1-4d60-4638-83d0-61900c03256a'
p276
(dp277
sS'21c75d52-fedb-43cf-888c-7159bfc4e0c3'
p278
g267
sS'dbabeb76-65ae-4108-9fea-bf7a94d931c2'
p279
(dp280
sS'55c28c38-7701-4098-a9cd-969110ec766a'
p281
(dp282
sS'13ec522c-6891-4b27-9204-53c1ba18d36b'
p283
(dp284
sS'6ade26cc-b121-4ce9-94e2-3abe362d1210'
p285
(dp286
sS'33a896d9-4387-4f5b-a11f-26c84900d2ae'
p287
(dp288
sS'253b1515-0c47-4a0d-843c-ee44ae0f2eb0'
p289
(dp290
sS'c76c9f8c-c4d8-40a9-a4e1-fe533b7c7001'
p291
(dp292
sS'a89ea544-3e98-4db8-aef2-3986ca502e77'
p293
(dp294
sS'8b3ff172-408c-4cbd-a9a8-59b1847874aa'
p295
g261
ssg82
(dp296
S'0de41af4-1959-42c7-abe2-d1472ea26884'
p297
(dp298
ssg86
(dp299
S'0de41af4-1959-42c7-abe2-d1472ea26884'
p300
(dp301
ssg90
(dp302
S'0de41af4-1959-42c7-abe2-d1472ea26884'
p303
(dp304
ssg94
(dp305
S'0de41af4-1959-42c7-abe2-d1472ea26884'
p306
(dp307
ssg98
(dp308
S'dba110f7-2586-4426-8cac-84444a0c4b0f'
p309
g286
ssg102
(dp310
S'888c94c0-e97e-4060-9d14-4b437738cc10'
p311
g243
ssg106
(dp312
S'cd931f83-1b81-4f5a-93de-2b9c7eaedb78'
p313
g215
sS'fe9c43df-0b2e-4d0f-8a0d-60dd1707bf51'
p314
(dp315
sS'0de41af4-1959-42c7-abe2-d1472ea26884'
p316
(dp317
sS'3d96441d-b39a-4041-8484-899636020d1f'
p318
g231
sS'936382c3-e4d2-4bac-accd-aa89395129c8'
p319
(dp320
sS'dba110f7-2586-4426-8cac-84444a0c4b0f'
p321
g282
sS'f867518e-49d4-4c34-b1fc-f5dbbc799a6f'
p322
g238
ssg110
(dp323
S'dba110f7-2586-4426-8cac-84444a0c4b0f'
p324
g284
ssg114
(dp325
S'888c94c0-e97e-4060-9d14-4b437738cc10'
p326
g246
ssg118
(dp327
S'dba110f7-2586-4426-8cac-84444a0c4b0f'
p328
g290
ssg122
(dp329
S'888c94c0-e97e-4060-9d14-4b437738cc10'
p330
g241
ssg126
(dp331
S'7cb0d3ee-fda9-4a6b-941b-c6aa8d8bc615'
p332
g199
ssg130
(dp333
S'888c94c0-e97e-4060-9d14-4b437738cc10'
p334
g255
ssg134
(dp335
S'888c94c0-e97e-4060-9d14-4b437738cc10'
p336
g253
ssg138
(dp337
S'dba110f7-2586-4426-8cac-84444a0c4b0f'
p338
g292
ssg142
(dp339
S'dba110f7-2586-4426-8cac-84444a0c4b0f'
p340
g294
ssg146
(dp341
S'dba110f7-2586-4426-8cac-84444a0c4b0f'
p342
g277
ssg150
(dp343
S'fe9c43df-0b2e-4d0f-8a0d-60dd1707bf51'
p344
(dp345
ssg154
(dp346
S'dba110f7-2586-4426-8cac-84444a0c4b0f'
p347
g280
ssg158
(dp348
S'55c28c38-7701-4098-a9cd-969110ec766a'
p349
g315
sS'7cb0d3ee-fda9-4a6b-941b-c6aa8d8bc615'
p350
g197
sS'd8eff2a4-e87d-44aa-b185-ea436f5d4eb4'
p351
g345
ssg162
(dp352
S'60e27dd7-0ba7-4729-877d-60cb263064c3'
p353
g307
sS'55c28c38-7701-4098-a9cd-969110ec766a'
p354
g317
sS'49f102ec-a507-4ae4-a183-aba20963467c'
p355
g301
sS'309a5c81-52b6-4207-83e5-fd3e5cbccfe9'
p356
g298
sS'888c94c0-e97e-4060-9d14-4b437738cc10'
p357
g258
sS'c089df66-d645-4d84-9e88-9a9059706daa'
p358
g304
ssg166
(dp359
S'888c94c0-e97e-4060-9d14-4b437738cc10'
p360
g249
ssg170
(dp361
S'888c94c0-e97e-4060-9d14-4b437738cc10'
p362
g251
ssg174
(dp363
S'dba110f7-2586-4426-8cac-84444a0c4b0f'
p364
g288
ssg178
(dp365
S'55c28c38-7701-4098-a9cd-969110ec766a'
p366
g320
ssg182
(dp367
S'2176f517-2baf-48e2-a135-21a80539e450'
p368
g221
sssS'adj'
p369
g189
sb.