ccopy_reg
_reconstructor
p0
(cnetworkx.classes.graph
Graph
p1
c__builtin__
object
p2
Ntp3
Rp4
(dp5
S'node'
p6
(dp7
S'c498a0f9-3594-4348-977c-61c6c5d4c23f'
p8
(dp9
S'type'
p10
S'R'
p11
sS'label'
p12
S'CLASSROOM'
p13
ssS'd5af2e37-4123-41c2-ac26-df7a94bc8229'
p14
(dp15
g10
S'C'
p16
sg12
S'CORRIDOR'
p17
ssS'8f5cd765-b570-4753-b482-885dabc33439'
p18
(dp19
g10
S'R'
p20
sg12
S'CLASSROOM'
p21
ssS'26ae99d5-c037-4bd7-b1c0-46f267d8125e'
p22
(dp23
g10
S'E'
p24
sg12
S'STAIRS'
p25
ssS'32ff771c-660f-4bbf-8dfa-bbcd03bb74cd'
p26
(dp27
g10
S'C'
p28
sg12
S'WASHROOM'
p29
ssS'27b09eeb-defc-476e-8be3-41cbb0eb815f'
p30
(dp31
g10
S'C'
p32
sg12
S'LOBBY'
p33
ssS'976fd622-6e87-40b6-9a7e-ab34fa5c8bde'
p34
(dp35
g10
S'R'
p36
sg12
S'CLASSROOM'
p37
ssS'7218a742-13d6-47d4-9b0c-4b52cc339f3f'
p38
(dp39
g10
S'R'
p40
sg12
S'CLASSROOM'
p41
ssS'f3bd4e27-93d5-40da-a82b-f9b6855bb9e7'
p42
(dp43
g10
S'R'
p44
sg12
S'CLASSROOM'
p45
ssS'a7753b1c-6abc-4b09-991c-065c2fad77ec'
p46
(dp47
g10
S'R'
p48
sg12
S'CLASSROOM'
p49
ssS'057a3d28-7178-42a2-823c-9a6fe0743303'
p50
(dp51
g10
S'R'
p52
sg12
S'CLASSROOM'
p53
ssS'f9d087bf-82bf-4708-bed6-1a130a0c1d91'
p54
(dp55
g10
S'C'
p56
sg12
S'CORRIDOR'
p57
ssS'18b6f370-f793-4017-9346-dcb0e784278b'
p58
(dp59
g10
S'C'
p60
sg12
S'WASHROOM'
p61
ssS'c53390f2-cbd0-4880-8eb2-47fad0f8e043'
p62
(dp63
g10
S'C'
p64
sg12
S'WASHROOM'
p65
ssS'842ea4f3-223f-43d3-9ee1-7d71bf8187e8'
p66
(dp67
g10
S'C'
p68
sg12
S'CORRIDOR'
p69
ssS'99c338a8-3456-44ae-a424-66dd3b2a342e'
p70
(dp71
g10
S'R'
p72
sg12
S'CLASSROOM'
p73
ssS'a893146f-be86-4680-b095-25ecd47790ae'
p74
(dp75
g10
S'E'
p76
sg12
S'STAIRS'
p77
ssS'8dcc7a77-2120-4080-a8c4-b8f4ea3289c5'
p78
(dp79
g10
S'C'
p80
sg12
S'CORRIDOR'
p81
ssS'2934955b-d866-4659-97a0-ab76729891e5'
p82
(dp83
g10
S'R'
p84
sg12
S'MEDIUM SERVICE'
p85
ssS'15605c05-9d9f-4114-b4a7-0a6027f54647'
p86
(dp87
g10
S'R'
p88
sg12
S'CLASSROOM'
p89
ssS'688ff227-f1e1-4f7d-bdfe-9ee27a0e5b7f'
p90
(dp91
g10
S'R'
p92
sg12
S'CLASSROOM'
p93
ssS'9d0f8d8d-18e3-4b3d-99ee-b1cf2b22500c'
p94
(dp95
g10
S'C'
p96
sg12
S'LOBBY'
p97
ssS'd872deb6-5e88-490a-84cd-c5b15ccbc927'
p98
(dp99
g10
S'C'
p100
sg12
S'LOBBY'
p101
ssS'c84f08f3-1734-43fb-9160-4256b5a9d145'
p102
(dp103
g10
S'R'
p104
sg12
S'CLASSROOM'
p105
ssS'3144c974-c56a-4165-9c58-7de193277b28'
p106
(dp107
g10
S'R'
p108
sg12
S'CLASSROOM'
p109
ssS'de9b8c91-3b4c-4192-a878-d0489fa44379'
p110
(dp111
g10
S'C'
p112
sg12
S'LOBBY'
p113
ssS'170918be-a46c-4e55-967b-ff7830dec69d'
p114
(dp115
g10
S'E'
p116
sg12
S'STAIRS'
p117
ssS'667a4af6-47d2-4390-b060-d2dec1ad3851'
p118
(dp119
g10
S'R'
p120
sg12
S'MEDIUM'
p121
ssS'401089ea-60b7-45cf-a50b-0b82adabc477'
p122
(dp123
g10
S'R'
p124
sg12
S'MEDIUM'
p125
ssS'b559e91c-026e-4524-9b65-53378a859ce3'
p126
(dp127
g10
S'R'
p128
sg12
S'CLASSROOM'
p129
ssS'9e16efc6-540a-4a87-8de8-9362156a735d'
p130
(dp131
g10
S'E'
p132
sg12
S'STAIRS'
p133
ssS'34035c04-4907-4804-938b-db2552b4395f'
p134
(dp135
g10
S'R'
p136
sg12
S'MEDIUM'
p137
ssS'd010fbd7-7247-4b06-ba02-7fa52a911ac1'
p138
(dp139
g10
S'C'
p140
sg12
S'WASHROOM'
p141
ssS'd84eacec-ae81-4b75-95af-5bbded56b6d0'
p142
(dp143
g10
S'R'
p144
sg12
S'CLASSROOM'
p145
ssS'6d149004-142e-4851-8fea-c2ffdcb35c70'
p146
(dp147
g10
S'R'
p148
sg12
S'CLASSROOM'
p149
ssS'6d9f658b-7acb-473c-a999-597bd32bed88'
p150
(dp151
g10
S'R'
p152
sg12
S'CLASSROOM'
p153
sssS'graph'
p154
(dp155
sS'edge'
p156
(dp157
g8
(dp158
S'd5af2e37-4123-41c2-ac26-df7a94bc8229'
p159
(dp160
ssg14
(dp161
S'f3bd4e27-93d5-40da-a82b-f9b6855bb9e7'
p162
(dp163
sS'842ea4f3-223f-43d3-9ee1-7d71bf8187e8'
p164
(dp165
sS'c498a0f9-3594-4348-977c-61c6c5d4c23f'
p166
g160
sS'9d0f8d8d-18e3-4b3d-99ee-b1cf2b22500c'
p167
(dp168
sS'99c338a8-3456-44ae-a424-66dd3b2a342e'
p169
(dp170
sS'8f5cd765-b570-4753-b482-885dabc33439'
p171
(dp172
sS'27b09eeb-defc-476e-8be3-41cbb0eb815f'
p173
(dp174
sS'f9d087bf-82bf-4708-bed6-1a130a0c1d91'
p175
(dp176
sS'6d149004-142e-4851-8fea-c2ffdcb35c70'
p177
(dp178
ssg18
(dp179
S'd5af2e37-4123-41c2-ac26-df7a94bc8229'
p180
g172
ssg22
(dp181
S'de9b8c91-3b4c-4192-a878-d0489fa44379'
p182
(dp183
ssg26
(dp184
S'2934955b-d866-4659-97a0-ab76729891e5'
p185
(dp186
sS'd872deb6-5e88-490a-84cd-c5b15ccbc927'
p187
(dp188
ssg30
(dp189
S'c53390f2-cbd0-4880-8eb2-47fad0f8e043'
p190
(dp191
sS'd5af2e37-4123-41c2-ac26-df7a94bc8229'
p192
g174
sS'170918be-a46c-4e55-967b-ff7830dec69d'
p193
(dp194
ssg34
(dp195
S'8dcc7a77-2120-4080-a8c4-b8f4ea3289c5'
p196
(dp197
ssg38
(dp198
S'842ea4f3-223f-43d3-9ee1-7d71bf8187e8'
p199
(dp200
ssg42
(dp201
S'667a4af6-47d2-4390-b060-d2dec1ad3851'
p202
(dp203
sS'd5af2e37-4123-41c2-ac26-df7a94bc8229'
p204
g163
ssg46
(dp205
S'f9d087bf-82bf-4708-bed6-1a130a0c1d91'
p206
(dp207
ssg50
(dp208
S'8dcc7a77-2120-4080-a8c4-b8f4ea3289c5'
p209
(dp210
ssg54
(dp211
S'99c338a8-3456-44ae-a424-66dd3b2a342e'
p212
(dp213
sS'a7753b1c-6abc-4b09-991c-065c2fad77ec'
p214
g207
sS'8dcc7a77-2120-4080-a8c4-b8f4ea3289c5'
p215
(dp216
sS'd5af2e37-4123-41c2-ac26-df7a94bc8229'
p217
g176
sS'15605c05-9d9f-4114-b4a7-0a6027f54647'
p218
(dp219
sS'6d9f658b-7acb-473c-a999-597bd32bed88'
p220
(dp221
ssg58
(dp222
S'9d0f8d8d-18e3-4b3d-99ee-b1cf2b22500c'
p223
(dp224
ssg62
(dp225
S'27b09eeb-defc-476e-8be3-41cbb0eb815f'
p226
g191
ssg66
(dp227
S'd872deb6-5e88-490a-84cd-c5b15ccbc927'
p228
(dp229
sS'c84f08f3-1734-43fb-9160-4256b5a9d145'
p230
(dp231
sS'b559e91c-026e-4524-9b65-53378a859ce3'
p232
(dp233
sS'8dcc7a77-2120-4080-a8c4-b8f4ea3289c5'
p234
(dp235
sS'd5af2e37-4123-41c2-ac26-df7a94bc8229'
p236
g165
sS'd84eacec-ae81-4b75-95af-5bbded56b6d0'
p237
(dp238
sS'7218a742-13d6-47d4-9b0c-4b52cc339f3f'
p239
g200
ssg70
(dp240
S'f9d087bf-82bf-4708-bed6-1a130a0c1d91'
p241
g213
sS'34035c04-4907-4804-938b-db2552b4395f'
p242
(dp243
sS'd5af2e37-4123-41c2-ac26-df7a94bc8229'
p244
g170
ssg74
(dp245
S'9d0f8d8d-18e3-4b3d-99ee-b1cf2b22500c'
p246
(dp247
ssg78
(dp248
S'842ea4f3-223f-43d3-9ee1-7d71bf8187e8'
p249
g235
sS'688ff227-f1e1-4f7d-bdfe-9ee27a0e5b7f'
p250
(dp251
sS'de9b8c91-3b4c-4192-a878-d0489fa44379'
p252
(dp253
sS'057a3d28-7178-42a2-823c-9a6fe0743303'
p254
g210
sS'f9d087bf-82bf-4708-bed6-1a130a0c1d91'
p255
g216
sS'976fd622-6e87-40b6-9a7e-ab34fa5c8bde'
p256
g197
sS'3144c974-c56a-4165-9c58-7de193277b28'
p257
(dp258
ssg82
(dp259
S'32ff771c-660f-4bbf-8dfa-bbcd03bb74cd'
p260
g186
ssg86
(dp261
S'f9d087bf-82bf-4708-bed6-1a130a0c1d91'
p262
g219
ssg90
(dp263
S'401089ea-60b7-45cf-a50b-0b82adabc477'
p264
(dp265
sS'8dcc7a77-2120-4080-a8c4-b8f4ea3289c5'
p266
g251
ssg94
(dp267
S'18b6f370-f793-4017-9346-dcb0e784278b'
p268
g224
sS'a893146f-be86-4680-b095-25ecd47790ae'
p269
g247
sS'd5af2e37-4123-41c2-ac26-df7a94bc8229'
p270
g168
ssg98
(dp271
S'842ea4f3-223f-43d3-9ee1-7d71bf8187e8'
p272
g229
sS'32ff771c-660f-4bbf-8dfa-bbcd03bb74cd'
p273
g188
sS'9e16efc6-540a-4a87-8de8-9362156a735d'
p274
(dp275
ssg102
(dp276
S'842ea4f3-223f-43d3-9ee1-7d71bf8187e8'
p277
g231
ssg106
(dp278
S'8dcc7a77-2120-4080-a8c4-b8f4ea3289c5'
p279
g258
ssg110
(dp280
S'd010fbd7-7247-4b06-ba02-7fa52a911ac1'
p281
(dp282
sS'8dcc7a77-2120-4080-a8c4-b8f4ea3289c5'
p283
g253
sS'26ae99d5-c037-4bd7-b1c0-46f267d8125e'
p284
g183
ssg114
(dp285
S'27b09eeb-defc-476e-8be3-41cbb0eb815f'
p286
g194
ssg118
(dp287
S'f3bd4e27-93d5-40da-a82b-f9b6855bb9e7'
p288
g203
ssg122
(dp289
S'688ff227-f1e1-4f7d-bdfe-9ee27a0e5b7f'
p290
g265
ssg126
(dp291
S'842ea4f3-223f-43d3-9ee1-7d71bf8187e8'
p292
g233
ssg130
(dp293
S'd872deb6-5e88-490a-84cd-c5b15ccbc927'
p294
g275
ssg134
(dp295
S'99c338a8-3456-44ae-a424-66dd3b2a342e'
p296
g243
ssg138
(dp297
S'de9b8c91-3b4c-4192-a878-d0489fa44379'
p298
g282
ssg142
(dp299
S'842ea4f3-223f-43d3-9ee1-7d71bf8187e8'
p300
g238
ssg146
(dp301
S'd5af2e37-4123-41c2-ac26-df7a94bc8229'
p302
g178
ssg150
(dp303
S'f9d087bf-82bf-4708-bed6-1a130a0c1d91'
p304
g221
sssS'adj'
p305
g157
sb.