ccopy_reg
_reconstructor
p0
(cnetworkx.classes.graph
Graph
p1
c__builtin__
object
p2
Ntp3
Rp4
(dp5
S'node'
p6
(dp7
S'a7203383-9e64-46ef-a508-a608871e629f'
p8
(dp9
S'type'
p10
S'R'
p11
sS'label'
p12
S'CLASSROOM'
p13
ssS'5e572f39-2bac-4909-a24c-518321b4c4dd'
p14
(dp15
g10
S'R'
p16
sg12
S'GYM'
p17
ssS'838d3787-1f72-493c-94dc-d96253a2cce5'
p18
(dp19
g10
S'C'
p20
sg12
S'CORRIDOR'
p21
ssS'c8f98c39-8002-472a-8bd8-279eafa80e9e'
p22
(dp23
g10
S'R'
p24
sg12
S'MEDIUM'
p25
ssS'e8dd1fc5-6e1c-48fc-8c11-d7a83cab6650'
p26
(dp27
g10
S'C'
p28
sg12
S'CORRIDOR'
p29
ssS'16b87a39-bb54-4151-9097-8314dc7be265'
p30
(dp31
g10
S'R'
p32
sg12
S'CLASSROOM'
p33
ssS'40a3a6de-4010-4598-a0d4-462b521858c9'
p34
(dp35
g10
S'C'
p36
sg12
S'WASHROOM'
p37
ssS'41b956b1-12d7-4559-a253-318c8e08fbe6'
p38
(dp39
g10
S'E'
p40
sg12
S'STAIRS'
p41
ssS'fbe4ebb8-8cef-4d31-9639-9bfc6c27f930'
p42
(dp43
g10
S'C'
p44
sg12
S'CORRIDOR'
p45
ssS'5803ad3f-84e0-4080-8ffc-b804008e6764'
p46
(dp47
g10
S'C'
p48
sg12
S'WASHROOM'
p49
ssS'511bf40d-94e2-4b7e-ba0d-a15495493c16'
p50
(dp51
g10
S'C'
p52
sg12
S'CORRIDOR'
p53
ssS'a61e8929-9dec-43db-8f2e-abbb31016d52'
p54
(dp55
g10
S'R'
p56
sg12
S'LAB'
p57
ssS'0ceb970c-d566-488e-bd26-aaf325a58b47'
p58
(dp59
g10
S'R'
p60
sg12
S'MEDIUM ADMINISTRATIVE'
p61
ssS'4c839454-54e2-400f-96f9-0720141ab09d'
p62
(dp63
g10
S'C'
p64
sg12
S'LOBBY'
p65
ssS'b8fcfd4f-9097-47a0-a3be-1b54d4c52c8d'
p66
(dp67
g10
S'R'
p68
sg12
S'LAB'
p69
ssS'd4d95896-8393-45a9-8151-9be880e94658'
p70
(dp71
g10
S'R'
p72
sg12
S'MEDIUM ADMINISTRATIVE'
p73
ssS'30630657-8ed6-4d63-b202-ac5413915baa'
p74
(dp75
g10
S'C'
p76
sg12
S'WASHROOM'
p77
ssS'd71ae52b-1de0-48b6-ac4c-339d89861303'
p78
(dp79
g10
S'R'
p80
sg12
S'BATHROOM'
p81
ssS'f21adadc-7a31-4d1c-910f-4f28632765a1'
p82
(dp83
g10
S'R'
p84
sg12
S'MEDIUM SERVICE'
p85
ssS'8d765abc-c92f-4777-86cd-0c7490454132'
p86
(dp87
g10
S'C'
p88
sg12
S'CORRIDOR'
p89
ssS'19c20c03-42ca-406f-9324-00bf84f10ec4'
p90
(dp91
g10
S'E'
p92
sg12
S'ENTRANCE'
p93
ssS'a5864cd0-3106-47e4-a455-b50fda9936af'
p94
(dp95
g10
S'R'
p96
sg12
S'CLASSROOM'
p97
ssS'f9bfdc0b-3714-4b87-8afa-c98f0b9abf6a'
p98
(dp99
g10
S'C'
p100
sg12
S'WASHROOM'
p101
ssS'39c1832d-c6b5-40f3-bbdb-e0963de275ca'
p102
(dp103
g10
S'E'
p104
sg12
S'STAIRS'
p105
ssS'efd4a281-f858-4756-b70e-3cbe57ca20f4'
p106
(dp107
g10
S'R'
p108
sg12
S'MEDIUM SERVICE'
p109
ssS'73064ca6-94c7-4b0a-975d-7f99dd10d568'
p110
(dp111
g10
S'C'
p112
sg12
S'CORRIDOR'
p113
ssS'61769c87-5f10-41fc-83cc-b8ae8d700256'
p114
(dp115
g10
S'R'
p116
sg12
S'CLASSROOM'
p117
ssS'126da023-e7fc-4f9a-a144-91cdf1bf9948'
p118
(dp119
g10
S'R'
p120
sg12
S'BATHROOM'
p121
ssS'd31ae096-0b77-4655-bce9-e8a703de2ad5'
p122
(dp123
g10
S'R'
p124
sg12
S'CLASSROOM'
p125
ssS'075cd99d-07ec-4857-a704-3f59841aee9c'
p126
(dp127
g10
S'R'
p128
sg12
S'MEDIUM SERVICE'
p129
ssS'ef99c684-63b0-483d-b9e7-3a7bb952f256'
p130
(dp131
g10
S'E'
p132
sg12
S'STAIRS'
p133
ssS'cf140f01-bfc1-47d3-be4f-359cea776dfb'
p134
(dp135
g10
S'R'
p136
sg12
S'CLASSROOM'
p137
ssS'5e260be6-b6e5-4501-a52e-cb53a650edce'
p138
(dp139
g10
S'E'
p140
sg12
S'STAIRS'
p141
ssS'20bb3b31-d230-45ea-8f3f-28356d16ceb1'
p142
(dp143
g10
S'C'
p144
sg12
S'CORRIDOR'
p145
ssS'638f65d9-12f3-4243-b4d4-04deb3d798d2'
p146
(dp147
g10
S'R'
p148
sg12
S'BATHROOM'
p149
ssS'bb02eaa6-6c02-46db-b95c-95e6b3d7ef9b'
p150
(dp151
g10
S'R'
p152
sg12
S'CLOSET'
p153
ssS'362de132-b34f-41c3-9eb0-19d164cddc07'
p154
(dp155
g10
S'C'
p156
sg12
S'CORRIDOR'
p157
ssS'b5406c56-8a9a-4d4d-b813-1052ecf4c0d9'
p158
(dp159
g10
S'R'
p160
sg12
S'CLASSROOM'
p161
ssS'4da10efe-af8f-49fd-99a8-f936aefc4344'
p162
(dp163
g10
S'R'
p164
sg12
S'BIG SERVICE'
p165
ssS'872662c5-8904-4d7e-80b1-4700dcec08f4'
p166
(dp167
g10
S'R'
p168
sg12
S'MEDIUM ADMINISTRATIVE'
p169
ssS'7f18e6bf-7bae-445f-b6b1-969fb9928623'
p170
(dp171
g10
S'R'
p172
sg12
S'BIG ADMINISTRATIVE'
p173
ssS'ca6e32aa-0d54-4a61-ad3d-f9620431f688'
p174
(dp175
g10
S'R'
p176
sg12
S'MEDIUM SERVICE'
p177
ssS'51638326-19db-41e5-bdcf-3c37e13834fe'
p178
(dp179
g10
S'R'
p180
sg12
S'BIG SERVICE'
p181
ssS'2bef9833-35cd-4512-bad1-782152e2da21'
p182
(dp183
g10
S'R'
p184
sg12
S'MEDIUM'
p185
sssS'graph'
p186
(dp187
sS'edge'
p188
(dp189
g8
(dp190
S'fbe4ebb8-8cef-4d31-9639-9bfc6c27f930'
p191
(dp192
ssg14
(dp193
S'362de132-b34f-41c3-9eb0-19d164cddc07'
p194
(dp195
sS'4da10efe-af8f-49fd-99a8-f936aefc4344'
p196
(dp197
sS'fbe4ebb8-8cef-4d31-9639-9bfc6c27f930'
p198
(dp199
sS'51638326-19db-41e5-bdcf-3c37e13834fe'
p200
(dp201
sS'511bf40d-94e2-4b7e-ba0d-a15495493c16'
p202
(dp203
sS'4c839454-54e2-400f-96f9-0720141ab09d'
p204
(dp205
ssg18
(dp206
S'fbe4ebb8-8cef-4d31-9639-9bfc6c27f930'
p207
(dp208
sS'5e260be6-b6e5-4501-a52e-cb53a650edce'
p209
(dp210
sS'30630657-8ed6-4d63-b202-ac5413915baa'
p211
(dp212
ssg22
(dp213
S'b5406c56-8a9a-4d4d-b813-1052ecf4c0d9'
p214
(dp215
sS'cf140f01-bfc1-47d3-be4f-359cea776dfb'
p216
(dp217
ssg26
(dp218
S'4c839454-54e2-400f-96f9-0720141ab09d'
p219
(dp220
sS'638f65d9-12f3-4243-b4d4-04deb3d798d2'
p221
(dp222
sS'126da023-e7fc-4f9a-a144-91cdf1bf9948'
p223
(dp224
sS'd71ae52b-1de0-48b6-ac4c-339d89861303'
p225
(dp226
ssg30
(dp227
S'fbe4ebb8-8cef-4d31-9639-9bfc6c27f930'
p228
(dp229
ssg34
(dp230
S'bb02eaa6-6c02-46db-b95c-95e6b3d7ef9b'
p231
(dp232
sS'73064ca6-94c7-4b0a-975d-7f99dd10d568'
p233
(dp234
ssg38
(dp235
S'4c839454-54e2-400f-96f9-0720141ab09d'
p236
(dp237
ssg42
(dp238
S'a7203383-9e64-46ef-a508-a608871e629f'
p239
g192
sS'5e572f39-2bac-4909-a24c-518321b4c4dd'
p240
g199
sS'a5864cd0-3106-47e4-a455-b50fda9936af'
p241
(dp242
sS'838d3787-1f72-493c-94dc-d96253a2cce5'
p243
g208
sS'16b87a39-bb54-4151-9097-8314dc7be265'
p244
g229
sS'73064ca6-94c7-4b0a-975d-7f99dd10d568'
p245
(dp246
sS'61769c87-5f10-41fc-83cc-b8ae8d700256'
p247
(dp248
sS'd31ae096-0b77-4655-bce9-e8a703de2ad5'
p249
(dp250
sS'20bb3b31-d230-45ea-8f3f-28356d16ceb1'
p251
(dp252
sS'362de132-b34f-41c3-9eb0-19d164cddc07'
p253
(dp254
sS'2bef9833-35cd-4512-bad1-782152e2da21'
p255
(dp256
ssg46
(dp257
S'7f18e6bf-7bae-445f-b6b1-969fb9928623'
p258
(dp259
ssg50
(dp260
S'8d765abc-c92f-4777-86cd-0c7490454132'
p261
(dp262
sS'5e572f39-2bac-4909-a24c-518321b4c4dd'
p263
g203
sS'b5406c56-8a9a-4d4d-b813-1052ecf4c0d9'
p264
(dp265
sS'efd4a281-f858-4756-b70e-3cbe57ca20f4'
p266
(dp267
sS'ca6e32aa-0d54-4a61-ad3d-f9620431f688'
p268
(dp269
sS'a61e8929-9dec-43db-8f2e-abbb31016d52'
p270
(dp271
sS'4c839454-54e2-400f-96f9-0720141ab09d'
p272
(dp273
sS'b8fcfd4f-9097-47a0-a3be-1b54d4c52c8d'
p274
(dp275
sS'075cd99d-07ec-4857-a704-3f59841aee9c'
p276
(dp277
ssg54
(dp278
S'511bf40d-94e2-4b7e-ba0d-a15495493c16'
p279
g271
ssg58
(dp280
S'7f18e6bf-7bae-445f-b6b1-969fb9928623'
p281
(dp282
sS'362de132-b34f-41c3-9eb0-19d164cddc07'
p283
(dp284
ssg62
(dp285
S'5e572f39-2bac-4909-a24c-518321b4c4dd'
p286
g205
sS'362de132-b34f-41c3-9eb0-19d164cddc07'
p287
(dp288
sS'e8dd1fc5-6e1c-48fc-8c11-d7a83cab6650'
p289
g220
sS'41b956b1-12d7-4559-a253-318c8e08fbe6'
p290
g237
sS'511bf40d-94e2-4b7e-ba0d-a15495493c16'
p291
g273
sS'19c20c03-42ca-406f-9324-00bf84f10ec4'
p292
(dp293
ssg66
(dp294
S'f21adadc-7a31-4d1c-910f-4f28632765a1'
p295
(dp296
sS'511bf40d-94e2-4b7e-ba0d-a15495493c16'
p297
g275
ssg70
(dp298
S'7f18e6bf-7bae-445f-b6b1-969fb9928623'
p299
(dp300
sS'362de132-b34f-41c3-9eb0-19d164cddc07'
p301
(dp302
ssg74
(dp303
S'838d3787-1f72-493c-94dc-d96253a2cce5'
p304
g212
ssg78
(dp305
S'e8dd1fc5-6e1c-48fc-8c11-d7a83cab6650'
p306
g226
ssg82
(dp307
S'b8fcfd4f-9097-47a0-a3be-1b54d4c52c8d'
p308
g296
ssg86
(dp309
S'511bf40d-94e2-4b7e-ba0d-a15495493c16'
p310
g262
sS'ef99c684-63b0-483d-b9e7-3a7bb952f256'
p311
(dp312
sS'f9bfdc0b-3714-4b87-8afa-c98f0b9abf6a'
p313
(dp314
ssg90
(dp315
S'4c839454-54e2-400f-96f9-0720141ab09d'
p316
g293
ssg94
(dp317
S'fbe4ebb8-8cef-4d31-9639-9bfc6c27f930'
p318
g242
ssg98
(dp319
S'8d765abc-c92f-4777-86cd-0c7490454132'
p320
g314
ssg102
(dp321
S'73064ca6-94c7-4b0a-975d-7f99dd10d568'
p322
(dp323
ssg106
(dp324
S'511bf40d-94e2-4b7e-ba0d-a15495493c16'
p325
g267
ssg110
(dp326
S'fbe4ebb8-8cef-4d31-9639-9bfc6c27f930'
p327
g246
sS'39c1832d-c6b5-40f3-bbdb-e0963de275ca'
p328
g323
sS'40a3a6de-4010-4598-a0d4-462b521858c9'
p329
g234
sS'cf140f01-bfc1-47d3-be4f-359cea776dfb'
p330
(dp331
ssg114
(dp332
S'fbe4ebb8-8cef-4d31-9639-9bfc6c27f930'
p333
g248
ssg118
(dp334
S'e8dd1fc5-6e1c-48fc-8c11-d7a83cab6650'
p335
g224
ssg122
(dp336
S'fbe4ebb8-8cef-4d31-9639-9bfc6c27f930'
p337
g250
ssg126
(dp338
S'511bf40d-94e2-4b7e-ba0d-a15495493c16'
p339
g277
ssg130
(dp340
S'8d765abc-c92f-4777-86cd-0c7490454132'
p341
g312
ssg134
(dp342
S'73064ca6-94c7-4b0a-975d-7f99dd10d568'
p343
g331
sS'c8f98c39-8002-472a-8bd8-279eafa80e9e'
p344
g217
ssg138
(dp345
S'838d3787-1f72-493c-94dc-d96253a2cce5'
p346
g210
ssg142
(dp347
S'872662c5-8904-4d7e-80b1-4700dcec08f4'
p348
(dp349
sS'fbe4ebb8-8cef-4d31-9639-9bfc6c27f930'
p350
g252
ssg146
(dp351
S'e8dd1fc5-6e1c-48fc-8c11-d7a83cab6650'
p352
g222
ssg150
(dp353
S'40a3a6de-4010-4598-a0d4-462b521858c9'
p354
g232
ssg154
(dp355
S'0ceb970c-d566-488e-bd26-aaf325a58b47'
p356
g284
sS'4c839454-54e2-400f-96f9-0720141ab09d'
p357
g288
sS'fbe4ebb8-8cef-4d31-9639-9bfc6c27f930'
p358
g254
sS'5e572f39-2bac-4909-a24c-518321b4c4dd'
p359
g195
sS'd4d95896-8393-45a9-8151-9be880e94658'
p360
g302
ssg158
(dp361
S'511bf40d-94e2-4b7e-ba0d-a15495493c16'
p362
g265
sS'c8f98c39-8002-472a-8bd8-279eafa80e9e'
p363
g215
ssg162
(dp364
S'5e572f39-2bac-4909-a24c-518321b4c4dd'
p365
g197
ssg166
(dp366
S'20bb3b31-d230-45ea-8f3f-28356d16ceb1'
p367
g349
ssg170
(dp368
S'0ceb970c-d566-488e-bd26-aaf325a58b47'
p369
g282
sS'5803ad3f-84e0-4080-8ffc-b804008e6764'
p370
g259
sS'd4d95896-8393-45a9-8151-9be880e94658'
p371
g300
ssg174
(dp372
S'511bf40d-94e2-4b7e-ba0d-a15495493c16'
p373
g269
ssg178
(dp374
S'5e572f39-2bac-4909-a24c-518321b4c4dd'
p375
g201
ssg182
(dp376
S'fbe4ebb8-8cef-4d31-9639-9bfc6c27f930'
p377
g256
sssS'adj'
p378
g189
sb.