ccopy_reg
_reconstructor
p0
(cnetworkx.classes.graph
Graph
p1
c__builtin__
object
p2
Ntp3
Rp4
(dp5
S'node'
p6
(dp7
S'32895821-67a1-42db-a87c-54f2006006ba'
p8
(dp9
S'type'
p10
S'R'
p11
sS'label'
p12
S'CLASSROOM'
p13
ssS'5fe91dab-8cc9-4f5e-8ad6-adf766bd6fb7'
p14
(dp15
g10
S'C'
p16
sg12
S'CORRIDOR'
p17
ssS'78cec73d-c5a0-4f2d-be9d-7b903617197d'
p18
(dp19
g10
S'C'
p20
sg12
S'CORRIDOR'
p21
ssS'6e69e3ba-1a02-42ef-aa48-751186007ce8'
p22
(dp23
g10
S'E'
p24
sg12
S'STAIRS'
p25
ssS'0f0a6858-7ed6-4342-a589-592f1ba5881e'
p26
(dp27
g10
S'C'
p28
sg12
S'CORRIDOR'
p29
ssS'ba363260-d4cc-4838-9156-4896a9ee79f8'
p30
(dp31
g10
S'R'
p32
sg12
S'MEDIUM SERVICE'
p33
ssS'2befa7d9-dd8a-41ac-997a-1353ef5f4a86'
p34
(dp35
g10
S'C'
p36
sg12
S'CORRIDOR'
p37
ssS'5f625710-68e1-494b-a204-1f9c9080010b'
p38
(dp39
g10
S'R'
p40
sg12
S'CLASSROOM'
p41
ssS'74aa15d0-3e08-4877-8cf6-4f739107fc6c'
p42
(dp43
g10
S'C'
p44
sg12
S'CORRIDOR'
p45
ssS'da4e545e-e918-415f-8da1-81d2765ec795'
p46
(dp47
g10
S'C'
p48
sg12
S'CORRIDOR'
p49
ssS'55c03352-6b9a-42c8-b442-8b348fd8482e'
p50
(dp51
g10
S'R'
p52
sg12
S'CLASSROOM'
p53
ssS'6248acde-f1c2-4e12-bfce-d500883b2a79'
p54
(dp55
g10
S'R'
p56
sg12
S'LAB'
p57
ssS'8e4d89e6-e59f-499d-bd24-e103cc5f20b1'
p58
(dp59
g10
S'R'
p60
sg12
S'MEDIUM SERVICE'
p61
ssS'61648624-0f78-4335-ab41-a273f09e641e'
p62
(dp63
g10
S'R'
p64
sg12
S'MEDIUM SERVICE'
p65
ssS'7f163352-a707-4963-a2b2-1147477f11c0'
p66
(dp67
g10
S'R'
p68
sg12
S'CLASSROOM'
p69
ssS'efa13d29-ad9a-4b6f-8f07-ea62d90f180b'
p70
(dp71
g10
S'R'
p72
sg12
S'CLASSROOM'
p73
ssS'cf4c52c2-e480-4ba8-823a-261a2093a4fc'
p74
(dp75
g10
S'R'
p76
sg12
S'CLOSET'
p77
ssS'a140e486-4d3c-434f-bfae-2fb1e4bfd838'
p78
(dp79
g10
S'R'
p80
sg12
S'CLASSROOM'
p81
ssS'6dec9695-d0ea-41e0-9429-fdcd4a4a7f9b'
p82
(dp83
g10
S'E'
p84
sg12
S'STAIRS'
p85
ssS'e23772da-7549-4fb9-a9c4-7e80af20c2f7'
p86
(dp87
g10
S'R'
p88
sg12
S'MEDIUM SERVICE'
p89
sssS'graph'
p90
(dp91
sS'edge'
p92
(dp93
g8
(dp94
S'5fe91dab-8cc9-4f5e-8ad6-adf766bd6fb7'
p95
(dp96
ssg14
(dp97
S'32895821-67a1-42db-a87c-54f2006006ba'
p98
g96
sS'8e4d89e6-e59f-499d-bd24-e103cc5f20b1'
p99
(dp100
sS'6e69e3ba-1a02-42ef-aa48-751186007ce8'
p101
(dp102
sS'74aa15d0-3e08-4877-8cf6-4f739107fc6c'
p103
(dp104
ssg18
(dp105
S'74aa15d0-3e08-4877-8cf6-4f739107fc6c'
p106
(dp107
sS'5f625710-68e1-494b-a204-1f9c9080010b'
p108
(dp109
sS'7f163352-a707-4963-a2b2-1147477f11c0'
p110
(dp111
sS'2befa7d9-dd8a-41ac-997a-1353ef5f4a86'
p112
(dp113
ssg22
(dp114
S'5fe91dab-8cc9-4f5e-8ad6-adf766bd6fb7'
p115
g102
ssg26
(dp116
S'74aa15d0-3e08-4877-8cf6-4f739107fc6c'
p117
(dp118
sS'2befa7d9-dd8a-41ac-997a-1353ef5f4a86'
p119
(dp120
sS'6dec9695-d0ea-41e0-9429-fdcd4a4a7f9b'
p121
(dp122
sS'55c03352-6b9a-42c8-b442-8b348fd8482e'
p123
(dp124
ssg30
(dp125
S'74aa15d0-3e08-4877-8cf6-4f739107fc6c'
p126
(dp127
ssg34
(dp128
S'efa13d29-ad9a-4b6f-8f07-ea62d90f180b'
p129
(dp130
sS'78cec73d-c5a0-4f2d-be9d-7b903617197d'
p131
g113
sS'a140e486-4d3c-434f-bfae-2fb1e4bfd838'
p132
(dp133
sS'0f0a6858-7ed6-4342-a589-592f1ba5881e'
p134
g120
ssg38
(dp135
S'78cec73d-c5a0-4f2d-be9d-7b903617197d'
p136
g109
ssg42
(dp137
S'5fe91dab-8cc9-4f5e-8ad6-adf766bd6fb7'
p138
g104
sS'0f0a6858-7ed6-4342-a589-592f1ba5881e'
p139
g118
sS'ba363260-d4cc-4838-9156-4896a9ee79f8'
p140
g127
sS'da4e545e-e918-415f-8da1-81d2765ec795'
p141
(dp142
sS'78cec73d-c5a0-4f2d-be9d-7b903617197d'
p143
g107
sS'6248acde-f1c2-4e12-bfce-d500883b2a79'
p144
(dp145
ssg46
(dp146
S'cf4c52c2-e480-4ba8-823a-261a2093a4fc'
p147
(dp148
sS'74aa15d0-3e08-4877-8cf6-4f739107fc6c'
p149
g142
sS'61648624-0f78-4335-ab41-a273f09e641e'
p150
(dp151
sS'e23772da-7549-4fb9-a9c4-7e80af20c2f7'
p152
(dp153
ssg50
(dp154
S'0f0a6858-7ed6-4342-a589-592f1ba5881e'
p155
g124
ssg54
(dp156
S'74aa15d0-3e08-4877-8cf6-4f739107fc6c'
p157
g145
ssg58
(dp158
S'5fe91dab-8cc9-4f5e-8ad6-adf766bd6fb7'
p159
g100
ssg62
(dp160
S'da4e545e-e918-415f-8da1-81d2765ec795'
p161
g151
ssg66
(dp162
S'78cec73d-c5a0-4f2d-be9d-7b903617197d'
p163
g111
ssg70
(dp164
S'2befa7d9-dd8a-41ac-997a-1353ef5f4a86'
p165
g130
ssg74
(dp166
S'da4e545e-e918-415f-8da1-81d2765ec795'
p167
g148
ssg78
(dp168
S'2befa7d9-dd8a-41ac-997a-1353ef5f4a86'
p169
g133
ssg82
(dp170
S'0f0a6858-7ed6-4342-a589-592f1ba5881e'
p171
g122
ssg86
(dp172
S'da4e545e-e918-415f-8da1-81d2765ec795'
p173
g153
sssS'adj'
p174
g93
sb.