ccopy_reg
_reconstructor
p0
(cnetworkx.classes.graph
Graph
p1
c__builtin__
object
p2
Ntp3
Rp4
(dp5
S'node'
p6
(dp7
S'ad251743-8a6a-4079-b79a-5b24416f6154'
p8
(dp9
S'type'
p10
S'R'
p11
sS'label'
p12
S'LIBRARY'
p13
ssS'e4d35f26-bd53-45c8-a6ba-177f099186e7'
p14
(dp15
g10
S'E'
p16
sg12
S'STAIRS'
p17
ssS'c4ad9024-db67-4c45-a831-eec84f683ed1'
p18
(dp19
g10
S'C'
p20
sg12
S'WASHROOM'
p21
ssS'e37e186d-2bfe-4fd2-9ae3-969620074568'
p22
(dp23
g10
S'E'
p24
sg12
S'STAIRS'
p25
ssS'93980dce-7e4a-4686-8c3e-80290d2f528e'
p26
(dp27
g10
S'E'
p28
sg12
S'STAIRS'
p29
ssS'2711dd69-da14-4756-bd2a-926d89e923ae'
p30
(dp31
g10
S'R'
p32
sg12
S'CLOSET'
p33
ssS'040e6d4e-4bed-467e-b022-9b82cac697be'
p34
(dp35
g10
S'R'
p36
sg12
S'BATHROOM'
p37
ssS'4c5d0677-df41-4af5-9ab1-6ba1bf7afa43'
p38
(dp39
g10
S'C'
p40
sg12
S'CORRIDOR'
p41
ssS'23713ef3-17c9-4474-b054-479ea5869feb'
p42
(dp43
g10
S'E'
p44
sg12
S'STAIRS'
p45
ssS'bbf94736-b12a-43ae-b635-d592cc919027'
p46
(dp47
g10
S'C'
p48
sg12
S'WASHROOM'
p49
ssS'34bd662b-f468-4d86-bf51-781de854ba3e'
p50
(dp51
g10
S'R'
p52
sg12
S'CLOSET'
p53
ssS'71bf9808-70aa-4b3d-99c9-621c409a4e53'
p54
(dp55
g10
S'E'
p56
sg12
S'STAIRS'
p57
ssS'b69282a4-f8b0-456a-aa40-d7d8e3c1c009'
p58
(dp59
g10
S'R'
p60
sg12
S'CLASSROOM'
p61
ssS'24a3db64-6976-48a0-806e-52c775dae727'
p62
(dp63
g10
S'C'
p64
sg12
S'CORRIDOR'
p65
ssS'5e7ec7a6-1cd5-4d03-9a55-ebf45b6f4f08'
p66
(dp67
g10
S'E'
p68
sg12
S'STAIRS'
p69
ssS'd09eda8f-750f-4c46-a66f-a1c624e6489b'
p70
(dp71
g10
S'R'
p72
sg12
S'CLOSET'
p73
ssS'9226700f-25d3-413b-883e-3b789058813e'
p74
(dp75
g10
S'C'
p76
sg12
S'CORRIDOR'
p77
ssS'17aae2a5-f7df-49c9-abd2-79b0a4102b34'
p78
(dp79
g10
S'R'
p80
sg12
S'CLOSET'
p81
ssS'6096b701-63e2-4d47-955c-e43dc5594e02'
p82
(dp83
g10
S'E'
p84
sg12
S'STAIRS'
p85
ssS'312be3c5-0a50-4a66-bb27-5bad37048fee'
p86
(dp87
g10
S'R'
p88
sg12
S'MEDIUM ADMINISTRATIVE'
p89
ssS'e7799cde-b317-4566-84ec-5a71107444bc'
p90
(dp91
g10
S'R'
p92
sg12
S'CLOSET'
p93
ssS'121703e6-2a7e-40b6-948b-0313b80305b3'
p94
(dp95
g10
S'R'
p96
sg12
S'MEDIUM SERVICE'
p97
ssS'b3cab7b8-5c61-4e75-a283-f2219e52b7c0'
p98
(dp99
g10
S'R'
p100
sg12
S'BATHROOM'
p101
ssS'cd90f674-5eda-496f-8dec-f9f826179708'
p102
(dp103
g10
S'R'
p104
sg12
S'CLASSROOM'
p105
ssS'61d2461b-7201-4e43-a1b0-839d4535a2ae'
p106
(dp107
g10
S'E'
p108
sg12
S'STAIRS'
p109
ssS'd7ba63db-5f69-46a6-ab57-868828f0281d'
p110
(dp111
g10
S'C'
p112
sg12
S'CORRIDOR'
p113
ssS'b656464c-cb2e-4734-86d2-4190d265760e'
p114
(dp115
g10
S'R'
p116
sg12
S'CLOSET'
p117
ssS'62bd5abd-302d-4c2a-8ec0-bfc43e7470ec'
p118
(dp119
g10
S'R'
p120
sg12
S'MEDIUM SERVICE'
p121
ssS'2d92e674-c8ed-48d8-9613-13bdf1383695'
p122
(dp123
g10
S'R'
p124
sg12
S'CONFERENCE'
p125
ssS'f561e3e2-95ee-423c-bb54-ff5122616a91'
p126
(dp127
g10
S'R'
p128
sg12
S'BATHROOM'
p129
ssS'0f04b661-2d8b-402e-b449-2b8766c24b1d'
p130
(dp131
g10
S'R'
p132
sg12
S'CLASSROOM'
p133
ssS'4f35ffa3-a5a9-4d80-bd26-86826efa8cd5'
p134
(dp135
g10
S'R'
p136
sg12
S'MEDIUM ADMINISTRATIVE'
p137
ssS'3ebbb4f4-58f3-4038-be06-bd67c477d55e'
p138
(dp139
g10
S'R'
p140
sg12
S'CLASSROOM'
p141
ssS'ef136698-7fc6-4295-9710-d23bc4a72287'
p142
(dp143
g10
S'C'
p144
sg12
S'LOBBY'
p145
ssS'f642504e-5454-476a-a9f3-9c540fbbffb2'
p146
(dp147
g10
S'C'
p148
sg12
S'CORRIDOR'
p149
ssS'577e71dc-f5f8-47cd-985c-586254aac677'
p150
(dp151
g10
S'R'
p152
sg12
S'BATHROOM'
p153
ssS'b798468e-c2b2-423f-8126-e8abc6ed05fa'
p154
(dp155
g10
S'R'
p156
sg12
S'CLASSROOM'
p157
ssS'cdd7fb2a-2809-43f8-8e52-16c2837e2616'
p158
(dp159
g10
S'R'
p160
sg12
S'CLOSET'
p161
ssS'fe020c20-885f-46ba-99d2-2f46291dec7e'
p162
(dp163
g10
S'E'
p164
sg12
S'STAIRS'
p165
ssS'7840f65e-c450-4a4f-b2de-e85312a161de'
p166
(dp167
g10
S'E'
p168
sg12
S'ENTRANCE'
p169
ssS'eaa9d4e5-ae7b-4a75-ac23-3b21f51856a9'
p170
(dp171
g10
S'C'
p172
sg12
S'WASHROOM'
p173
ssS'237c0994-cbf3-442e-8974-d8943a28a70d'
p174
(dp175
g10
S'R'
p176
sg12
S'CLOSET'
p177
ssS'7f42fbd7-02b0-4a01-9297-5feab6e9b178'
p178
(dp179
g10
S'E'
p180
sg12
S'STAIRS'
p181
ssS'482e6014-63d5-43bd-b90a-c949d5a515b6'
p182
(dp183
g10
S'R'
p184
sg12
S'LAB'
p185
ssS'b104b754-ef5b-4d2b-bb6c-5d9a66384469'
p186
(dp187
g10
S'R'
p188
sg12
S'CLASSROOM'
p189
ssS'210c5a2f-00d5-4fdb-b429-f69b057dd28b'
p190
(dp191
g10
S'E'
p192
sg12
S'STAIRS'
p193
ssS'c1fbc8b8-d1a3-45ab-ac22-403457cc1f46'
p194
(dp195
g10
S'R'
p196
sg12
S'BATHROOM'
p197
ssS'a28e46d6-70da-4677-ace4-e15514b687d4'
p198
(dp199
g10
S'R'
p200
sg12
S'CLASSROOM'
p201
ssS'b54e13d4-fb05-4b5f-bb85-0b3969a05730'
p202
(dp203
g10
S'R'
p204
sg12
S'CLASSROOM'
p205
ssS'42dc795b-e86e-4d91-b05d-850d0ab3d4ca'
p206
(dp207
g10
S'R'
p208
sg12
S'CLOSET'
p209
ssS'65c66a23-ebf9-4963-b5d5-3f54ec6ea81e'
p210
(dp211
g10
S'C'
p212
sg12
S'WASHROOM'
p213
ssS'f39684ef-cf79-4eae-8fb0-dab05835369e'
p214
(dp215
g10
S'R'
p216
sg12
S'CLOSET'
p217
ssS'd1e77ff9-40e9-4c2d-b5cb-c8b7d0384c2a'
p218
(dp219
g10
S'R'
p220
sg12
S'MEDIUM SERVICE'
p221
ssS'cec39be7-1752-4c09-9ecd-5f86aaf204f4'
p222
(dp223
g10
S'E'
p224
sg12
S'STAIRS'
p225
ssS'f06ba504-172a-4ff6-a2c6-78fff0e19dbd'
p226
(dp227
g10
S'R'
p228
sg12
S'GYM'
p229
ssS'0876f7fb-c381-4133-8b9b-e2d3a034b84e'
p230
(dp231
g10
S'R'
p232
sg12
S'CLOSET'
p233
ssS'53af1a24-7a2d-4017-b451-85c19cc25974'
p234
(dp235
g10
S'E'
p236
sg12
S'STAIRS'
p237
ssS'65be530a-5337-494d-ac8a-0eb03cf7cead'
p238
(dp239
g10
S'R'
p240
sg12
S'MEDIUM SERVICE'
p241
ssS'dde93559-8a14-416d-87b4-9c7b6057148e'
p242
(dp243
g10
S'C'
p244
sg12
S'CORRIDOR'
p245
ssS'8a55bbac-5275-494c-afb3-cf0863af786a'
p246
(dp247
g10
S'E'
p248
sg12
S'STAIRS'
p249
ssS'6d497551-48f6-4129-8264-8fbf8aa032ac'
p250
(dp251
g10
S'R'
p252
sg12
S'CLASSROOM'
p253
ssS'36066528-6932-4bd6-9f4f-429b60fbfada'
p254
(dp255
g10
S'R'
p256
sg12
S'CLOSET'
p257
sssS'graph'
p258
(dp259
sS'edge'
p260
(dp261
g8
(dp262
S'312be3c5-0a50-4a66-bb27-5bad37048fee'
p263
(dp264
sS'4c5d0677-df41-4af5-9ab1-6ba1bf7afa43'
p265
(dp266
ssg14
(dp267
S'f06ba504-172a-4ff6-a2c6-78fff0e19dbd'
p268
(dp269
ssg18
(dp270
S'c1fbc8b8-d1a3-45ab-ac22-403457cc1f46'
p271
(dp272
sS'4c5d0677-df41-4af5-9ab1-6ba1bf7afa43'
p273
(dp274
sS'4f35ffa3-a5a9-4d80-bd26-86826efa8cd5'
p275
(dp276
ssg22
(dp277
S'd09eda8f-750f-4c46-a66f-a1c624e6489b'
p278
(dp279
ssg26
(dp280
S'17aae2a5-f7df-49c9-abd2-79b0a4102b34'
p281
(dp282
ssg30
(dp283
S'24a3db64-6976-48a0-806e-52c775dae727'
p284
(dp285
ssg34
(dp286
S'bbf94736-b12a-43ae-b635-d592cc919027'
p287
(dp288
ssg38
(dp289
S'ef136698-7fc6-4295-9710-d23bc4a72287'
p290
(dp291
sS'f642504e-5454-476a-a9f3-9c540fbbffb2'
p292
(dp293
sS'ad251743-8a6a-4079-b79a-5b24416f6154'
p294
g266
sS'c4ad9024-db67-4c45-a831-eec84f683ed1'
p295
g274
sS'b54e13d4-fb05-4b5f-bb85-0b3969a05730'
p296
(dp297
sS'e7799cde-b317-4566-84ec-5a71107444bc'
p298
(dp299
sS'b656464c-cb2e-4734-86d2-4190d265760e'
p300
(dp301
sS'2d92e674-c8ed-48d8-9613-13bdf1383695'
p302
(dp303
sS'24a3db64-6976-48a0-806e-52c775dae727'
p304
(dp305
ssg42
(dp306
S'f06ba504-172a-4ff6-a2c6-78fff0e19dbd'
p307
(dp308
ssg46
(dp309
S'f642504e-5454-476a-a9f3-9c540fbbffb2'
p310
(dp311
sS'040e6d4e-4bed-467e-b022-9b82cac697be'
p312
g288
ssg50
(dp313
S'312be3c5-0a50-4a66-bb27-5bad37048fee'
p314
(dp315
ssg54
(dp316
S'f06ba504-172a-4ff6-a2c6-78fff0e19dbd'
p317
(dp318
ssg58
(dp319
S'dde93559-8a14-416d-87b4-9c7b6057148e'
p320
(dp321
ssg62
(dp322
S'0f04b661-2d8b-402e-b449-2b8766c24b1d'
p323
(dp324
sS'2711dd69-da14-4756-bd2a-926d89e923ae'
p325
g285
sS'4c5d0677-df41-4af5-9ab1-6ba1bf7afa43'
p326
g305
sS'237c0994-cbf3-442e-8974-d8943a28a70d'
p327
(dp328
sS'0876f7fb-c381-4133-8b9b-e2d3a034b84e'
p329
(dp330
sS'b798468e-c2b2-423f-8126-e8abc6ed05fa'
p331
(dp332
sS'dde93559-8a14-416d-87b4-9c7b6057148e'
p333
(dp334
sS'b104b754-ef5b-4d2b-bb6c-5d9a66384469'
p335
(dp336
sS'3ebbb4f4-58f3-4038-be06-bd67c477d55e'
p337
(dp338
ssg66
(dp339
S'42dc795b-e86e-4d91-b05d-850d0ab3d4ca'
p340
(dp341
ssg70
(dp342
S'e7799cde-b317-4566-84ec-5a71107444bc'
p343
(dp344
sS'2d92e674-c8ed-48d8-9613-13bdf1383695'
p345
(dp346
sS'e37e186d-2bfe-4fd2-9ae3-969620074568'
p347
g279
sS'8a55bbac-5275-494c-afb3-cf0863af786a'
p348
(dp349
ssg74
(dp350
S'f39684ef-cf79-4eae-8fb0-dab05835369e'
p351
(dp352
sS'2d92e674-c8ed-48d8-9613-13bdf1383695'
p353
(dp354
ssg78
(dp355
S'6096b701-63e2-4d47-955c-e43dc5594e02'
p356
(dp357
sS'93980dce-7e4a-4686-8c3e-80290d2f528e'
p358
g282
sS'36066528-6932-4bd6-9f4f-429b60fbfada'
p359
(dp360
ssg82
(dp361
S'17aae2a5-f7df-49c9-abd2-79b0a4102b34'
p362
g357
ssg86
(dp363
S'ef136698-7fc6-4295-9710-d23bc4a72287'
p364
(dp365
sS'ad251743-8a6a-4079-b79a-5b24416f6154'
p366
g264
sS'34bd662b-f468-4d86-bf51-781de854ba3e'
p367
g315
ssg90
(dp368
S'eaa9d4e5-ae7b-4a75-ac23-3b21f51856a9'
p369
(dp370
sS'd09eda8f-750f-4c46-a66f-a1c624e6489b'
p371
g344
sS'4c5d0677-df41-4af5-9ab1-6ba1bf7afa43'
p372
g299
ssg94
(dp373
S'f561e3e2-95ee-423c-bb54-ff5122616a91'
p374
(dp375
sS'fe020c20-885f-46ba-99d2-2f46291dec7e'
p376
(dp377
sS'2d92e674-c8ed-48d8-9613-13bdf1383695'
p378
(dp379
ssg98
(dp380
S'4f35ffa3-a5a9-4d80-bd26-86826efa8cd5'
p381
(dp382
ssg102
(dp383
S'd7ba63db-5f69-46a6-ab57-868828f0281d'
p384
(dp385
ssg106
(dp386
S'f06ba504-172a-4ff6-a2c6-78fff0e19dbd'
p387
(dp388
ssg110
(dp389
S'f642504e-5454-476a-a9f3-9c540fbbffb2'
p390
(dp391
sS'cd90f674-5eda-496f-8dec-f9f826179708'
p392
g385
ssg114
(dp393
S'65c66a23-ebf9-4963-b5d5-3f54ec6ea81e'
p394
(dp395
sS'4c5d0677-df41-4af5-9ab1-6ba1bf7afa43'
p396
g301
sS'f39684ef-cf79-4eae-8fb0-dab05835369e'
p397
(dp398
ssg118
(dp399
S'f642504e-5454-476a-a9f3-9c540fbbffb2'
p400
(dp401
sS'482e6014-63d5-43bd-b90a-c949d5a515b6'
p402
(dp403
ssg122
(dp404
S'd09eda8f-750f-4c46-a66f-a1c624e6489b'
p405
g346
sS'9226700f-25d3-413b-883e-3b789058813e'
p406
g354
sS'fe020c20-885f-46ba-99d2-2f46291dec7e'
p407
(dp408
sS'4c5d0677-df41-4af5-9ab1-6ba1bf7afa43'
p409
g303
sS'd1e77ff9-40e9-4c2d-b5cb-c8b7d0384c2a'
p410
(dp411
sS'f06ba504-172a-4ff6-a2c6-78fff0e19dbd'
p412
(dp413
sS'121703e6-2a7e-40b6-948b-0313b80305b3'
p414
g379
ssg126
(dp415
S'121703e6-2a7e-40b6-948b-0313b80305b3'
p416
g375
ssg130
(dp417
S'24a3db64-6976-48a0-806e-52c775dae727'
p418
g324
ssg134
(dp419
S'ef136698-7fc6-4295-9710-d23bc4a72287'
p420
(dp421
sS'cdd7fb2a-2809-43f8-8e52-16c2837e2616'
p422
(dp423
sS'c4ad9024-db67-4c45-a831-eec84f683ed1'
p424
g276
sS'b3cab7b8-5c61-4e75-a283-f2219e52b7c0'
p425
g382
ssg138
(dp426
S'24a3db64-6976-48a0-806e-52c775dae727'
p427
g338
ssg142
(dp428
S'312be3c5-0a50-4a66-bb27-5bad37048fee'
p429
g365
sS'4c5d0677-df41-4af5-9ab1-6ba1bf7afa43'
p430
g291
sS'4f35ffa3-a5a9-4d80-bd26-86826efa8cd5'
p431
g421
sS'7840f65e-c450-4a4f-b2de-e85312a161de'
p432
(dp433
ssg146
(dp434
S'a28e46d6-70da-4677-ace4-e15514b687d4'
p435
(dp436
sS'd7ba63db-5f69-46a6-ab57-868828f0281d'
p437
g391
sS'4c5d0677-df41-4af5-9ab1-6ba1bf7afa43'
p438
g293
sS'bbf94736-b12a-43ae-b635-d592cc919027'
p439
g311
sS'482e6014-63d5-43bd-b90a-c949d5a515b6'
p440
(dp441
sS'65be530a-5337-494d-ac8a-0eb03cf7cead'
p442
(dp443
sS'62bd5abd-302d-4c2a-8ec0-bfc43e7470ec'
p444
g401
sS'6d497551-48f6-4129-8264-8fbf8aa032ac'
p445
(dp446
sS'36066528-6932-4bd6-9f4f-429b60fbfada'
p447
(dp448
ssg150
(dp449
S'd1e77ff9-40e9-4c2d-b5cb-c8b7d0384c2a'
p450
(dp451
ssg154
(dp452
S'24a3db64-6976-48a0-806e-52c775dae727'
p453
g332
ssg158
(dp454
S'4f35ffa3-a5a9-4d80-bd26-86826efa8cd5'
p455
g423
ssg162
(dp456
S'2d92e674-c8ed-48d8-9613-13bdf1383695'
p457
g408
sS'121703e6-2a7e-40b6-948b-0313b80305b3'
p458
g377
sS'8a55bbac-5275-494c-afb3-cf0863af786a'
p459
(dp460
ssg166
(dp461
S'ef136698-7fc6-4295-9710-d23bc4a72287'
p462
g433
ssg170
(dp463
S'e7799cde-b317-4566-84ec-5a71107444bc'
p464
g370
ssg174
(dp465
S'42dc795b-e86e-4d91-b05d-850d0ab3d4ca'
p466
(dp467
sS'24a3db64-6976-48a0-806e-52c775dae727'
p468
g328
ssg178
(dp469
S'42dc795b-e86e-4d91-b05d-850d0ab3d4ca'
p470
(dp471
ssg182
(dp472
S'f642504e-5454-476a-a9f3-9c540fbbffb2'
p473
g441
sS'62bd5abd-302d-4c2a-8ec0-bfc43e7470ec'
p474
g403
sS'65be530a-5337-494d-ac8a-0eb03cf7cead'
p475
(dp476
ssg186
(dp477
S'24a3db64-6976-48a0-806e-52c775dae727'
p478
g336
ssg190
(dp479
S'f06ba504-172a-4ff6-a2c6-78fff0e19dbd'
p480
(dp481
ssg194
(dp482
S'c4ad9024-db67-4c45-a831-eec84f683ed1'
p483
g272
ssg198
(dp484
S'f642504e-5454-476a-a9f3-9c540fbbffb2'
p485
g436
ssg202
(dp486
S'4c5d0677-df41-4af5-9ab1-6ba1bf7afa43'
p487
g297
ssg206
(dp488
S'237c0994-cbf3-442e-8974-d8943a28a70d'
p489
g467
sS'7f42fbd7-02b0-4a01-9297-5feab6e9b178'
p490
g471
sS'5e7ec7a6-1cd5-4d03-9a55-ebf45b6f4f08'
p491
g341
ssg210
(dp492
S'b656464c-cb2e-4734-86d2-4190d265760e'
p493
g395
ssg214
(dp494
S'cec39be7-1752-4c09-9ecd-5f86aaf204f4'
p495
(dp496
sS'9226700f-25d3-413b-883e-3b789058813e'
p497
g352
sS'b656464c-cb2e-4734-86d2-4190d265760e'
p498
g398
ssg218
(dp499
S'f06ba504-172a-4ff6-a2c6-78fff0e19dbd'
p500
(dp501
sS'577e71dc-f5f8-47cd-985c-586254aac677'
p502
g451
sS'2d92e674-c8ed-48d8-9613-13bdf1383695'
p503
g411
ssg222
(dp504
S'f39684ef-cf79-4eae-8fb0-dab05835369e'
p505
g496
ssg226
(dp506
S'd1e77ff9-40e9-4c2d-b5cb-c8b7d0384c2a'
p507
g501
sS'e4d35f26-bd53-45c8-a6ba-177f099186e7'
p508
g269
sS'71bf9808-70aa-4b3d-99c9-621c409a4e53'
p509
g318
sS'61d2461b-7201-4e43-a1b0-839d4535a2ae'
p510
g388
sS'210c5a2f-00d5-4fdb-b429-f69b057dd28b'
p511
g481
sS'23713ef3-17c9-4474-b054-479ea5869feb'
p512
g308
sS'53af1a24-7a2d-4017-b451-85c19cc25974'
p513
(dp514
sS'2d92e674-c8ed-48d8-9613-13bdf1383695'
p515
g413
ssg230
(dp516
S'24a3db64-6976-48a0-806e-52c775dae727'
p517
g330
ssg234
(dp518
S'f06ba504-172a-4ff6-a2c6-78fff0e19dbd'
p519
g514
ssg238
(dp520
S'f642504e-5454-476a-a9f3-9c540fbbffb2'
p521
g443
sS'482e6014-63d5-43bd-b90a-c949d5a515b6'
p522
g476
ssg242
(dp523
S'b69282a4-f8b0-456a-aa40-d7d8e3c1c009'
p524
g321
sS'24a3db64-6976-48a0-806e-52c775dae727'
p525
g334
ssg246
(dp526
S'd09eda8f-750f-4c46-a66f-a1c624e6489b'
p527
g349
sS'fe020c20-885f-46ba-99d2-2f46291dec7e'
p528
g460
ssg250
(dp529
S'f642504e-5454-476a-a9f3-9c540fbbffb2'
p530
g446
ssg254
(dp531
S'f642504e-5454-476a-a9f3-9c540fbbffb2'
p532
g448
sS'17aae2a5-f7df-49c9-abd2-79b0a4102b34'
p533
g360
sssS'adj'
p534
g261
sb.