ccopy_reg
_reconstructor
p0
(cnetworkx.classes.graph
Graph
p1
c__builtin__
object
p2
Ntp3
Rp4
(dp5
S'node'
p6
(dp7
S'7e87a652-1cb0-457a-a74c-14273b42a6a1'
p8
(dp9
S'type'
p10
S'R'
p11
sS'label'
p12
S'LAB'
p13
ssS'f1d915a6-24e4-4d97-9296-6b190c4fa300'
p14
(dp15
g10
S'C'
p16
sg12
S'CORRIDOR'
p17
ssS'3b4793d2-9fce-4e20-88f7-ff9aea5cb201'
p18
(dp19
g10
S'C'
p20
sg12
S'HALL'
p21
ssS'654d91e7-ea7c-41b5-bf5f-749e94ba3a2b'
p22
(dp23
g10
S'C'
p24
sg12
S'CORRIDOR'
p25
ssS'eccc3f90-20d7-454b-ba21-f1e141a9a376'
p26
(dp27
g10
S'C'
p28
sg12
S'WASHROOM'
p29
ssS'7e293c4c-fc61-40e1-a1b6-0daacd16d83b'
p30
(dp31
g10
S'R'
p32
sg12
S'CLASSROOM'
p33
ssS'b6abcb07-91ed-48df-8133-9c66f63268e4'
p34
(dp35
g10
S'R'
p36
sg12
S'CLASSROOM'
p37
ssS'dee09816-b8d3-4791-a7d9-2f79bcc9ee48'
p38
(dp39
g10
S'R'
p40
sg12
S'MEDIUM SERVICE'
p41
ssS'202a0c98-a4ae-4331-9c6e-5b1bf175e5eb'
p42
(dp43
g10
S'R'
p44
sg12
S'CLASSROOM'
p45
ssS'6bad5165-15a2-421d-a981-b9ddefa7674d'
p46
(dp47
g10
S'R'
p48
sg12
S'CLASSROOM'
p49
ssS'27e878e9-1f0a-4024-b68b-7a58035792a7'
p50
(dp51
g10
S'R'
p52
sg12
S'CLASSROOM'
p53
ssS'13443b20-8714-4b48-a835-2d043bba682d'
p54
(dp55
g10
S'E'
p56
sg12
S'ENTRANCE'
p57
ssS'b185615e-2391-4eec-abd6-290edb04c8f9'
p58
(dp59
g10
S'E'
p60
sg12
S'ENTRANCE'
p61
ssS'e6c031f9-d6ba-4015-b76d-197cf3d0b50e'
p62
(dp63
g10
S'R'
p64
sg12
S'GYM'
p65
ssS'f219200b-7148-49a5-a9ca-1f89a2fe8f61'
p66
(dp67
g10
S'R'
p68
sg12
S'MEDIUM SERVICE'
p69
ssS'408fa344-da86-4b03-8353-495ed0c20146'
p70
(dp71
g10
S'C'
p72
sg12
S'CORRIDOR'
p73
ssS'0851ff61-979a-453c-8ddc-0dd4860c26ca'
p74
(dp75
g10
S'R'
p76
sg12
S'CLASSROOM'
p77
ssS'0d40aaf5-8b64-479e-b3f9-a86bef299cc3'
p78
(dp79
g10
S'R'
p80
sg12
S'CLASSROOM'
p81
ssS'caa67c30-ff96-4999-a2da-69b1d67b2d3b'
p82
(dp83
g10
S'R'
p84
sg12
S'LIBRARY'
p85
ssS'77211e47-1cda-494c-82ce-131213faa19d'
p86
(dp87
g10
S'R'
p88
sg12
S'CLASSROOM'
p89
ssS'5a40d5ee-0e63-4eef-a037-f32ef22b571b'
p90
(dp91
g10
S'E'
p92
sg12
S'ENTRANCE'
p93
ssS'35f876d4-b7aa-4cd6-9950-080edc2caae9'
p94
(dp95
g10
S'R'
p96
sg12
S'CLOSET'
p97
ssS'72519f56-0c9b-43a6-abc8-e54d9d44bdfb'
p98
(dp99
g10
S'E'
p100
sg12
S'ENTRANCE'
p101
ssS'232184d4-66bc-4763-99ed-80811e6331b3'
p102
(dp103
g10
S'R'
p104
sg12
S'LAB'
p105
ssS'1ecc28c8-f5f6-4f05-a9b3-e8d1f7f01a38'
p106
(dp107
g10
S'C'
p108
sg12
S'WASHROOM'
p109
ssS'4f101396-a2b4-484e-9e7d-5039507c5e6d'
p110
(dp111
g10
S'R'
p112
sg12
S'MEDIUM ADMINISTRATIVE'
p113
ssS'0e6a4039-0e40-404c-bc26-c88cf94b4cd8'
p114
(dp115
g10
S'R'
p116
sg12
S'CLASSROOM'
p117
ssS'c67dce4d-93c0-40bf-b398-e3c38bbbd39f'
p118
(dp119
g10
S'E'
p120
sg12
S'STAIRS'
p121
ssS'1ad10917-3869-4886-a048-dce0ad03c7e3'
p122
(dp123
g10
S'R'
p124
sg12
S'BATHROOM'
p125
ssS'a9246f65-c8f7-43a8-b851-5713b5105d5e'
p126
(dp127
g10
S'R'
p128
sg12
S'MEDIUM ADMINISTRATIVE'
p129
ssS'fe1e857a-d9c8-4462-a029-7906ded1fdb9'
p130
(dp131
g10
S'E'
p132
sg12
S'ENTRANCE'
p133
ssS'32375605-1cbf-47c4-b6d8-ac85a5fa1e50'
p134
(dp135
g10
S'C'
p136
sg12
S'CORRIDOR'
p137
ssS'8beeb596-d2f2-4bfb-b5ce-a059bf620ab4'
p138
(dp139
g10
S'R'
p140
sg12
S'LAB'
p141
sssS'graph'
p142
(dp143
sS'edge'
p144
(dp145
g8
(dp146
S'32375605-1cbf-47c4-b6d8-ac85a5fa1e50'
p147
(dp148
ssg14
(dp149
S'eccc3f90-20d7-454b-ba21-f1e141a9a376'
p150
(dp151
sS'6bad5165-15a2-421d-a981-b9ddefa7674d'
p152
(dp153
sS'408fa344-da86-4b03-8353-495ed0c20146'
p154
(dp155
sS'27e878e9-1f0a-4024-b68b-7a58035792a7'
p156
(dp157
sS'0d40aaf5-8b64-479e-b3f9-a86bef299cc3'
p158
(dp159
sS'fe1e857a-d9c8-4462-a029-7906ded1fdb9'
p160
(dp161
sS'77211e47-1cda-494c-82ce-131213faa19d'
p162
(dp163
sS'32375605-1cbf-47c4-b6d8-ac85a5fa1e50'
p164
(dp165
ssg18
(dp166
S'408fa344-da86-4b03-8353-495ed0c20146'
p167
(dp168
sS'4f101396-a2b4-484e-9e7d-5039507c5e6d'
p169
(dp170
sS'5a40d5ee-0e63-4eef-a037-f32ef22b571b'
p171
(dp172
sS'a9246f65-c8f7-43a8-b851-5713b5105d5e'
p173
(dp174
ssg22
(dp175
S'72519f56-0c9b-43a6-abc8-e54d9d44bdfb'
p176
(dp177
sS'1ecc28c8-f5f6-4f05-a9b3-e8d1f7f01a38'
p178
(dp179
sS'0e6a4039-0e40-404c-bc26-c88cf94b4cd8'
p180
(dp181
sS'8beeb596-d2f2-4bfb-b5ce-a059bf620ab4'
p182
(dp183
sS'202a0c98-a4ae-4331-9c6e-5b1bf175e5eb'
p184
(dp185
sS'caa67c30-ff96-4999-a2da-69b1d67b2d3b'
p186
(dp187
sS'b6abcb07-91ed-48df-8133-9c66f63268e4'
p188
(dp189
sS'408fa344-da86-4b03-8353-495ed0c20146'
p190
(dp191
sS'c67dce4d-93c0-40bf-b398-e3c38bbbd39f'
p192
(dp193
ssg26
(dp194
S'e6c031f9-d6ba-4015-b76d-197cf3d0b50e'
p195
(dp196
sS'f1d915a6-24e4-4d97-9296-6b190c4fa300'
p197
g151
ssg30
(dp198
S'32375605-1cbf-47c4-b6d8-ac85a5fa1e50'
p199
(dp200
ssg34
(dp201
S'654d91e7-ea7c-41b5-bf5f-749e94ba3a2b'
p202
g189
ssg38
(dp203
S'e6c031f9-d6ba-4015-b76d-197cf3d0b50e'
p204
(dp205
ssg42
(dp206
S'654d91e7-ea7c-41b5-bf5f-749e94ba3a2b'
p207
g185
ssg46
(dp208
S'f1d915a6-24e4-4d97-9296-6b190c4fa300'
p209
g153
ssg50
(dp210
S'408fa344-da86-4b03-8353-495ed0c20146'
p211
(dp212
sS'f1d915a6-24e4-4d97-9296-6b190c4fa300'
p213
g157
ssg54
(dp214
S'32375605-1cbf-47c4-b6d8-ac85a5fa1e50'
p215
(dp216
ssg58
(dp217
S'caa67c30-ff96-4999-a2da-69b1d67b2d3b'
p218
(dp219
ssg62
(dp220
S'408fa344-da86-4b03-8353-495ed0c20146'
p221
(dp222
sS'1ecc28c8-f5f6-4f05-a9b3-e8d1f7f01a38'
p223
(dp224
sS'f219200b-7148-49a5-a9ca-1f89a2fe8f61'
p225
(dp226
sS'dee09816-b8d3-4791-a7d9-2f79bcc9ee48'
p227
g205
sS'eccc3f90-20d7-454b-ba21-f1e141a9a376'
p228
g196
ssg66
(dp229
S'e6c031f9-d6ba-4015-b76d-197cf3d0b50e'
p230
g226
ssg70
(dp231
S'f1d915a6-24e4-4d97-9296-6b190c4fa300'
p232
g155
sS'3b4793d2-9fce-4e20-88f7-ff9aea5cb201'
p233
g168
sS'654d91e7-ea7c-41b5-bf5f-749e94ba3a2b'
p234
g191
sS'27e878e9-1f0a-4024-b68b-7a58035792a7'
p235
g212
sS'a9246f65-c8f7-43a8-b851-5713b5105d5e'
p236
(dp237
sS'e6c031f9-d6ba-4015-b76d-197cf3d0b50e'
p238
g222
ssg74
(dp239
S'32375605-1cbf-47c4-b6d8-ac85a5fa1e50'
p240
(dp241
ssg78
(dp242
S'f1d915a6-24e4-4d97-9296-6b190c4fa300'
p243
g159
ssg82
(dp244
S'654d91e7-ea7c-41b5-bf5f-749e94ba3a2b'
p245
g187
sS'b185615e-2391-4eec-abd6-290edb04c8f9'
p246
g219
ssg86
(dp247
S'f1d915a6-24e4-4d97-9296-6b190c4fa300'
p248
g163
ssg90
(dp249
S'3b4793d2-9fce-4e20-88f7-ff9aea5cb201'
p250
g172
ssg94
(dp251
S'232184d4-66bc-4763-99ed-80811e6331b3'
p252
(dp253
ssg98
(dp254
S'654d91e7-ea7c-41b5-bf5f-749e94ba3a2b'
p255
g177
ssg102
(dp256
S'32375605-1cbf-47c4-b6d8-ac85a5fa1e50'
p257
(dp258
sS'35f876d4-b7aa-4cd6-9950-080edc2caae9'
p259
g253
ssg106
(dp260
S'e6c031f9-d6ba-4015-b76d-197cf3d0b50e'
p261
g224
sS'654d91e7-ea7c-41b5-bf5f-749e94ba3a2b'
p262
g179
ssg110
(dp263
S'3b4793d2-9fce-4e20-88f7-ff9aea5cb201'
p264
g170
sS'8beeb596-d2f2-4bfb-b5ce-a059bf620ab4'
p265
(dp266
ssg114
(dp267
S'654d91e7-ea7c-41b5-bf5f-749e94ba3a2b'
p268
g181
ssg118
(dp269
S'654d91e7-ea7c-41b5-bf5f-749e94ba3a2b'
p270
g193
ssg122
(dp271
S'32375605-1cbf-47c4-b6d8-ac85a5fa1e50'
p272
(dp273
ssg126
(dp274
S'3b4793d2-9fce-4e20-88f7-ff9aea5cb201'
p275
g174
sS'408fa344-da86-4b03-8353-495ed0c20146'
p276
g237
ssg130
(dp277
S'f1d915a6-24e4-4d97-9296-6b190c4fa300'
p278
g161
ssg134
(dp279
S'7e87a652-1cb0-457a-a74c-14273b42a6a1'
p280
g148
sS'f1d915a6-24e4-4d97-9296-6b190c4fa300'
p281
g165
sS'232184d4-66bc-4763-99ed-80811e6331b3'
p282
g258
sS'1ad10917-3869-4886-a048-dce0ad03c7e3'
p283
g273
sS'0851ff61-979a-453c-8ddc-0dd4860c26ca'
p284
g241
sS'7e293c4c-fc61-40e1-a1b6-0daacd16d83b'
p285
g200
sS'13443b20-8714-4b48-a835-2d043bba682d'
p286
g216
ssg138
(dp287
S'4f101396-a2b4-484e-9e7d-5039507c5e6d'
p288
g266
sS'654d91e7-ea7c-41b5-bf5f-749e94ba3a2b'
p289
g183
sssS'adj'
p290
g145
sb.