ccopy_reg
_reconstructor
p0
(cnetworkx.classes.graph
Graph
p1
c__builtin__
object
p2
Ntp3
Rp4
(dp5
S'node'
p6
(dp7
S'3900f8a2-7dbb-412a-843e-98e10d4156b5'
p8
(dp9
S'type'
p10
S'R'
p11
sS'label'
p12
S'LAB'
p13
ssS'8a4211a1-5120-4740-85be-9973a7f4e65f'
p14
(dp15
g10
S'R'
p16
sg12
S'MEDIUM SERVICE'
p17
ssS'12dea67c-dac8-4b82-90b2-04caf0a80b95'
p18
(dp19
g10
S'R'
p20
sg12
S'CLASSROOM'
p21
ssS'6a5bb0e2-f5af-4a98-aef9-0a9f2681506b'
p22
(dp23
g10
S'C'
p24
sg12
S'WASHROOM'
p25
ssS'c640b764-0f11-41a5-80b0-f31c69786d53'
p26
(dp27
g10
S'R'
p28
sg12
S'MEDIUM SERVICE'
p29
ssS'8aefb01b-64d2-4406-b61a-bc974dde9923'
p30
(dp31
g10
S'C'
p32
sg12
S'CORRIDOR'
p33
ssS'1530f9bd-4110-4021-b535-4b3aa63873a3'
p34
(dp35
g10
S'R'
p36
sg12
S'SMALL ADMINISTRATIVE'
p37
ssS'ddec66b0-e85f-4d65-83d4-c15ddcfbcceb'
p38
(dp39
g10
S'R'
p40
sg12
S'CONFERENCE'
p41
ssS'c228e598-db9c-4cbf-aac4-b875662485a5'
p42
(dp43
g10
S'R'
p44
sg12
S'MEDIUM ADMINISTRATIVE'
p45
ssS'4f64a376-e601-4700-8846-9f25d94f6e00'
p46
(dp47
g10
S'C'
p48
sg12
S'WASHROOM'
p49
ssS'2b66c717-93bc-4cbc-85f5-dd3ce712686a'
p50
(dp51
g10
S'R'
p52
sg12
S'CLASSROOM'
p53
ssS'7d83c3e1-909e-4791-b08d-443067d08a17'
p54
(dp55
g10
S'C'
p56
sg12
S'CORRIDOR'
p57
ssS'839ff5d0-5e8a-48f8-abe6-c2c6dbed1035'
p58
(dp59
g10
S'R'
p60
sg12
S'CLASSROOM'
p61
ssS'03c53fdd-afb0-460b-9ff7-163ba48d0d53'
p62
(dp63
g10
S'R'
p64
sg12
S'CLASSROOM'
p65
ssS'aacbacb0-e83d-4e87-82c2-5683d6f4c4a2'
p66
(dp67
g10
S'R'
p68
sg12
S'CLASSROOM'
p69
ssS'5bef9be0-7dc9-48f9-bf62-0fab44118326'
p70
(dp71
g10
S'R'
p72
sg12
S'MEDIUM SERVICE'
p73
ssS'09ceebe0-8f66-4a2a-89df-ca19915ad57f'
p74
(dp75
g10
S'C'
p76
sg12
S'CORRIDOR'
p77
ssS'6e0517da-626b-4f75-aaf9-5762e13b9287'
p78
(dp79
g10
S'R'
p80
sg12
S'CLASSROOM'
p81
ssS'20998d5a-bae4-4a12-9c15-11a01d041c75'
p82
(dp83
g10
S'R'
p84
sg12
S'CLASSROOM'
p85
ssS'3340c8d4-3357-4807-b4c9-4a6b0f33b866'
p86
(dp87
g10
S'C'
p88
sg12
S'CORRIDOR'
p89
ssS'e4104dda-4851-4b2e-a604-eeb8c69926e2'
p90
(dp91
g10
S'R'
p92
sg12
S'CLASSROOM'
p93
ssS'ecc948a1-903c-4fa2-9082-75d10005fde5'
p94
(dp95
g10
S'R'
p96
sg12
S'CONFERENCE'
p97
ssS'f7f25bc4-7cfe-44e9-8b95-193afe04e6f9'
p98
(dp99
g10
S'R'
p100
sg12
S'CLASSROOM'
p101
ssS'f2344760-5093-431c-9b5d-3f2f7c81dbe4'
p102
(dp103
g10
S'E'
p104
sg12
S'ENTRANCE'
p105
ssS'24077621-66d2-4951-9c69-70a2100cda4f'
p106
(dp107
g10
S'C'
p108
sg12
S'CORRIDOR'
p109
ssS'05322d9a-6733-46f7-a5b7-49f07d5410c7'
p110
(dp111
g10
S'C'
p112
sg12
S'CORRIDOR'
p113
ssS'7cf7235d-09ac-467c-bc2f-a3e9a834149c'
p114
(dp115
g10
S'R'
p116
sg12
S'LAB'
p117
ssS'3af60765-e391-4e8e-9c56-487efe9b6b68'
p118
(dp119
g10
S'R'
p120
sg12
S'MEDIUM ADMINISTRATIVE'
p121
ssS'fbe14f08-78d9-4e0f-ac2f-5917fd5cd07b'
p122
(dp123
g10
S'R'
p124
sg12
S'CLASSROOM'
p125
ssS'60b812d2-60ae-4b49-b0cc-88614c9a0c61'
p126
(dp127
g10
S'R'
p128
sg12
S'MEDIUM ADMINISTRATIVE'
p129
ssS'd7717876-14fc-40b9-a97c-30df865b661e'
p130
(dp131
g10
S'C'
p132
sg12
S'WASHROOM'
p133
ssS'21f1dbea-7572-4316-947b-0cc3e5abfa8f'
p134
(dp135
g10
S'E'
p136
sg12
S'STAIRS'
p137
ssS'1fcb15f2-ab95-4f13-8711-12ae7d98151a'
p138
(dp139
g10
S'C'
p140
sg12
S'CORRIDOR'
p141
ssS'63ac626b-2edb-4dd1-83d9-a8f1fae81e25'
p142
(dp143
g10
S'R'
p144
sg12
S'CLASSROOM'
p145
ssS'22d8565a-ed01-4ef0-9771-1c57ea425b9a'
p146
(dp147
g10
S'R'
p148
sg12
S'MEDIUM ADMINISTRATIVE'
p149
ssS'7f28d9c4-8a56-4391-98da-5ea12f230d8a'
p150
(dp151
g10
S'R'
p152
sg12
S'CANTEEN'
p153
ssS'b458b409-17db-4749-a7d3-da2909dbe70a'
p154
(dp155
g10
S'E'
p156
sg12
S'STAIRS'
p157
ssS'b28432a0-7f0c-4f08-b693-e82be53c6c40'
p158
(dp159
g10
S'E'
p160
sg12
S'STAIRS'
p161
ssS'6bdd6b50-019a-412a-9a29-6bf8a9bbae1c'
p162
(dp163
g10
S'E'
p164
sg12
S'ENTRANCE'
p165
ssS'85be2c41-1beb-4704-a0d2-23d2f49fb062'
p166
(dp167
g10
S'R'
p168
sg12
S'LAB'
p169
ssS'48bded94-6f0c-4690-a6e3-a74787a31849'
p170
(dp171
g10
S'C'
p172
sg12
S'CORRIDOR'
p173
ssS'c9e8f175-4923-4474-801a-f21e1a8ef2e6'
p174
(dp175
g10
S'R'
p176
sg12
S'CLASSROOM'
p177
ssS'f899cbed-fd87-42b2-b1b5-0d3c5f9bc8e1'
p178
(dp179
g10
S'R'
p180
sg12
S'CLASSROOM'
p181
ssS'bcfbdb19-14ee-4b83-8335-2f1cc6cd80ca'
p182
(dp183
g10
S'C'
p184
sg12
S'LOBBY'
p185
ssS'b5e8c764-a4cc-4faf-809b-0a09117f938a'
p186
(dp187
g10
S'R'
p188
sg12
S'CLASSROOM'
p189
ssS'f7399abd-7d60-43b5-993c-5790daace4ca'
p190
(dp191
g10
S'R'
p192
sg12
S'CLASSROOM'
p193
ssS'b4e174bc-1e7b-4f6c-9950-a063eea66aa5'
p194
(dp195
g10
S'R'
p196
sg12
S'CLASSROOM'
p197
ssS'd7f22f79-62f8-45ee-9a87-f5b1de0f865a'
p198
(dp199
g10
S'R'
p200
sg12
S'CLASSROOM'
p201
ssS'acbcc058-1098-4124-b5ee-805decc27d7f'
p202
(dp203
g10
S'R'
p204
sg12
S'CLASSROOM'
p205
ssS'501b190f-3069-4d05-9932-a63056a75403'
p206
(dp207
g10
S'R'
p208
sg12
S'MEDIUM ADMINISTRATIVE'
p209
sssS'graph'
p210
(dp211
sS'edge'
p212
(dp213
g8
(dp214
S'05322d9a-6733-46f7-a5b7-49f07d5410c7'
p215
(dp216
ssg14
(dp217
S'24077621-66d2-4951-9c69-70a2100cda4f'
p218
(dp219
ssg18
(dp220
S'7d83c3e1-909e-4791-b08d-443067d08a17'
p221
(dp222
ssg22
(dp223
S'3340c8d4-3357-4807-b4c9-4a6b0f33b866'
p224
(dp225
ssg26
(dp226
S'05322d9a-6733-46f7-a5b7-49f07d5410c7'
p227
(dp228
ssg30
(dp229
S'b458b409-17db-4749-a7d3-da2909dbe70a'
p230
(dp231
sS'fbe14f08-78d9-4e0f-ac2f-5917fd5cd07b'
p232
(dp233
sS'09ceebe0-8f66-4a2a-89df-ca19915ad57f'
p234
(dp235
sS'f899cbed-fd87-42b2-b1b5-0d3c5f9bc8e1'
p236
(dp237
sS'ddec66b0-e85f-4d65-83d4-c15ddcfbcceb'
p238
(dp239
sS'acbcc058-1098-4124-b5ee-805decc27d7f'
p240
(dp241
sS'aacbacb0-e83d-4e87-82c2-5683d6f4c4a2'
p242
(dp243
sS'7d83c3e1-909e-4791-b08d-443067d08a17'
p244
(dp245
ssg34
(dp246
S'09ceebe0-8f66-4a2a-89df-ca19915ad57f'
p247
(dp248
ssg38
(dp249
S'8aefb01b-64d2-4406-b61a-bc974dde9923'
p250
g239
ssg42
(dp251
S'24077621-66d2-4951-9c69-70a2100cda4f'
p252
(dp253
ssg46
(dp254
S'7d83c3e1-909e-4791-b08d-443067d08a17'
p255
(dp256
ssg50
(dp257
S'3340c8d4-3357-4807-b4c9-4a6b0f33b866'
p258
(dp259
ssg54
(dp260
S'03c53fdd-afb0-460b-9ff7-163ba48d0d53'
p261
(dp262
sS'8aefb01b-64d2-4406-b61a-bc974dde9923'
p263
g245
sS'7f28d9c4-8a56-4391-98da-5ea12f230d8a'
p264
(dp265
sS'12dea67c-dac8-4b82-90b2-04caf0a80b95'
p266
g222
sS'839ff5d0-5e8a-48f8-abe6-c2c6dbed1035'
p267
(dp268
sS'd7717876-14fc-40b9-a97c-30df865b661e'
p269
(dp270
sS'22d8565a-ed01-4ef0-9771-1c57ea425b9a'
p271
(dp272
sS'63ac626b-2edb-4dd1-83d9-a8f1fae81e25'
p273
(dp274
sS'1fcb15f2-ab95-4f13-8711-12ae7d98151a'
p275
(dp276
sS'4f64a376-e601-4700-8846-9f25d94f6e00'
p277
g256
ssg58
(dp278
S'7d83c3e1-909e-4791-b08d-443067d08a17'
p279
g268
ssg62
(dp280
S'7d83c3e1-909e-4791-b08d-443067d08a17'
p281
g262
ssg66
(dp282
S'8aefb01b-64d2-4406-b61a-bc974dde9923'
p283
g243
ssg70
(dp284
S'05322d9a-6733-46f7-a5b7-49f07d5410c7'
p285
(dp286
ssg74
(dp287
S'8aefb01b-64d2-4406-b61a-bc974dde9923'
p288
g235
sS'1530f9bd-4110-4021-b535-4b3aa63873a3'
p289
g248
sS'48bded94-6f0c-4690-a6e3-a74787a31849'
p290
(dp291
ssg78
(dp292
S'48bded94-6f0c-4690-a6e3-a74787a31849'
p293
(dp294
ssg82
(dp295
S'48bded94-6f0c-4690-a6e3-a74787a31849'
p296
(dp297
ssg86
(dp298
S'6a5bb0e2-f5af-4a98-aef9-0a9f2681506b'
p299
g225
sS'2b66c717-93bc-4cbc-85f5-dd3ce712686a'
p300
g259
sS'f7399abd-7d60-43b5-993c-5790daace4ca'
p301
(dp302
sS'b4e174bc-1e7b-4f6c-9950-a063eea66aa5'
p303
(dp304
sS'd7f22f79-62f8-45ee-9a87-f5b1de0f865a'
p305
(dp306
sS'b5e8c764-a4cc-4faf-809b-0a09117f938a'
p307
(dp308
sS'05322d9a-6733-46f7-a5b7-49f07d5410c7'
p309
(dp310
sS'7cf7235d-09ac-467c-bc2f-a3e9a834149c'
p311
(dp312
ssg90
(dp313
S'1fcb15f2-ab95-4f13-8711-12ae7d98151a'
p314
(dp315
ssg94
(dp316
S'24077621-66d2-4951-9c69-70a2100cda4f'
p317
(dp318
sS'bcfbdb19-14ee-4b83-8335-2f1cc6cd80ca'
p319
(dp320
ssg98
(dp321
S'1fcb15f2-ab95-4f13-8711-12ae7d98151a'
p322
(dp323
ssg102
(dp324
S'bcfbdb19-14ee-4b83-8335-2f1cc6cd80ca'
p325
(dp326
ssg106
(dp327
S'8a4211a1-5120-4740-85be-9973a7f4e65f'
p328
g219
sS'3af60765-e391-4e8e-9c56-487efe9b6b68'
p329
(dp330
sS'c228e598-db9c-4cbf-aac4-b875662485a5'
p331
g253
sS'21f1dbea-7572-4316-947b-0cc3e5abfa8f'
p332
(dp333
sS'ecc948a1-903c-4fa2-9082-75d10005fde5'
p334
g318
sS'1fcb15f2-ab95-4f13-8711-12ae7d98151a'
p335
(dp336
sS'05322d9a-6733-46f7-a5b7-49f07d5410c7'
p337
(dp338
sS'501b190f-3069-4d05-9932-a63056a75403'
p339
(dp340
ssg110
(dp341
S'3900f8a2-7dbb-412a-843e-98e10d4156b5'
p342
g216
sS'b28432a0-7f0c-4f08-b693-e82be53c6c40'
p343
(dp344
sS'6bdd6b50-019a-412a-9a29-6bf8a9bbae1c'
p345
(dp346
sS'85be2c41-1beb-4704-a0d2-23d2f49fb062'
p347
(dp348
sS'3340c8d4-3357-4807-b4c9-4a6b0f33b866'
p349
g310
sS'c640b764-0f11-41a5-80b0-f31c69786d53'
p350
g228
sS'24077621-66d2-4951-9c69-70a2100cda4f'
p351
g338
sS'5bef9be0-7dc9-48f9-bf62-0fab44118326'
p352
g286
ssg114
(dp353
S'3340c8d4-3357-4807-b4c9-4a6b0f33b866'
p354
g312
ssg118
(dp355
S'24077621-66d2-4951-9c69-70a2100cda4f'
p356
g330
ssg122
(dp357
S'8aefb01b-64d2-4406-b61a-bc974dde9923'
p358
g233
ssg126
(dp359
S'48bded94-6f0c-4690-a6e3-a74787a31849'
p360
(dp361
ssg130
(dp362
S'7d83c3e1-909e-4791-b08d-443067d08a17'
p363
g270
ssg134
(dp364
S'24077621-66d2-4951-9c69-70a2100cda4f'
p365
g333
ssg138
(dp366
S'c9e8f175-4923-4474-801a-f21e1a8ef2e6'
p367
(dp368
sS'48bded94-6f0c-4690-a6e3-a74787a31849'
p369
(dp370
sS'e4104dda-4851-4b2e-a604-eeb8c69926e2'
p371
g315
sS'f7f25bc4-7cfe-44e9-8b95-193afe04e6f9'
p372
g323
sS'24077621-66d2-4951-9c69-70a2100cda4f'
p373
g336
sS'7d83c3e1-909e-4791-b08d-443067d08a17'
p374
g276
ssg142
(dp375
S'7d83c3e1-909e-4791-b08d-443067d08a17'
p376
g274
ssg146
(dp377
S'7d83c3e1-909e-4791-b08d-443067d08a17'
p378
g272
ssg150
(dp379
S'7d83c3e1-909e-4791-b08d-443067d08a17'
p380
g265
ssg154
(dp381
S'8aefb01b-64d2-4406-b61a-bc974dde9923'
p382
g231
ssg158
(dp383
S'05322d9a-6733-46f7-a5b7-49f07d5410c7'
p384
g344
ssg162
(dp385
S'05322d9a-6733-46f7-a5b7-49f07d5410c7'
p386
g346
ssg166
(dp387
S'05322d9a-6733-46f7-a5b7-49f07d5410c7'
p388
g348
ssg170
(dp389
S'1fcb15f2-ab95-4f13-8711-12ae7d98151a'
p390
g370
sS'60b812d2-60ae-4b49-b0cc-88614c9a0c61'
p391
g361
sS'6e0517da-626b-4f75-aaf9-5762e13b9287'
p392
g294
sS'20998d5a-bae4-4a12-9c15-11a01d041c75'
p393
g297
sS'09ceebe0-8f66-4a2a-89df-ca19915ad57f'
p394
g291
ssg174
(dp395
S'1fcb15f2-ab95-4f13-8711-12ae7d98151a'
p396
g368
ssg178
(dp397
S'8aefb01b-64d2-4406-b61a-bc974dde9923'
p398
g237
ssg182
(dp399
S'f2344760-5093-431c-9b5d-3f2f7c81dbe4'
p400
g326
sS'ecc948a1-903c-4fa2-9082-75d10005fde5'
p401
g320
ssg186
(dp402
S'3340c8d4-3357-4807-b4c9-4a6b0f33b866'
p403
g308
ssg190
(dp404
S'3340c8d4-3357-4807-b4c9-4a6b0f33b866'
p405
g302
ssg194
(dp406
S'3340c8d4-3357-4807-b4c9-4a6b0f33b866'
p407
g304
ssg198
(dp408
S'3340c8d4-3357-4807-b4c9-4a6b0f33b866'
p409
g306
ssg202
(dp410
S'8aefb01b-64d2-4406-b61a-bc974dde9923'
p411
g241
ssg206
(dp412
S'24077621-66d2-4951-9c69-70a2100cda4f'
p413
g340
sssS'adj'
p414
g213
sb.