ccopy_reg
_reconstructor
p0
(cnetworkx.classes.graph
Graph
p1
c__builtin__
object
p2
Ntp3
Rp4
(dp5
S'node'
p6
(dp7
S'843191e4-b766-40f0-bc2d-34ca5087f6b3'
p8
(dp9
S'type'
p10
S'R'
p11
sS'label'
p12
S'CONFERENCE'
p13
ssS'b92318d4-ef50-44be-b964-7d22c390e030'
p14
(dp15
g10
S'R'
p16
sg12
S'CLOSET'
p17
ssS'575ddcde-aaf8-4690-9ad1-ef8f7edfcc46'
p18
(dp19
g10
S'R'
p20
sg12
S'CLASSROOM'
p21
ssS'7122d0d7-e4d2-4c89-9ea8-2aade8f65505'
p22
(dp23
g10
S'C'
p24
sg12
S'WASHROOM'
p25
ssS'd57a772b-7664-4f7a-9bb5-a8d559f28748'
p26
(dp27
g10
S'C'
p28
sg12
S'WASHROOM'
p29
ssS'06ae1e6e-eea9-4031-a7d3-fd0cce18d7ae'
p30
(dp31
g10
S'R'
p32
sg12
S'CLOSET'
p33
ssS'e370f028-a809-4a3e-8129-d2896c139883'
p34
(dp35
g10
S'R'
p36
sg12
S'CLOSET'
p37
ssS'b2427154-d2de-4efc-9831-29c2d88e3a19'
p38
(dp39
g10
S'R'
p40
sg12
S'SMALL ADMINISTRATIVE'
p41
ssS'4fe87c1e-5a08-413b-83a4-31d728f02d73'
p42
(dp43
g10
S'R'
p44
sg12
S'CLOSET'
p45
ssS'9db4e975-4210-4a18-b783-e4eaecba3e52'
p46
(dp47
g10
S'R'
p48
sg12
S'CLOSET'
p49
ssS'9dd9ce3e-42da-4ada-b73c-f750e5020e25'
p50
(dp51
g10
S'C'
p52
sg12
S'WASHROOM'
p53
ssS'42aa0e6c-749b-43af-973d-825246841483'
p54
(dp55
g10
S'C'
p56
sg12
S'WASHROOM'
p57
ssS'c8138a35-61c9-4a90-9627-132b1758fbb5'
p58
(dp59
g10
S'C'
p60
sg12
S'CORRIDOR'
p61
ssS'817fdb31-bbfe-4317-9e1e-46af92091f0d'
p62
(dp63
g10
S'R'
p64
sg12
S'CLASSROOM'
p65
ssS'da4f402a-9c08-4dcd-ad09-f352274041b8'
p66
(dp67
g10
S'C'
p68
sg12
S'CORRIDOR'
p69
ssS'99f5f429-a5ee-4c99-a811-6b4d8dfe92cf'
p70
(dp71
g10
S'C'
p72
sg12
S'LOBBY'
p73
ssS'b6576970-cc10-4082-b10f-a53538c116df'
p74
(dp75
g10
S'R'
p76
sg12
S'CLOSET'
p77
ssS'e607e84c-8ed4-4022-9d63-045331326ec8'
p78
(dp79
g10
S'R'
p80
sg12
S'CLOSET'
p81
ssS'64eaaf8b-c5d9-4cc9-a3cd-3f525f2d2b53'
p82
(dp83
g10
S'R'
p84
sg12
S'CLOSET'
p85
ssS'f804e901-6cc9-4aa9-bf5f-bfbb4a91ba4c'
p86
(dp87
g10
S'R'
p88
sg12
S'SMALL'
p89
ssS'316dbc94-ea93-466a-8d81-57fd05d496f3'
p90
(dp91
g10
S'R'
p92
sg12
S'CLOSET'
p93
ssS'309f5f0e-2037-442f-bf1d-b9dca9abd218'
p94
(dp95
g10
S'R'
p96
sg12
S'CLASSROOM'
p97
ssS'cc4a1545-3930-4d38-bbd6-90d3ef042b4d'
p98
(dp99
g10
S'R'
p100
sg12
S'CLASSROOM'
p101
ssS'648df67e-f7d3-4913-beaa-4d44168037af'
p102
(dp103
g10
S'E'
p104
sg12
S'ENTRANCE'
p105
ssS'ad6df810-3e95-4004-94ba-5dced96765d4'
p106
(dp107
g10
S'R'
p108
sg12
S'CLOSET'
p109
ssS'8b3be36c-2243-4a32-af7d-d3830b973265'
p110
(dp111
g10
S'R'
p112
sg12
S'CLASSROOM'
p113
ssS'eb76c15b-0724-4f1a-8f2b-13480a2fd76d'
p114
(dp115
g10
S'R'
p116
sg12
S'CLOSET'
p117
ssS'd2418a86-cb9d-445c-8345-2c3731180ecd'
p118
(dp119
g10
S'R'
p120
sg12
S'CLOSET'
p121
ssS'25707dbc-e404-4987-b1a6-ea5e18f87109'
p122
(dp123
g10
S'R'
p124
sg12
S'CLASSROOM'
p125
ssS'6c04e49a-f1d9-458d-bfe9-982ba0c1dc24'
p126
(dp127
g10
S'R'
p128
sg12
S'CLASSROOM'
p129
ssS'4cde2281-51a5-47d4-ae66-e780b3f9b7f4'
p130
(dp131
g10
S'R'
p132
sg12
S'CLASSROOM'
p133
sssS'graph'
p134
(dp135
sS'edge'
p136
(dp137
g8
(dp138
S'99f5f429-a5ee-4c99-a811-6b4d8dfe92cf'
p139
(dp140
sS'eb76c15b-0724-4f1a-8f2b-13480a2fd76d'
p141
(dp142
sS'9db4e975-4210-4a18-b783-e4eaecba3e52'
p143
(dp144
ssg14
(dp145
S'309f5f0e-2037-442f-bf1d-b9dca9abd218'
p146
(dp147
sS'c8138a35-61c9-4a90-9627-132b1758fbb5'
p148
(dp149
ssg18
(dp150
S'b6576970-cc10-4082-b10f-a53538c116df'
p151
(dp152
sS'c8138a35-61c9-4a90-9627-132b1758fbb5'
p153
(dp154
ssg22
(dp155
S'c8138a35-61c9-4a90-9627-132b1758fbb5'
p156
(dp157
ssg26
(dp158
S'da4f402a-9c08-4dcd-ad09-f352274041b8'
p159
(dp160
ssg30
(dp161
S'c8138a35-61c9-4a90-9627-132b1758fbb5'
p162
(dp163
sS'6c04e49a-f1d9-458d-bfe9-982ba0c1dc24'
p164
(dp165
ssg34
(dp166
S'da4f402a-9c08-4dcd-ad09-f352274041b8'
p167
(dp168
sS'4cde2281-51a5-47d4-ae66-e780b3f9b7f4'
p169
(dp170
ssg38
(dp171
S'e607e84c-8ed4-4022-9d63-045331326ec8'
p172
(dp173
sS'99f5f429-a5ee-4c99-a811-6b4d8dfe92cf'
p174
(dp175
ssg42
(dp176
S'f804e901-6cc9-4aa9-bf5f-bfbb4a91ba4c'
p177
(dp178
ssg46
(dp179
S'843191e4-b766-40f0-bc2d-34ca5087f6b3'
p180
g144
ssg50
(dp181
S'c8138a35-61c9-4a90-9627-132b1758fbb5'
p182
(dp183
ssg54
(dp184
S'da4f402a-9c08-4dcd-ad09-f352274041b8'
p185
(dp186
ssg58
(dp187
S'99f5f429-a5ee-4c99-a811-6b4d8dfe92cf'
p188
(dp189
sS'cc4a1545-3930-4d38-bbd6-90d3ef042b4d'
p190
(dp191
sS'9dd9ce3e-42da-4ada-b73c-f750e5020e25'
p192
g183
sS'575ddcde-aaf8-4690-9ad1-ef8f7edfcc46'
p193
g154
sS'7122d0d7-e4d2-4c89-9ea8-2aade8f65505'
p194
g157
sS'ad6df810-3e95-4004-94ba-5dced96765d4'
p195
(dp196
sS'b6576970-cc10-4082-b10f-a53538c116df'
p197
(dp198
sS'06ae1e6e-eea9-4031-a7d3-fd0cce18d7ae'
p199
g163
sS'309f5f0e-2037-442f-bf1d-b9dca9abd218'
p200
(dp201
sS'6c04e49a-f1d9-458d-bfe9-982ba0c1dc24'
p202
(dp203
sS'b92318d4-ef50-44be-b964-7d22c390e030'
p204
g149
ssg62
(dp205
S'da4f402a-9c08-4dcd-ad09-f352274041b8'
p206
(dp207
sS'64eaaf8b-c5d9-4cc9-a3cd-3f525f2d2b53'
p208
(dp209
ssg66
(dp210
S'99f5f429-a5ee-4c99-a811-6b4d8dfe92cf'
p211
(dp212
sS'42aa0e6c-749b-43af-973d-825246841483'
p213
g186
sS'd57a772b-7664-4f7a-9bb5-a8d559f28748'
p214
g160
sS'64eaaf8b-c5d9-4cc9-a3cd-3f525f2d2b53'
p215
(dp216
sS'316dbc94-ea93-466a-8d81-57fd05d496f3'
p217
(dp218
sS'8b3be36c-2243-4a32-af7d-d3830b973265'
p219
(dp220
sS'd2418a86-cb9d-445c-8345-2c3731180ecd'
p221
(dp222
sS'4cde2281-51a5-47d4-ae66-e780b3f9b7f4'
p223
(dp224
sS'817fdb31-bbfe-4317-9e1e-46af92091f0d'
p225
g207
sS'e370f028-a809-4a3e-8129-d2896c139883'
p226
g168
sS'25707dbc-e404-4987-b1a6-ea5e18f87109'
p227
(dp228
ssg70
(dp229
S'843191e4-b766-40f0-bc2d-34ca5087f6b3'
p230
g140
sS'b2427154-d2de-4efc-9831-29c2d88e3a19'
p231
g175
sS'da4f402a-9c08-4dcd-ad09-f352274041b8'
p232
g212
sS'648df67e-f7d3-4913-beaa-4d44168037af'
p233
(dp234
sS'f804e901-6cc9-4aa9-bf5f-bfbb4a91ba4c'
p235
(dp236
sS'c8138a35-61c9-4a90-9627-132b1758fbb5'
p237
g189
ssg74
(dp238
S'575ddcde-aaf8-4690-9ad1-ef8f7edfcc46'
p239
g152
sS'c8138a35-61c9-4a90-9627-132b1758fbb5'
p240
g198
ssg78
(dp241
S'b2427154-d2de-4efc-9831-29c2d88e3a19'
p242
g173
ssg82
(dp243
S'da4f402a-9c08-4dcd-ad09-f352274041b8'
p244
g216
sS'817fdb31-bbfe-4317-9e1e-46af92091f0d'
p245
g209
ssg86
(dp246
S'99f5f429-a5ee-4c99-a811-6b4d8dfe92cf'
p247
g236
sS'4fe87c1e-5a08-413b-83a4-31d728f02d73'
p248
g178
ssg90
(dp249
S'da4f402a-9c08-4dcd-ad09-f352274041b8'
p250
g218
sS'8b3be36c-2243-4a32-af7d-d3830b973265'
p251
(dp252
ssg94
(dp253
S'c8138a35-61c9-4a90-9627-132b1758fbb5'
p254
g201
sS'b92318d4-ef50-44be-b964-7d22c390e030'
p255
g147
ssg98
(dp256
S'c8138a35-61c9-4a90-9627-132b1758fbb5'
p257
g191
sS'ad6df810-3e95-4004-94ba-5dced96765d4'
p258
(dp259
ssg102
(dp260
S'99f5f429-a5ee-4c99-a811-6b4d8dfe92cf'
p261
g234
ssg106
(dp262
S'c8138a35-61c9-4a90-9627-132b1758fbb5'
p263
g196
sS'cc4a1545-3930-4d38-bbd6-90d3ef042b4d'
p264
g259
ssg110
(dp265
S'da4f402a-9c08-4dcd-ad09-f352274041b8'
p266
g220
sS'316dbc94-ea93-466a-8d81-57fd05d496f3'
p267
g252
ssg114
(dp268
S'843191e4-b766-40f0-bc2d-34ca5087f6b3'
p269
g142
ssg118
(dp270
S'da4f402a-9c08-4dcd-ad09-f352274041b8'
p271
g222
sS'25707dbc-e404-4987-b1a6-ea5e18f87109'
p272
(dp273
ssg122
(dp274
S'da4f402a-9c08-4dcd-ad09-f352274041b8'
p275
g228
sS'd2418a86-cb9d-445c-8345-2c3731180ecd'
p276
g273
ssg126
(dp277
S'c8138a35-61c9-4a90-9627-132b1758fbb5'
p278
g203
sS'06ae1e6e-eea9-4031-a7d3-fd0cce18d7ae'
p279
g165
ssg130
(dp280
S'da4f402a-9c08-4dcd-ad09-f352274041b8'
p281
g224
sS'e370f028-a809-4a3e-8129-d2896c139883'
p282
g170
sssS'adj'
p283
g137
sb.