ccopy_reg
_reconstructor
p0
(cnetworkx.classes.graph
Graph
p1
c__builtin__
object
p2
Ntp3
Rp4
(dp5
S'node'
p6
(dp7
S'a54a5f98-7ae3-4888-9831-c35550b24d32'
p8
(dp9
S'type'
p10
S'R'
p11
sS'label'
p12
S'CLASSROOM'
p13
ssS'b5499d41-ee7f-4d81-94fc-641c552fe05d'
p14
(dp15
g10
S'R'
p16
sg12
S'CLASSROOM'
p17
ssS'a494a92f-d7f4-4163-a940-6337493e1728'
p18
(dp19
g10
S'C'
p20
sg12
S'CORRIDOR'
p21
ssS'338490db-9f2f-40eb-81a9-2dee46ff33bf'
p22
(dp23
g10
S'R'
p24
sg12
S'CLASSROOM'
p25
ssS'3e4a8a80-5bb3-46c3-a1a9-009a432c6691'
p26
(dp27
g10
S'R'
p28
sg12
S'CLASSROOM'
p29
ssS'2ac263b7-8133-453e-ae63-eab84a712d40'
p30
(dp31
g10
S'R'
p32
sg12
S'CLOSET'
p33
ssS'f1fc13b2-cfb2-445d-af6b-4ed9c6b12909'
p34
(dp35
g10
S'R'
p36
sg12
S'CLASSROOM'
p37
ssS'995b8450-bcc4-41bb-b3a1-9bda022a181a'
p38
(dp39
g10
S'E'
p40
sg12
S'STAIRS'
p41
sssS'graph'
p42
(dp43
sS'edge'
p44
(dp45
g8
(dp46
S'a494a92f-d7f4-4163-a940-6337493e1728'
p47
(dp48
ssg14
(dp49
S'a494a92f-d7f4-4163-a940-6337493e1728'
p50
(dp51
ssg18
(dp52
S'a54a5f98-7ae3-4888-9831-c35550b24d32'
p53
g48
sS'b5499d41-ee7f-4d81-94fc-641c552fe05d'
p54
g51
sS'338490db-9f2f-40eb-81a9-2dee46ff33bf'
p55
(dp56
sS'3e4a8a80-5bb3-46c3-a1a9-009a432c6691'
p57
(dp58
sS'2ac263b7-8133-453e-ae63-eab84a712d40'
p59
(dp60
sS'f1fc13b2-cfb2-445d-af6b-4ed9c6b12909'
p61
(dp62
sS'995b8450-bcc4-41bb-b3a1-9bda022a181a'
p63
(dp64
ssg22
(dp65
S'a494a92f-d7f4-4163-a940-6337493e1728'
p66
g56
ssg26
(dp67
S'a494a92f-d7f4-4163-a940-6337493e1728'
p68
g58
ssg30
(dp69
S'a494a92f-d7f4-4163-a940-6337493e1728'
p70
g60
ssg34
(dp71
S'a494a92f-d7f4-4163-a940-6337493e1728'
p72
g62
ssg38
(dp73
S'a494a92f-d7f4-4163-a940-6337493e1728'
p74
g64
sssS'adj'
p75
g45
sb.