ccopy_reg
_reconstructor
p0
(cnetworkx.classes.graph
Graph
p1
c__builtin__
object
p2
Ntp3
Rp4
(dp5
S'node'
p6
(dp7
S'e5153fb9-6103-402f-8cc2-2a7a9f712bb5'
p8
(dp9
S'type'
p10
S'C'
p11
sS'label'
p12
S'WASHROOM'
p13
ssS'93876a96-b407-4520-82b0-f87e914fcf1a'
p14
(dp15
g10
S'R'
p16
sg12
S'MEDIUM'
p17
ssS'0f4d1295-6dc9-4b87-a6a6-d3514cf05749'
p18
(dp19
g10
S'R'
p20
sg12
S'CLASSROOM'
p21
ssS'c03babcd-919f-4dd6-8b17-129027995305'
p22
(dp23
g10
S'R'
p24
sg12
S'CLASSROOM'
p25
ssS'69e3e063-0a36-450f-8357-8b6dba9a9dc8'
p26
(dp27
g10
S'C'
p28
sg12
S'CORRIDOR'
p29
ssS'b96cac95-c581-44d1-a123-917fc106225d'
p30
(dp31
g10
S'C'
p32
sg12
S'CORRIDOR'
p33
ssS'542d2c7e-e641-4bc7-99ec-fecc252d7478'
p34
(dp35
g10
S'E'
p36
sg12
S'STAIRS'
p37
ssS'd6b18b52-1edf-47a5-a3e7-6521304d6a47'
p38
(dp39
g10
S'R'
p40
sg12
S'CLASSROOM'
p41
ssS'983c5706-de00-4e85-aa3e-69123bf90270'
p42
(dp43
g10
S'C'
p44
sg12
S'LOBBY'
p45
ssS'b963edd6-a20a-41d6-a726-9f83aad628a7'
p46
(dp47
g10
S'R'
p48
sg12
S'MEDIUM SERVICE'
p49
ssS'61a6f1a8-c85f-4f9f-a125-2d271da34670'
p50
(dp51
g10
S'E'
p52
sg12
S'ELEVATOR'
p53
ssS'61bb3746-3119-489c-80c9-01a84aeb74c5'
p54
(dp55
g10
S'C'
p56
sg12
S'WASHROOM'
p57
ssS'53873786-6a9c-45b0-81a4-acc4e9bd6a8e'
p58
(dp59
g10
S'E'
p60
sg12
S'STAIRS'
p61
ssS'0595943b-a98b-4215-bf3b-eab5fbdff336'
p62
(dp63
g10
S'R'
p64
sg12
S'CLOSET'
p65
ssS'feb0147c-7999-4c0f-9a85-130f8e0c55cb'
p66
(dp67
g10
S'R'
p68
sg12
S'MEDIUM'
p69
ssS'b898ffc9-2ad6-4fc5-b3bb-2a2bab293d4a'
p70
(dp71
g10
S'R'
p72
sg12
S'CLASSROOM'
p73
ssS'434a8419-1b4b-44aa-9512-78cd0ca36efc'
p74
(dp75
g10
S'R'
p76
sg12
S'MEDIUM'
p77
sssS'graph'
p78
(dp79
sS'edge'
p80
(dp81
g8
(dp82
S'b96cac95-c581-44d1-a123-917fc106225d'
p83
(dp84
ssg14
(dp85
S'b96cac95-c581-44d1-a123-917fc106225d'
p86
(dp87
ssg18
(dp88
S'b96cac95-c581-44d1-a123-917fc106225d'
p89
(dp90
ssg22
(dp91
S'69e3e063-0a36-450f-8357-8b6dba9a9dc8'
p92
(dp93
ssg26
(dp94
S'c03babcd-919f-4dd6-8b17-129027995305'
p95
g93
sS'd6b18b52-1edf-47a5-a3e7-6521304d6a47'
p96
(dp97
sS'983c5706-de00-4e85-aa3e-69123bf90270'
p98
(dp99
sS'b96cac95-c581-44d1-a123-917fc106225d'
p100
(dp101
sS'feb0147c-7999-4c0f-9a85-130f8e0c55cb'
p102
(dp103
sS'434a8419-1b4b-44aa-9512-78cd0ca36efc'
p104
(dp105
ssg30
(dp106
S'e5153fb9-6103-402f-8cc2-2a7a9f712bb5'
p107
g84
sS'93876a96-b407-4520-82b0-f87e914fcf1a'
p108
g87
sS'0f4d1295-6dc9-4b87-a6a6-d3514cf05749'
p109
g90
sS'69e3e063-0a36-450f-8357-8b6dba9a9dc8'
p110
g101
sS'61bb3746-3119-489c-80c9-01a84aeb74c5'
p111
(dp112
sS'b963edd6-a20a-41d6-a726-9f83aad628a7'
p113
(dp114
sS'53873786-6a9c-45b0-81a4-acc4e9bd6a8e'
p115
(dp116
sS'0595943b-a98b-4215-bf3b-eab5fbdff336'
p117
(dp118
sS'b898ffc9-2ad6-4fc5-b3bb-2a2bab293d4a'
p119
(dp120
ssg34
(dp121
S'983c5706-de00-4e85-aa3e-69123bf90270'
p122
(dp123
ssg38
(dp124
S'69e3e063-0a36-450f-8357-8b6dba9a9dc8'
p125
g97
ssg42
(dp126
S'61a6f1a8-c85f-4f9f-a125-2d271da34670'
p127
(dp128
sS'542d2c7e-e641-4bc7-99ec-fecc252d7478'
p129
g123
sS'69e3e063-0a36-450f-8357-8b6dba9a9dc8'
p130
g99
ssg46
(dp131
S'b96cac95-c581-44d1-a123-917fc106225d'
p132
g114
ssg50
(dp133
S'983c5706-de00-4e85-aa3e-69123bf90270'
p134
g128
ssg54
(dp135
S'b96cac95-c581-44d1-a123-917fc106225d'
p136
g112
ssg58
(dp137
S'b96cac95-c581-44d1-a123-917fc106225d'
p138
g116
ssg62
(dp139
S'b96cac95-c581-44d1-a123-917fc106225d'
p140
g118
ssg66
(dp141
S'69e3e063-0a36-450f-8357-8b6dba9a9dc8'
p142
g103
ssg70
(dp143
S'b96cac95-c581-44d1-a123-917fc106225d'
p144
g120
ssg74
(dp145
S'69e3e063-0a36-450f-8357-8b6dba9a9dc8'
p146
g105
sssS'adj'
p147
g81
sb.