ccopy_reg
_reconstructor
p0
(cnetworkx.classes.graph
Graph
p1
c__builtin__
object
p2
Ntp3
Rp4
(dp5
S'node'
p6
(dp7
S'0e740fe0-f799-4a32-9405-01df9c6e51a5'
p8
(dp9
S'type'
p10
S'R'
p11
sS'label'
p12
S'CLASSROOM'
p13
ssS'2f10dfb2-54cb-484a-a408-62260ef3783f'
p14
(dp15
g10
S'C'
p16
sg12
S'WASHROOM'
p17
ssS'3df4858d-e426-4d68-a378-98354ccea209'
p18
(dp19
g10
S'R'
p20
sg12
S'CLOSET'
p21
ssS'1ed85271-224e-4e5b-b6df-e0bf28794455'
p22
(dp23
g10
S'R'
p24
sg12
S'CLOSET'
p25
ssS'f8a5e2c0-908c-4861-b472-319c4673a3f4'
p26
(dp27
g10
S'E'
p28
sg12
S'STAIRS'
p29
ssS'e96b2e99-40d3-4c32-adbb-60c30bb1ec55'
p30
(dp31
g10
S'C'
p32
sg12
S'CORRIDOR'
p33
ssS'172deeba-80da-4b03-8168-b4d65cd492a0'
p34
(dp35
g10
S'E'
p36
sg12
S'STAIRS'
p37
ssS'81a876d2-278e-42bc-9b44-945cedd3e7ec'
p38
(dp39
g10
S'C'
p40
sg12
S'CORRIDOR'
p41
ssS'e8a5e9ae-c621-47bf-a0c4-11a3605f5cc0'
p42
(dp43
g10
S'R'
p44
sg12
S'SMALL'
p45
ssS'479b56ca-4fb9-4872-a8e1-486bf38f37f2'
p46
(dp47
g10
S'C'
p48
sg12
S'HALL'
p49
ssS'e6303a39-2bce-4b6f-a27b-d0087dbfb25c'
p50
(dp51
g10
S'R'
p52
sg12
S'CLOSET'
p53
ssS'9e0a99f1-8f07-4bc2-bfe5-1165d10bbcc0'
p54
(dp55
g10
S'R'
p56
sg12
S'CONFERENCE'
p57
ssS'abff1ebe-e6fa-4b5d-97e0-8f88a2af2049'
p58
(dp59
g10
S'E'
p60
sg12
S'ENTRANCE'
p61
ssS'434b2435-32c9-4a4f-a9c1-d68edda0ee96'
p62
(dp63
g10
S'R'
p64
sg12
S'CLASSROOM'
p65
ssS'12936bbb-622e-4342-8f57-20dca824f3bb'
p66
(dp67
g10
S'R'
p68
sg12
S'MEDIUM SERVICE'
p69
ssS'b73b8c15-cd42-4634-8b61-70adf3d7c6b4'
p70
(dp71
g10
S'R'
p72
sg12
S'SMALL'
p73
ssS'b73fe77b-7553-4b12-9efb-0f21cadbc549'
p74
(dp75
g10
S'R'
p76
sg12
S'CLASSROOM'
p77
ssS'7d26ea5a-69e2-41a2-b285-b92cd90b7f9f'
p78
(dp79
g10
S'R'
p80
sg12
S'CLOSET'
p81
ssS'eebd2cec-7f39-49e5-9b81-930a481e9fcf'
p82
(dp83
g10
S'R'
p84
sg12
S'BATHROOM'
p85
ssS'ed9fb1eb-df17-40ec-a0f8-f850be2e025f'
p86
(dp87
g10
S'R'
p88
sg12
S'MEDIUM ADMINISTRATIVE'
p89
ssS'ca972094-e9b2-43e2-8851-f35c4cae04f9'
p90
(dp91
g10
S'R'
p92
sg12
S'CLASSROOM'
p93
ssS'af271480-e2ef-487a-86ef-007816e54c56'
p94
(dp95
g10
S'R'
p96
sg12
S'SMALL'
p97
ssS'f360f6d5-867c-4f3c-9e9e-b9e95310c131'
p98
(dp99
g10
S'E'
p100
sg12
S'STAIRS'
p101
ssS'71c418fa-1547-4e8a-96d6-0ae2e580d58a'
p102
(dp103
g10
S'C'
p104
sg12
S'WASHROOM'
p105
ssS'5f30654d-3955-4351-a917-d7720d963d02'
p106
(dp107
g10
S'C'
p108
sg12
S'HALL'
p109
ssS'cbd7e4d7-0841-4808-94f5-7dfe6273ca24'
p110
(dp111
g10
S'R'
p112
sg12
S'BATHROOM'
p113
ssS'b952cb9b-47e1-4101-9d95-c929a9cab637'
p114
(dp115
g10
S'R'
p116
sg12
S'LAB'
p117
ssS'7048de29-4e9b-4ae6-8536-a52a93208dac'
p118
(dp119
g10
S'R'
p120
sg12
S'CLOSET'
p121
ssS'18ac5e7c-56ab-48d9-a376-54e2b7ea35c9'
p122
(dp123
g10
S'R'
p124
sg12
S'CLOSET'
p125
ssS'ed03cf53-a5fe-4799-b346-fb5b26010bfd'
p126
(dp127
g10
S'R'
p128
sg12
S'CLASSROOM'
p129
ssS'7c45028b-9566-4112-bbfc-f5b76f13e046'
p130
(dp131
g10
S'E'
p132
sg12
S'ENTRANCE'
p133
ssS'685aa4ea-fe13-4f8d-a840-ca3778188695'
p134
(dp135
g10
S'C'
p136
sg12
S'LOBBY'
p137
ssS'16ec4153-8b8a-4274-9af1-23002845e835'
p138
(dp139
g10
S'R'
p140
sg12
S'SMALL ADMINISTRATIVE'
p141
ssS'd49a1def-de26-4a2b-9340-bee75156970c'
p142
(dp143
g10
S'R'
p144
sg12
S'CLASSROOM'
p145
ssS'dce568e1-5213-4b30-a24f-1f1f8d9883ae'
p146
(dp147
g10
S'R'
p148
sg12
S'CLASSROOM'
p149
ssS'aef7217f-4f0b-4ffc-99f9-25d3a15a3450'
p150
(dp151
g10
S'E'
p152
sg12
S'STAIRS'
p153
ssS'c130e801-5f8d-4516-b680-51407bf2b98b'
p154
(dp155
g10
S'E'
p156
sg12
S'STAIRS'
p157
ssS'bfeb6869-3c8a-471d-8fee-6c4e51121457'
p158
(dp159
g10
S'R'
p160
sg12
S'CLASSROOM'
p161
ssS'ffb6abde-a73a-4732-a8ac-bce8cdcea2f2'
p162
(dp163
g10
S'R'
p164
sg12
S'CANTEEN'
p165
ssS'b204eb06-9304-4a98-93c5-2cee300f94a3'
p166
(dp167
g10
S'R'
p168
sg12
S'BATHROOM'
p169
ssS'038dd810-d5f3-4112-bb0e-393481131e28'
p170
(dp171
g10
S'C'
p172
sg12
S'CORRIDOR'
p173
ssS'57c0c5a7-353e-4855-b22c-42263e0c332a'
p174
(dp175
g10
S'R'
p176
sg12
S'CLASSROOM'
p177
ssS'feaf1cef-c1f3-47d0-a804-a93ae4c3cb89'
p178
(dp179
g10
S'R'
p180
sg12
S'CLOSET'
p181
ssS'11ddfb63-b9ac-4206-a933-804e67f9e042'
p182
(dp183
g10
S'R'
p184
sg12
S'CLOSET'
p185
ssS'c67cf8f5-cfe3-4e12-be7a-339bd9db1b4d'
p186
(dp187
g10
S'R'
p188
sg12
S'CLASSROOM'
p189
ssS'b582a4d1-96cd-4e4e-b0bf-72da7ecc5c94'
p190
(dp191
g10
S'C'
p192
sg12
S'CORRIDOR'
p193
ssS'7f841fb0-aef4-479e-a253-72f90cdc942f'
p194
(dp195
g10
S'C'
p196
sg12
S'CORRIDOR'
p197
ssS'c20503eb-2d6c-4c5b-bd4b-e90ae9767a8c'
p198
(dp199
g10
S'R'
p200
sg12
S'BATHROOM'
p201
ssS'f4c29f12-0577-4222-b4fa-b2da0ab1c506'
p202
(dp203
g10
S'C'
p204
sg12
S'CORRIDOR'
p205
ssS'06298af4-5dcf-4cbf-8d32-f4526e0fa29c'
p206
(dp207
g10
S'R'
p208
sg12
S'SMALL'
p209
ssS'9750c87b-1b08-4b90-8550-ce5213866000'
p210
(dp211
g10
S'C'
p212
sg12
S'CORRIDOR'
p213
ssS'f88ac4f5-ac12-42da-89df-91068c546762'
p214
(dp215
g10
S'R'
p216
sg12
S'MEDIUM ADMINISTRATIVE'
p217
ssS'443c2d72-4b80-46b8-a57f-6601a83d4c90'
p218
(dp219
g10
S'R'
p220
sg12
S'MEDIUM SERVICE'
p221
ssS'b90ba2db-535d-4d0f-983a-d866b413e285'
p222
(dp223
g10
S'R'
p224
sg12
S'CLOSET'
p225
ssS'2701a402-c59d-4726-bd66-f434bf4d01cd'
p226
(dp227
g10
S'C'
p228
sg12
S'HALL'
p229
ssS'960a8bef-0a6a-43fc-ad3e-0d1db7a3a819'
p230
(dp231
g10
S'C'
p232
sg12
S'LOBBY'
p233
ssS'cd087165-6b32-4573-9a6d-81db19213fd7'
p234
(dp235
g10
S'C'
p236
sg12
S'CORRIDOR'
p237
ssS'1942d7ae-4727-49a4-b414-4d540eaf2df9'
p238
(dp239
g10
S'C'
p240
sg12
S'WASHROOM'
p241
ssS'59c0abdb-c2d8-4077-adc3-3006496fe86f'
p242
(dp243
g10
S'C'
p244
sg12
S'CORRIDOR'
p245
ssS'aa9f53a1-e19c-470c-b47f-a670a1924075'
p246
(dp247
g10
S'E'
p248
sg12
S'ENTRANCE'
p249
ssS'c30c772c-5694-4b33-b1c3-a19ce8ce9e5f'
p250
(dp251
g10
S'R'
p252
sg12
S'BIG SERVICE'
p253
ssS'f3a0b7ff-1919-411f-9cf3-62bd5b05d38c'
p254
(dp255
g10
S'R'
p256
sg12
S'CLASSROOM'
p257
ssS'8cb22f5a-bc40-4f84-b1c4-38a399c65cf6'
p258
(dp259
g10
S'R'
p260
sg12
S'CLASSROOM'
p261
ssS'a3301bca-8949-444b-a5a0-1c03d7864b7d'
p262
(dp263
g10
S'C'
p264
sg12
S'WASHROOM'
p265
ssS'21765126-794f-4edd-b30d-e1c56aca2ab8'
p266
(dp267
g10
S'R'
p268
sg12
S'SMALL'
p269
ssS'1e7e6160-152f-4bd4-9a73-c36e9c2b11cb'
p270
(dp271
g10
S'R'
p272
sg12
S'CLASSROOM'
p273
ssS'2e90fdbe-dfc9-4a07-840f-5ac35c1a4a99'
p274
(dp275
g10
S'C'
p276
sg12
S'HALL'
p277
sssS'graph'
p278
(dp279
sS'edge'
p280
(dp281
g8
(dp282
S'479b56ca-4fb9-4872-a8e1-486bf38f37f2'
p283
(dp284
ssg14
(dp285
S'81a876d2-278e-42bc-9b44-945cedd3e7ec'
p286
(dp287
ssg18
(dp288
S'c30c772c-5694-4b33-b1c3-a19ce8ce9e5f'
p289
(dp290
ssg22
(dp291
S'2e90fdbe-dfc9-4a07-840f-5ac35c1a4a99'
p292
(dp293
ssg26
(dp294
S'7f841fb0-aef4-479e-a253-72f90cdc942f'
p295
(dp296
ssg30
(dp297
S'5f30654d-3955-4351-a917-d7720d963d02'
p298
(dp299
sS'2701a402-c59d-4726-bd66-f434bf4d01cd'
p300
(dp301
ssg34
(dp302
S'685aa4ea-fe13-4f8d-a840-ca3778188695'
p303
(dp304
ssg38
(dp305
S'b582a4d1-96cd-4e4e-b0bf-72da7ecc5c94'
p306
(dp307
sS'2f10dfb2-54cb-484a-a408-62260ef3783f'
p308
g287
sS'1942d7ae-4727-49a4-b414-4d540eaf2df9'
p309
(dp310
sS'eebd2cec-7f39-49e5-9b81-930a481e9fcf'
p311
(dp312
sS'b204eb06-9304-4a98-93c5-2cee300f94a3'
p313
(dp314
ssg42
(dp315
S'038dd810-d5f3-4112-bb0e-393481131e28'
p316
(dp317
ssg46
(dp318
S'0e740fe0-f799-4a32-9405-01df9c6e51a5'
p319
g284
sS'f4c29f12-0577-4222-b4fa-b2da0ab1c506'
p320
(dp321
sS'59c0abdb-c2d8-4077-adc3-3006496fe86f'
p322
(dp323
sS'b582a4d1-96cd-4e4e-b0bf-72da7ecc5c94'
p324
(dp325
sS'ed9fb1eb-df17-40ec-a0f8-f850be2e025f'
p326
(dp327
sS'12936bbb-622e-4342-8f57-20dca824f3bb'
p328
(dp329
ssg50
(dp330
S'2e90fdbe-dfc9-4a07-840f-5ac35c1a4a99'
p331
(dp332
ssg54
(dp333
S'2e90fdbe-dfc9-4a07-840f-5ac35c1a4a99'
p334
(dp335
ssg58
(dp336
S'ffb6abde-a73a-4732-a8ac-bce8cdcea2f2'
p337
(dp338
sS'685aa4ea-fe13-4f8d-a840-ca3778188695'
p339
(dp340
ssg62
(dp341
S'5f30654d-3955-4351-a917-d7720d963d02'
p342
(dp343
ssg66
(dp344
S'479b56ca-4fb9-4872-a8e1-486bf38f37f2'
p345
g329
ssg70
(dp346
S'2701a402-c59d-4726-bd66-f434bf4d01cd'
p347
(dp348
ssg74
(dp349
S'5f30654d-3955-4351-a917-d7720d963d02'
p350
(dp351
ssg78
(dp352
S'038dd810-d5f3-4112-bb0e-393481131e28'
p353
(dp354
ssg82
(dp355
S'81a876d2-278e-42bc-9b44-945cedd3e7ec'
p356
g312
ssg86
(dp357
S'479b56ca-4fb9-4872-a8e1-486bf38f37f2'
p358
g327
sS'f88ac4f5-ac12-42da-89df-91068c546762'
p359
(dp360
ssg90
(dp361
S'7f841fb0-aef4-479e-a253-72f90cdc942f'
p362
(dp363
ssg94
(dp364
S'038dd810-d5f3-4112-bb0e-393481131e28'
p365
(dp366
ssg98
(dp367
S'2e90fdbe-dfc9-4a07-840f-5ac35c1a4a99'
p368
(dp369
ssg102
(dp370
S'cd087165-6b32-4573-9a6d-81db19213fd7'
p371
(dp372
ssg106
(dp373
S'c130e801-5f8d-4516-b680-51407bf2b98b'
p374
(dp375
sS'b73fe77b-7553-4b12-9efb-0f21cadbc549'
p376
g351
sS'e96b2e99-40d3-4c32-adbb-60c30bb1ec55'
p377
g299
sS'434b2435-32c9-4a4f-a9c1-d68edda0ee96'
p378
g343
sS'd49a1def-de26-4a2b-9340-bee75156970c'
p379
(dp380
sS'dce568e1-5213-4b30-a24f-1f1f8d9883ae'
p381
(dp382
ssg110
(dp383
S'cd087165-6b32-4573-9a6d-81db19213fd7'
p384
(dp385
ssg114
(dp386
S'7048de29-4e9b-4ae6-8536-a52a93208dac'
p387
(dp388
sS'9750c87b-1b08-4b90-8550-ce5213866000'
p389
(dp390
ssg118
(dp391
S'b952cb9b-47e1-4101-9d95-c929a9cab637'
p392
g388
ssg122
(dp393
S'7f841fb0-aef4-479e-a253-72f90cdc942f'
p394
(dp395
ssg126
(dp396
S'2701a402-c59d-4726-bd66-f434bf4d01cd'
p397
(dp398
ssg130
(dp399
S'960a8bef-0a6a-43fc-ad3e-0d1db7a3a819'
p400
(dp401
ssg134
(dp402
S'960a8bef-0a6a-43fc-ad3e-0d1db7a3a819'
p403
(dp404
sS'feaf1cef-c1f3-47d0-a804-a93ae4c3cb89'
p405
(dp406
sS'59c0abdb-c2d8-4077-adc3-3006496fe86f'
p407
(dp408
sS'172deeba-80da-4b03-8168-b4d65cd492a0'
p409
g304
sS'abff1ebe-e6fa-4b5d-97e0-8f88a2af2049'
p410
g340
sS'9750c87b-1b08-4b90-8550-ce5213866000'
p411
(dp412
ssg138
(dp413
S'59c0abdb-c2d8-4077-adc3-3006496fe86f'
p414
(dp415
ssg142
(dp416
S'5f30654d-3955-4351-a917-d7720d963d02'
p417
g380
ssg146
(dp418
S'5f30654d-3955-4351-a917-d7720d963d02'
p419
g382
ssg150
(dp420
S'2e90fdbe-dfc9-4a07-840f-5ac35c1a4a99'
p421
(dp422
ssg154
(dp423
S'5f30654d-3955-4351-a917-d7720d963d02'
p424
g375
ssg158
(dp425
S'7f841fb0-aef4-479e-a253-72f90cdc942f'
p426
(dp427
ssg162
(dp428
S'c30c772c-5694-4b33-b1c3-a19ce8ce9e5f'
p429
(dp430
sS'abff1ebe-e6fa-4b5d-97e0-8f88a2af2049'
p431
g338
sS'9750c87b-1b08-4b90-8550-ce5213866000'
p432
(dp433
ssg166
(dp434
S'81a876d2-278e-42bc-9b44-945cedd3e7ec'
p435
g314
ssg170
(dp436
S'af271480-e2ef-487a-86ef-007816e54c56'
p437
g366
sS'7d26ea5a-69e2-41a2-b285-b92cd90b7f9f'
p438
g354
sS'e8a5e9ae-c621-47bf-a0c4-11a3605f5cc0'
p439
g317
sS'2701a402-c59d-4726-bd66-f434bf4d01cd'
p440
(dp441
ssg174
(dp442
S'b582a4d1-96cd-4e4e-b0bf-72da7ecc5c94'
p443
(dp444
ssg178
(dp445
S'685aa4ea-fe13-4f8d-a840-ca3778188695'
p446
g406
ssg182
(dp447
sg186
(dp448
S'7f841fb0-aef4-479e-a253-72f90cdc942f'
p449
(dp450
ssg190
(dp451
S'81a876d2-278e-42bc-9b44-945cedd3e7ec'
p452
g307
sS'f3a0b7ff-1919-411f-9cf3-62bd5b05d38c'
p453
(dp454
sS'57c0c5a7-353e-4855-b22c-42263e0c332a'
p455
g444
sS'7f841fb0-aef4-479e-a253-72f90cdc942f'
p456
(dp457
sS'479b56ca-4fb9-4872-a8e1-486bf38f37f2'
p458
g325
ssg194
(dp459
S'bfeb6869-3c8a-471d-8fee-6c4e51121457'
p460
g427
sS'f8a5e2c0-908c-4861-b472-319c4673a3f4'
p461
g296
sS'c67cf8f5-cfe3-4e12-be7a-339bd9db1b4d'
p462
g450
sS'b582a4d1-96cd-4e4e-b0bf-72da7ecc5c94'
p463
g457
sS'18ac5e7c-56ab-48d9-a376-54e2b7ea35c9'
p464
g395
sS'1e7e6160-152f-4bd4-9a73-c36e9c2b11cb'
p465
(dp466
sS'ca972094-e9b2-43e2-8851-f35c4cae04f9'
p467
g363
ssg198
(dp468
S'cd087165-6b32-4573-9a6d-81db19213fd7'
p469
(dp470
ssg202
(dp471
S'2701a402-c59d-4726-bd66-f434bf4d01cd'
p472
(dp473
sS'479b56ca-4fb9-4872-a8e1-486bf38f37f2'
p474
g321
ssg206
(dp475
S'2701a402-c59d-4726-bd66-f434bf4d01cd'
p476
(dp477
ssg210
(dp478
S'443c2d72-4b80-46b8-a57f-6601a83d4c90'
p479
(dp480
sS'b90ba2db-535d-4d0f-983a-d866b413e285'
p481
(dp482
sS'cd087165-6b32-4573-9a6d-81db19213fd7'
p483
(dp484
sS'ffb6abde-a73a-4732-a8ac-bce8cdcea2f2'
p485
g433
sS'b952cb9b-47e1-4101-9d95-c929a9cab637'
p486
g390
sS'685aa4ea-fe13-4f8d-a840-ca3778188695'
p487
g412
ssg214
(dp488
S'59c0abdb-c2d8-4077-adc3-3006496fe86f'
p489
(dp490
sS'ed9fb1eb-df17-40ec-a0f8-f850be2e025f'
p491
g360
ssg218
(dp492
S'9750c87b-1b08-4b90-8550-ce5213866000'
p493
g480
ssg222
(dp494
S'9750c87b-1b08-4b90-8550-ce5213866000'
p495
g482
ssg226
(dp496
S'f4c29f12-0577-4222-b4fa-b2da0ab1c506'
p497
g473
sS'038dd810-d5f3-4112-bb0e-393481131e28'
p498
g441
sS'e96b2e99-40d3-4c32-adbb-60c30bb1ec55'
p499
g301
sS'ed03cf53-a5fe-4799-b346-fb5b26010bfd'
p500
g398
sS'21765126-794f-4edd-b30d-e1c56aca2ab8'
p501
(dp502
sS'06298af4-5dcf-4cbf-8d32-f4526e0fa29c'
p503
g477
sS'b73b8c15-cd42-4634-8b61-70adf3d7c6b4'
p504
g348
ssg230
(dp505
S'7c45028b-9566-4112-bbfc-f5b76f13e046'
p506
g401
sS'685aa4ea-fe13-4f8d-a840-ca3778188695'
p507
g404
ssg234
(dp508
S'c20503eb-2d6c-4c5b-bd4b-e90ae9767a8c'
p509
g470
sS'2e90fdbe-dfc9-4a07-840f-5ac35c1a4a99'
p510
(dp511
sS'71c418fa-1547-4e8a-96d6-0ae2e580d58a'
p512
g372
sS'cbd7e4d7-0841-4808-94f5-7dfe6273ca24'
p513
g385
sS'a3301bca-8949-444b-a5a0-1c03d7864b7d'
p514
(dp515
sS'9750c87b-1b08-4b90-8550-ce5213866000'
p516
g484
ssg238
(dp517
S'81a876d2-278e-42bc-9b44-945cedd3e7ec'
p518
g310
ssg242
(dp519
S'685aa4ea-fe13-4f8d-a840-ca3778188695'
p520
g408
sS'16ec4153-8b8a-4274-9af1-23002845e835'
p521
g415
sS'479b56ca-4fb9-4872-a8e1-486bf38f37f2'
p522
g323
sS'8cb22f5a-bc40-4f84-b1c4-38a399c65cf6'
p523
(dp524
sS'f88ac4f5-ac12-42da-89df-91068c546762'
p525
g490
ssg246
(dp526
S'2e90fdbe-dfc9-4a07-840f-5ac35c1a4a99'
p527
(dp528
ssg250
(dp529
S'2e90fdbe-dfc9-4a07-840f-5ac35c1a4a99'
p530
(dp531
sS'ffb6abde-a73a-4732-a8ac-bce8cdcea2f2'
p532
g430
sS'3df4858d-e426-4d68-a378-98354ccea209'
p533
g290
ssg254
(dp534
S'b582a4d1-96cd-4e4e-b0bf-72da7ecc5c94'
p535
g454
ssg258
(dp536
S'59c0abdb-c2d8-4077-adc3-3006496fe86f'
p537
g524
ssg262
(dp538
S'cd087165-6b32-4573-9a6d-81db19213fd7'
p539
g515
ssg266
(dp540
S'2701a402-c59d-4726-bd66-f434bf4d01cd'
p541
g502
ssg270
(dp542
S'7f841fb0-aef4-479e-a253-72f90cdc942f'
p543
g466
ssg274
(dp544
S'1ed85271-224e-4e5b-b6df-e0bf28794455'
p545
g293
sS'cd087165-6b32-4573-9a6d-81db19213fd7'
p546
g511
sS'f360f6d5-867c-4f3c-9e9e-b9e95310c131'
p547
g369
sS'aa9f53a1-e19c-470c-b47f-a670a1924075'
p548
g528
sS'c30c772c-5694-4b33-b1c3-a19ce8ce9e5f'
p549
g531
sS'aef7217f-4f0b-4ffc-99f9-25d3a15a3450'
p550
g422
sS'9e0a99f1-8f07-4bc2-bfe5-1165d10bbcc0'
p551
g335
sS'e6303a39-2bce-4b6f-a27b-d0087dbfb25c'
p552
g332
sssS'adj'
p553
g281
sb.