ccopy_reg
_reconstructor
p0
(cnetworkx.classes.graph
Graph
p1
c__builtin__
object
p2
Ntp3
Rp4
(dp5
S'node'
p6
(dp7
S'13733adb-5a15-48af-9d5b-619557685d3f'
p8
(dp9
S'type'
p10
S'R'
p11
sS'label'
p12
S'CLASSROOM'
p13
ssS'e1fbea47-a222-4e9b-9767-2e56cad139cd'
p14
(dp15
g10
S'R'
p16
sg12
S'MEDIUM SERVICE'
p17
ssS'5cb94cf2-b518-47a7-8ad4-59fecc278999'
p18
(dp19
g10
S'R'
p20
sg12
S'CLASSROOM'
p21
ssS'60645257-2a9a-4c06-a81b-34ad745c1561'
p22
(dp23
g10
S'E'
p24
sg12
S'ELEVATOR'
p25
ssS'33201fd6-679d-4d84-8bf3-109b0b909447'
p26
(dp27
g10
S'R'
p28
sg12
S'SMALL ADMINISTRATIVE'
p29
ssS'9bd5f9af-7877-4c76-82fd-cc69e9fccbf0'
p30
(dp31
g10
S'R'
p32
sg12
S'KITCHEN'
p33
ssS'feec3b23-6379-43a5-b288-5cc4cdc55fbe'
p34
(dp35
g10
S'R'
p36
sg12
S'CLASSROOM'
p37
ssS'e2f350e4-6889-4a3a-b1e7-8bfc404240e8'
p38
(dp39
g10
S'R'
p40
sg12
S'CLASSROOM'
p41
ssS'c09453d6-359b-418f-bb2d-1be92e00822c'
p42
(dp43
g10
S'R'
p44
sg12
S'CANTEEN'
p45
ssS'0dfb2711-2cc6-4847-b0bd-be0294cca55a'
p46
(dp47
g10
S'R'
p48
sg12
S'CANTEEN'
p49
ssS'f60984fe-8c39-4da4-af6a-c4166625b187'
p50
(dp51
g10
S'C'
p52
sg12
S'LOBBY'
p53
ssS'ca30f736-5648-4a04-bc82-0d8d04bed09e'
p54
(dp55
g10
S'C'
p56
sg12
S'WASHROOM'
p57
ssS'6d0408c7-de66-438d-b420-86b5e77d0347'
p58
(dp59
g10
S'R'
p60
sg12
S'MEDIUM'
p61
ssS'de862355-7dd5-4b03-ba35-bcb1f6267f37'
p62
(dp63
g10
S'R'
p64
sg12
S'MEDIUM SERVICE'
p65
ssS'ed439aca-a173-46a9-bdb8-892f35b46e21'
p66
(dp67
g10
S'R'
p68
sg12
S'CLASSROOM'
p69
ssS'230e50fd-bc32-4685-a6fa-205738ad3bed'
p70
(dp71
g10
S'R'
p72
sg12
S'CLASSROOM'
p73
ssS'5bbe17cd-5f4b-4409-9fd3-b6c4bef6b112'
p74
(dp75
g10
S'C'
p76
sg12
S'CORRIDOR'
p77
ssS'63be905b-eab2-48d0-a053-80eb9c8a57bc'
p78
(dp79
g10
S'R'
p80
sg12
S'BATHROOM'
p81
ssS'0e8fb87a-5975-4da2-a422-3ed3f78050cd'
p82
(dp83
g10
S'C'
p84
sg12
S'HALL'
p85
ssS'320c6267-7ed2-4e6c-a42b-9fa7f78aa177'
p86
(dp87
g10
S'E'
p88
sg12
S'STAIRS'
p89
ssS'45776077-2b74-4519-b703-00e97d1cb10a'
p90
(dp91
g10
S'C'
p92
sg12
S'CORRIDOR'
p93
ssS'd5c96979-05b9-4669-a149-cecc7f18ca0a'
p94
(dp95
g10
S'R'
p96
sg12
S'BATHROOM'
p97
ssS'a14e2a0e-e7b1-432b-8142-2beed6bd3665'
p98
(dp99
g10
S'C'
p100
sg12
S'CORRIDOR'
p101
ssS'8f116360-1c36-460d-877f-d7f529b4701b'
p102
(dp103
g10
S'R'
p104
sg12
S'MEDIUM ADMINISTRATIVE'
p105
ssS'1396e59e-af7a-4a1b-a2b9-c9fef7c231ec'
p106
(dp107
g10
S'R'
p108
sg12
S'CLASSROOM'
p109
ssS'6ece84f9-a1c6-4f3c-ba71-ee4ad732fe7d'
p110
(dp111
g10
S'C'
p112
sg12
S'WASHROOM'
p113
ssS'8a5be415-5408-47f8-bb80-6152332d175d'
p114
(dp115
g10
S'C'
p116
sg12
S'CORRIDOR'
p117
ssS'85e91348-25fc-4423-82ac-4a6ca90bacbf'
p118
(dp119
g10
S'C'
p120
sg12
S'CORRIDOR'
p121
ssS'c4a3352f-fcdb-495f-b770-cc9bb3977e95'
p122
(dp123
g10
S'R'
p124
sg12
S'MEDIUM'
p125
ssS'3acf0dec-be68-471b-bd76-ed9b857b90f8'
p126
(dp127
g10
S'R'
p128
sg12
S'CLOSET'
p129
ssS'5996ff11-e08c-4cbf-97e7-930e221a0bd9'
p130
(dp131
g10
S'C'
p132
sg12
S'WASHROOM'
p133
ssS'82b2311d-2812-41c3-8d02-20769c78c63b'
p134
(dp135
g10
S'C'
p136
sg12
S'CORRIDOR'
p137
ssS'e38d9e27-d4c6-4342-8ac1-463a48eda3f0'
p138
(dp139
g10
S'E'
p140
sg12
S'STAIRS'
p141
ssS'9f39e38c-b1ad-40ff-b2b4-60fdaff1cbbe'
p142
(dp143
g10
S'E'
p144
sg12
S'STAIRS'
p145
ssS'f4c2ee85-fc6f-4362-bbb7-46b194421e2e'
p146
(dp147
g10
S'R'
p148
sg12
S'CLASSROOM'
p149
ssS'a00fdf1d-9493-4f88-a3e2-0767f3d8e712'
p150
(dp151
g10
S'E'
p152
sg12
S'STAIRS'
p153
ssS'a16cd323-5114-4774-bf23-5c84e6804520'
p154
(dp155
g10
S'R'
p156
sg12
S'SMALL ADMINISTRATIVE'
p157
ssS'1969906b-6cda-4ae7-bd1e-c62e10b67bbb'
p158
(dp159
g10
S'C'
p160
sg12
S'CORRIDOR'
p161
ssS'34020fad-efb8-4a96-badb-938de88e893b'
p162
(dp163
g10
S'R'
p164
sg12
S'KITCHEN'
p165
ssS'88257969-e9e7-4323-a4fd-bc016dc662e1'
p166
(dp167
g10
S'R'
p168
sg12
S'SMALL ADMINISTRATIVE'
p169
ssS'46e755b6-c4ce-4b05-abc2-49ca4560e7b5'
p170
(dp171
g10
S'R'
p172
sg12
S'CLASSROOM'
p173
ssS'f4ba52b8-3f44-4cb3-b137-162ebecb3c7b'
p174
(dp175
g10
S'R'
p176
sg12
S'CLASSROOM'
p177
ssS'3667cb78-6f91-4e2d-8d03-6139a6301aff'
p178
(dp179
g10
S'C'
p180
sg12
S'WASHROOM'
p181
ssS'367fbfd5-6e52-4cd4-b220-5902ace7983a'
p182
(dp183
g10
S'C'
p184
sg12
S'HALL'
p185
ssS'38b28cae-c24f-4f63-b40a-a96323b23812'
p186
(dp187
g10
S'R'
p188
sg12
S'BATHROOM'
p189
sssS'graph'
p190
(dp191
sS'edge'
p192
(dp193
g8
(dp194
S'45776077-2b74-4519-b703-00e97d1cb10a'
p195
(dp196
ssg14
(dp197
S'9bd5f9af-7877-4c76-82fd-cc69e9fccbf0'
p198
(dp199
ssg18
(dp200
S'45776077-2b74-4519-b703-00e97d1cb10a'
p201
(dp202
ssg22
(dp203
S'82b2311d-2812-41c3-8d02-20769c78c63b'
p204
(dp205
ssg26
(dp206
S'88257969-e9e7-4323-a4fd-bc016dc662e1'
p207
(dp208
sS'367fbfd5-6e52-4cd4-b220-5902ace7983a'
p209
(dp210
ssg30
(dp211
S'e1fbea47-a222-4e9b-9767-2e56cad139cd'
p212
g199
sS'0dfb2711-2cc6-4847-b0bd-be0294cca55a'
p213
(dp214
ssg34
(dp215
S'85e91348-25fc-4423-82ac-4a6ca90bacbf'
p216
(dp217
ssg38
(dp218
S'85e91348-25fc-4423-82ac-4a6ca90bacbf'
p219
(dp220
ssg42
(dp221
S'34020fad-efb8-4a96-badb-938de88e893b'
p222
(dp223
sS'367fbfd5-6e52-4cd4-b220-5902ace7983a'
p224
(dp225
ssg46
(dp226
S'9bd5f9af-7877-4c76-82fd-cc69e9fccbf0'
p227
g214
sS'1969906b-6cda-4ae7-bd1e-c62e10b67bbb'
p228
(dp229
sS'5bbe17cd-5f4b-4409-9fd3-b6c4bef6b112'
p230
(dp231
sS'63be905b-eab2-48d0-a053-80eb9c8a57bc'
p232
(dp233
sS'38b28cae-c24f-4f63-b40a-a96323b23812'
p234
(dp235
ssg50
(dp236
S'45776077-2b74-4519-b703-00e97d1cb10a'
p237
(dp238
sS'a00fdf1d-9493-4f88-a3e2-0767f3d8e712'
p239
(dp240
ssg54
(dp241
S'1969906b-6cda-4ae7-bd1e-c62e10b67bbb'
p242
(dp243
ssg58
(dp244
S'c4a3352f-fcdb-495f-b770-cc9bb3977e95'
p245
(dp246
sS'8f116360-1c36-460d-877f-d7f529b4701b'
p247
(dp248
sS'367fbfd5-6e52-4cd4-b220-5902ace7983a'
p249
(dp250
ssg62
(dp251
S'34020fad-efb8-4a96-badb-938de88e893b'
p252
(dp253
ssg66
(dp254
S'a14e2a0e-e7b1-432b-8142-2beed6bd3665'
p255
(dp256
ssg70
(dp257
S'45776077-2b74-4519-b703-00e97d1cb10a'
p258
(dp259
ssg74
(dp260
S'0dfb2711-2cc6-4847-b0bd-be0294cca55a'
p261
g231
sS'1969906b-6cda-4ae7-bd1e-c62e10b67bbb'
p262
(dp263
sS'c4a3352f-fcdb-495f-b770-cc9bb3977e95'
p264
(dp265
sS'9f39e38c-b1ad-40ff-b2b4-60fdaff1cbbe'
p266
(dp267
ssg78
(dp268
S'0dfb2711-2cc6-4847-b0bd-be0294cca55a'
p269
g233
ssg82
(dp270
S'a14e2a0e-e7b1-432b-8142-2beed6bd3665'
p271
(dp272
sS'85e91348-25fc-4423-82ac-4a6ca90bacbf'
p273
(dp274
ssg86
(dp275
S'8a5be415-5408-47f8-bb80-6152332d175d'
p276
(dp277
ssg90
(dp278
S'13733adb-5a15-48af-9d5b-619557685d3f'
p279
g196
sS'5cb94cf2-b518-47a7-8ad4-59fecc278999'
p280
g202
sS'230e50fd-bc32-4685-a6fa-205738ad3bed'
p281
g259
sS'f60984fe-8c39-4da4-af6a-c4166625b187'
p282
g238
sS'46e755b6-c4ce-4b05-abc2-49ca4560e7b5'
p283
(dp284
sS'367fbfd5-6e52-4cd4-b220-5902ace7983a'
p285
(dp286
ssg94
(dp287
S'1969906b-6cda-4ae7-bd1e-c62e10b67bbb'
p288
(dp289
ssg98
(dp290
S'f4c2ee85-fc6f-4362-bbb7-46b194421e2e'
p291
(dp292
sS'ed439aca-a173-46a9-bdb8-892f35b46e21'
p293
g256
sS'0e8fb87a-5975-4da2-a422-3ed3f78050cd'
p294
g272
sS'1396e59e-af7a-4a1b-a2b9-c9fef7c231ec'
p295
(dp296
ssg102
(dp297
S'6d0408c7-de66-438d-b420-86b5e77d0347'
p298
g248
sS'367fbfd5-6e52-4cd4-b220-5902ace7983a'
p299
(dp300
ssg106
(dp301
S'a14e2a0e-e7b1-432b-8142-2beed6bd3665'
p302
g296
ssg110
(dp303
S'1969906b-6cda-4ae7-bd1e-c62e10b67bbb'
p304
(dp305
ssg114
(dp306
S'85e91348-25fc-4423-82ac-4a6ca90bacbf'
p307
(dp308
sS'3acf0dec-be68-471b-bd76-ed9b857b90f8'
p309
(dp310
sS'5996ff11-e08c-4cbf-97e7-930e221a0bd9'
p311
(dp312
sS'320c6267-7ed2-4e6c-a42b-9fa7f78aa177'
p313
g277
sS'3667cb78-6f91-4e2d-8d03-6139a6301aff'
p314
(dp315
sS'367fbfd5-6e52-4cd4-b220-5902ace7983a'
p316
(dp317
ssg118
(dp318
S'8a5be415-5408-47f8-bb80-6152332d175d'
p319
g308
sS'0e8fb87a-5975-4da2-a422-3ed3f78050cd'
p320
g274
sS'f4ba52b8-3f44-4cb3-b137-162ebecb3c7b'
p321
(dp322
sS'e2f350e4-6889-4a3a-b1e7-8bfc404240e8'
p323
g220
sS'82b2311d-2812-41c3-8d02-20769c78c63b'
p324
(dp325
sS'feec3b23-6379-43a5-b288-5cc4cdc55fbe'
p326
g217
ssg122
(dp327
S'6d0408c7-de66-438d-b420-86b5e77d0347'
p328
g246
sS'5bbe17cd-5f4b-4409-9fd3-b6c4bef6b112'
p329
g265
ssg126
(dp330
S'8a5be415-5408-47f8-bb80-6152332d175d'
p331
g310
ssg130
(dp332
S'8a5be415-5408-47f8-bb80-6152332d175d'
p333
g312
ssg134
(dp334
S'e38d9e27-d4c6-4342-8ac1-463a48eda3f0'
p335
(dp336
sS'85e91348-25fc-4423-82ac-4a6ca90bacbf'
p337
g325
sS'60645257-2a9a-4c06-a81b-34ad745c1561'
p338
g205
ssg138
(dp339
S'82b2311d-2812-41c3-8d02-20769c78c63b'
p340
g336
ssg142
(dp341
S'5bbe17cd-5f4b-4409-9fd3-b6c4bef6b112'
p342
g267
ssg146
(dp343
S'a14e2a0e-e7b1-432b-8142-2beed6bd3665'
p344
g292
ssg150
(dp345
S'f60984fe-8c39-4da4-af6a-c4166625b187'
p346
g240
ssg154
(dp347
S'367fbfd5-6e52-4cd4-b220-5902ace7983a'
p348
(dp349
ssg158
(dp350
S'd5c96979-05b9-4669-a149-cecc7f18ca0a'
p351
g289
sS'0dfb2711-2cc6-4847-b0bd-be0294cca55a'
p352
g229
sS'6ece84f9-a1c6-4f3c-ba71-ee4ad732fe7d'
p353
g305
sS'ca30f736-5648-4a04-bc82-0d8d04bed09e'
p354
g243
sS'5bbe17cd-5f4b-4409-9fd3-b6c4bef6b112'
p355
g263
ssg162
(dp356
S'c09453d6-359b-418f-bb2d-1be92e00822c'
p357
g223
sS'de862355-7dd5-4b03-ba35-bcb1f6267f37'
p358
g253
ssg166
(dp359
S'367fbfd5-6e52-4cd4-b220-5902ace7983a'
p360
(dp361
sS'33201fd6-679d-4d84-8bf3-109b0b909447'
p362
g208
ssg170
(dp363
S'45776077-2b74-4519-b703-00e97d1cb10a'
p364
g284
ssg174
(dp365
S'85e91348-25fc-4423-82ac-4a6ca90bacbf'
p366
g322
ssg178
(dp367
S'8a5be415-5408-47f8-bb80-6152332d175d'
p368
g315
ssg182
(dp369
S'6d0408c7-de66-438d-b420-86b5e77d0347'
p370
g250
sS'8a5be415-5408-47f8-bb80-6152332d175d'
p371
g317
sS'33201fd6-679d-4d84-8bf3-109b0b909447'
p372
g210
sS'88257969-e9e7-4323-a4fd-bc016dc662e1'
p373
g361
sS'a16cd323-5114-4774-bf23-5c84e6804520'
p374
g349
sS'c09453d6-359b-418f-bb2d-1be92e00822c'
p375
g225
sS'45776077-2b74-4519-b703-00e97d1cb10a'
p376
g286
sS'8f116360-1c36-460d-877f-d7f529b4701b'
p377
g300
ssg186
(dp378
S'0dfb2711-2cc6-4847-b0bd-be0294cca55a'
p379
g235
sssS'adj'
p380
g193
sb.