ccopy_reg
_reconstructor
p0
(cnetworkx.classes.graph
Graph
p1
c__builtin__
object
p2
Ntp3
Rp4
(dp5
S'node'
p6
(dp7
S'363f8f9b-a614-4d0e-82a0-a017f24d99c2'
p8
(dp9
S'type'
p10
S'R'
p11
sS'label'
p12
S'MEDIUM ADMINISTRATIVE'
p13
ssS'2a821a6f-6733-46a6-8502-50b2626927cc'
p14
(dp15
g10
S'E'
p16
sg12
S'STAIRS'
p17
ssS'd999c00c-3194-4d88-b925-eaf36f4eb3c3'
p18
(dp19
g10
S'R'
p20
sg12
S'CLOSET'
p21
ssS'b9814877-acff-49ba-adb1-0dd2507388aa'
p22
(dp23
g10
S'C'
p24
sg12
S'CORRIDOR'
p25
ssS'b19c8463-9b77-49d4-a8da-c3922152cb42'
p26
(dp27
g10
S'C'
p28
sg12
S'LOBBY'
p29
ssS'c62bdabc-cfc4-41b8-9ed2-d3193e54ac51'
p30
(dp31
g10
S'C'
p32
sg12
S'WASHROOM'
p33
ssS'afe978cd-9745-43df-b6b7-0c0304db90d8'
p34
(dp35
g10
S'R'
p36
sg12
S'CLOSET'
p37
ssS'037df66b-6424-4e27-8f26-11d7975a8ac7'
p38
(dp39
g10
S'C'
p40
sg12
S'CORRIDOR'
p41
ssS'1bb2742f-668b-4f8c-8ed6-22d7c3349e87'
p42
(dp43
g10
S'R'
p44
sg12
S'BATHROOM'
p45
ssS'f666fdc3-9979-4b58-88a3-467679799d13'
p46
(dp47
g10
S'R'
p48
sg12
S'MEDIUM SERVICE'
p49
ssS'c740821a-6c23-4e1e-90b1-c61c4e31221c'
p50
(dp51
g10
S'R'
p52
sg12
S'MEDIUM SERVICE'
p53
ssS'8be0a058-86ba-4121-bece-44e41520d819'
p54
(dp55
g10
S'C'
p56
sg12
S'CORRIDOR'
p57
ssS'9132b905-0089-4a2d-97b0-a42de5ec97d7'
p58
(dp59
g10
S'R'
p60
sg12
S'MEDIUM SERVICE'
p61
ssS'71923daf-d4f7-4cae-bfe1-ce393aa8179b'
p62
(dp63
g10
S'R'
p64
sg12
S'CANTEEN'
p65
ssS'96792511-ae0b-425e-8121-59d06f4f2c20'
p66
(dp67
g10
S'C'
p68
sg12
S'WASHROOM'
p69
ssS'e543f4ab-2ee2-42d5-ade8-7fd8ddfa33f2'
p70
(dp71
g10
S'R'
p72
sg12
S'MEDIUM'
p73
ssS'00940169-0ca7-438e-b524-17d1b08cf76f'
p74
(dp75
g10
S'R'
p76
sg12
S'CLOSET'
p77
ssS'abecb886-b27f-4c1b-b206-00f880d42bf1'
p78
(dp79
g10
S'C'
p80
sg12
S'HALL'
p81
ssS'3bd43fe8-64ed-4b3e-8b20-bbe73cb13496'
p82
(dp83
g10
S'E'
p84
sg12
S'ENTRANCE'
p85
ssS'dcdf1285-2618-46c6-ad02-1122a23d27cd'
p86
(dp87
g10
S'C'
p88
sg12
S'WASHROOM'
p89
ssS'f4bb3515-67a6-4555-abec-20ee81f4d22b'
p90
(dp91
g10
S'R'
p92
sg12
S'BIG SERVICE'
p93
ssS'695ec3b6-eb89-414a-9f82-d00fd31875ce'
p94
(dp95
g10
S'R'
p96
sg12
S'MEDIUM ADMINISTRATIVE'
p97
ssS'2e691c05-5a09-43e5-addc-aa3966a4c5b3'
p98
(dp99
g10
S'C'
p100
sg12
S'LOBBY'
p101
ssS'05a91d1f-9b81-47f4-8863-e91232b09711'
p102
(dp103
g10
S'E'
p104
sg12
S'ENTRANCE'
p105
ssS'abc0a78c-892e-431a-85a7-70d489ea754e'
p106
(dp107
g10
S'C'
p108
sg12
S'CORRIDOR'
p109
ssS'11aa0e19-eb8b-4a05-8fd1-8be374c17c72'
p110
(dp111
g10
S'R'
p112
sg12
S'CLASSROOM'
p113
ssS'e65ee320-a9d1-498d-be38-cac8390531a3'
p114
(dp115
g10
S'R'
p116
sg12
S'CLASSROOM'
p117
ssS'27e8a920-3eea-40c6-a09c-39d7d5caf6bf'
p118
(dp119
g10
S'R'
p120
sg12
S'CLOSET'
p121
ssS'd4486030-5075-4647-b3f9-d17bb3fa66dc'
p122
(dp123
g10
S'R'
p124
sg12
S'KITCHEN'
p125
ssS'b5063e2a-afbf-41b9-bf6e-25cb1a3426a5'
p126
(dp127
g10
S'C'
p128
sg12
S'CORRIDOR'
p129
ssS'0832c052-652a-4227-8052-3d5b3c912cbd'
p130
(dp131
g10
S'E'
p132
sg12
S'ENTRANCE'
p133
ssS'bba054e1-2e3f-44d2-a1bc-957404d26ee5'
p134
(dp135
g10
S'C'
p136
sg12
S'CORRIDOR'
p137
ssS'851b835c-5f1e-43b2-bab2-9937d8744f5b'
p138
(dp139
g10
S'C'
p140
sg12
S'CORRIDOR'
p141
ssS'0a949971-1ee0-4584-b3c9-599e60c71cef'
p142
(dp143
g10
S'C'
p144
sg12
S'WASHROOM'
p145
ssS'e96b50d1-e36f-450f-be43-df07d404723e'
p146
(dp147
g10
S'C'
p148
sg12
S'CORRIDOR'
p149
ssS'c20ae5c1-2eeb-4054-baa9-552b62e6a68d'
p150
(dp151
g10
S'C'
p152
sg12
S'LOBBY'
p153
ssS'548750de-6c2f-4d84-81a3-8ecae49d28d0'
p154
(dp155
g10
S'R'
p156
sg12
S'MEDIUM SERVICE'
p157
ssS'5f3fd558-4f1e-49f0-a11c-af1c31001225'
p158
(dp159
g10
S'R'
p160
sg12
S'MEDIUM SERVICE'
p161
ssS'9abe2384-e1a8-4a2d-ac9c-b3546a41bb16'
p162
(dp163
g10
S'R'
p164
sg12
S'KITCHEN'
p165
ssS'9558e3d2-a58a-4dd5-8c62-edde8100140e'
p166
(dp167
g10
S'R'
p168
sg12
S'MEDIUM ADMINISTRATIVE'
p169
ssS'd8807627-388f-4224-b0a7-c00c45d54d6e'
p170
(dp171
g10
S'R'
p172
sg12
S'MEDIUM'
p173
ssS'd6c7b5c1-3e36-4823-8eaf-1402e4bfa068'
p174
(dp175
g10
S'R'
p176
sg12
S'CLOSET'
p177
ssS'f2779d9f-bc56-411c-81bb-15a076503866'
p178
(dp179
g10
S'R'
p180
sg12
S'MEDIUM SERVICE'
p181
ssS'50ef71b2-62ff-4b20-af3f-65afa0b2aa33'
p182
(dp183
g10
S'C'
p184
sg12
S'CORRIDOR'
p185
ssS'fc6d736b-708f-4657-a8c9-fb5a48c2bd24'
p186
(dp187
g10
S'C'
p188
sg12
S'CORRIDOR'
p189
ssS'bbb912b2-5f8d-4be0-b4be-bb08bdc56b5c'
p190
(dp191
g10
S'E'
p192
sg12
S'STAIRS'
p193
ssS'152c70b8-5f2f-4c42-b841-ab82ab0106ea'
p194
(dp195
g10
S'E'
p196
sg12
S'ELEVATOR'
p197
ssS'c80788f2-0999-4dc5-b81d-bca38d5eb25d'
p198
(dp199
g10
S'R'
p200
sg12
S'CLASSROOM'
p201
ssS'3ed22a62-6f49-47f8-9b20-6d6b81d28341'
p202
(dp203
g10
S'C'
p204
sg12
S'HALL'
p205
ssS'a189bd02-7045-4fe4-8e42-9acc9d6f6b4d'
p206
(dp207
g10
S'C'
p208
sg12
S'CORRIDOR'
p209
ssS'7b2a58c7-bc91-4748-ab84-89ed9b0abece'
p210
(dp211
g10
S'C'
p212
sg12
S'CORRIDOR'
p213
ssS'5253d9d6-84e1-4cc2-b07a-309cdfdb229c'
p214
(dp215
g10
S'C'
p216
sg12
S'WASHROOM'
p217
ssS'7653e8ed-feef-46df-83fc-783364897dac'
p218
(dp219
g10
S'R'
p220
sg12
S'MEDIUM SERVICE'
p221
ssS'345d08ca-3db3-40fe-bd95-6816993c7552'
p222
(dp223
g10
S'R'
p224
sg12
S'SMALL ADMINISTRATIVE'
p225
ssS'c8cd7c18-cb7f-4d57-82fc-d72d76453efe'
p226
(dp227
g10
S'R'
p228
sg12
S'BIG SERVICE'
p229
ssS'c6990b43-8044-4ff0-8ad7-7acdff770606'
p230
(dp231
g10
S'R'
p232
sg12
S'LAB'
p233
ssS'062c009b-8e96-4b8b-9bf3-538768f9b21a'
p234
(dp235
g10
S'E'
p236
sg12
S'ENTRANCE'
p237
ssS'd06f2433-367c-4ec0-b235-6bde1042d42f'
p238
(dp239
g10
S'R'
p240
sg12
S'MEDIUM'
p241
ssS'8a93da5b-6c4c-43c8-9cd5-cb0eacdbd9e9'
p242
(dp243
g10
S'E'
p244
sg12
S'ENTRANCE'
p245
ssS'0ff7f0cf-f64d-4b7a-9bc1-47cf2890c1a0'
p246
(dp247
g10
S'R'
p248
sg12
S'BIG SERVICE'
p249
ssS'c84934a0-3b9e-41ec-a195-f4e18d291f35'
p250
(dp251
g10
S'R'
p252
sg12
S'LAB'
p253
ssS'0ec69e9f-aea0-4800-a8bd-60834b7833bc'
p254
(dp255
g10
S'C'
p256
sg12
S'CORRIDOR'
p257
ssS'd9bbeaff-54c3-4288-9e77-caf0feefef75'
p258
(dp259
g10
S'R'
p260
sg12
S'CLASSROOM'
p261
ssS'3fc0e316-459b-4948-a7c7-961afb0783ae'
p262
(dp263
g10
S'R'
p264
sg12
S'MEDIUM'
p265
ssS'd42f00a7-5134-4f87-b5ac-a80996dc0f66'
p266
(dp267
g10
S'R'
p268
sg12
S'CLASSROOM'
p269
ssS'61b83bc3-68fb-41db-b5f8-8b1fdf6862f3'
p270
(dp271
g10
S'R'
p272
sg12
S'MEDIUM'
p273
ssS'e1cdaf2d-9777-4ff0-9ccb-93b99ec1bcfe'
p274
(dp275
g10
S'R'
p276
sg12
S'MEDIUM ADMINISTRATIVE'
p277
ssS'2b3395e8-8151-445a-b043-96c4b86d1194'
p278
(dp279
g10
S'R'
p280
sg12
S'CONFERENCE'
p281
ssS'd4e825e1-f754-4363-8a07-162692d5d9c2'
p282
(dp283
g10
S'C'
p284
sg12
S'LOBBY'
p285
ssS'e5035606-1fba-4a30-8f1a-172f6b489794'
p286
(dp287
g10
S'R'
p288
sg12
S'MEDIUM SERVICE'
p289
sssS'graph'
p290
(dp291
sS'edge'
p292
(dp293
g8
(dp294
S'bba054e1-2e3f-44d2-a1bc-957404d26ee5'
p295
(dp296
sS'345d08ca-3db3-40fe-bd95-6816993c7552'
p297
(dp298
ssg14
(dp299
S'abecb886-b27f-4c1b-b206-00f880d42bf1'
p300
(dp301
ssg18
(dp302
S'b9814877-acff-49ba-adb1-0dd2507388aa'
p303
(dp304
ssg22
(dp305
S'8be0a058-86ba-4121-bece-44e41520d819'
p306
(dp307
sS'dcdf1285-2618-46c6-ad02-1122a23d27cd'
p308
(dp309
sS'd999c00c-3194-4d88-b925-eaf36f4eb3c3'
p310
g304
sS'abc0a78c-892e-431a-85a7-70d489ea754e'
p311
(dp312
sS'5253d9d6-84e1-4cc2-b07a-309cdfdb229c'
p313
(dp314
sS'1bb2742f-668b-4f8c-8ed6-22d7c3349e87'
p315
(dp316
ssg26
(dp317
S'8be0a058-86ba-4121-bece-44e41520d819'
p318
(dp319
sS'05a91d1f-9b81-47f4-8863-e91232b09711'
p320
(dp321
sS'61b83bc3-68fb-41db-b5f8-8b1fdf6862f3'
p322
(dp323
ssg30
(dp324
S'e96b50d1-e36f-450f-be43-df07d404723e'
p325
(dp326
ssg34
(dp327
S'fc6d736b-708f-4657-a8c9-fb5a48c2bd24'
p328
(dp329
ssg38
(dp330
S'2e691c05-5a09-43e5-addc-aa3966a4c5b3'
p331
(dp332
sS'0ec69e9f-aea0-4800-a8bd-60834b7833bc'
p333
(dp334
sS'50ef71b2-62ff-4b20-af3f-65afa0b2aa33'
p335
(dp336
sS'abecb886-b27f-4c1b-b206-00f880d42bf1'
p337
(dp338
ssg42
(dp339
S'b9814877-acff-49ba-adb1-0dd2507388aa'
p340
g316
ssg46
(dp341
S'd9bbeaff-54c3-4288-9e77-caf0feefef75'
p342
(dp343
ssg50
(dp344
S'0ff7f0cf-f64d-4b7a-9bc1-47cf2890c1a0'
p345
(dp346
ssg54
(dp347
S'b19c8463-9b77-49d4-a8da-c3922152cb42'
p348
g319
sS'152c70b8-5f2f-4c42-b841-ab82ab0106ea'
p349
(dp350
sS'2b3395e8-8151-445a-b043-96c4b86d1194'
p351
(dp352
sS'b9814877-acff-49ba-adb1-0dd2507388aa'
p353
g307
sS'abecb886-b27f-4c1b-b206-00f880d42bf1'
p354
(dp355
ssg58
(dp356
S'c84934a0-3b9e-41ec-a195-f4e18d291f35'
p357
(dp358
ssg62
(dp359
S'2b3395e8-8151-445a-b043-96c4b86d1194'
p360
(dp361
sS'abc0a78c-892e-431a-85a7-70d489ea754e'
p362
(dp363
ssg66
(dp364
S'0ff7f0cf-f64d-4b7a-9bc1-47cf2890c1a0'
p365
(dp366
ssg70
(dp367
S'3ed22a62-6f49-47f8-9b20-6d6b81d28341'
p368
(dp369
sS'c6990b43-8044-4ff0-8ad7-7acdff770606'
p370
(dp371
ssg74
(dp372
S'fc6d736b-708f-4657-a8c9-fb5a48c2bd24'
p373
(dp374
ssg78
(dp375
S'c20ae5c1-2eeb-4054-baa9-552b62e6a68d'
p376
(dp377
sS'8be0a058-86ba-4121-bece-44e41520d819'
p378
g355
sS'2a821a6f-6733-46a6-8502-50b2626927cc'
p379
g301
sS'037df66b-6424-4e27-8f26-11d7975a8ac7'
p380
g338
sS'fc6d736b-708f-4657-a8c9-fb5a48c2bd24'
p381
(dp382
ssg82
(dp383
S'b5063e2a-afbf-41b9-bf6e-25cb1a3426a5'
p384
(dp385
sS'd4e825e1-f754-4363-8a07-162692d5d9c2'
p386
(dp387
ssg86
(dp388
S'b9814877-acff-49ba-adb1-0dd2507388aa'
p389
g309
ssg90
(dp390
S'0ec69e9f-aea0-4800-a8bd-60834b7833bc'
p391
(dp392
ssg94
(dp393
S'bba054e1-2e3f-44d2-a1bc-957404d26ee5'
p394
(dp395
ssg98
(dp396
S'037df66b-6424-4e27-8f26-11d7975a8ac7'
p397
g332
sS'8a93da5b-6c4c-43c8-9cd5-cb0eacdbd9e9'
p398
(dp399
sS'f2779d9f-bc56-411c-81bb-15a076503866'
p400
(dp401
ssg102
(dp402
S'b19c8463-9b77-49d4-a8da-c3922152cb42'
p403
g321
ssg106
(dp404
S'7b2a58c7-bc91-4748-ab84-89ed9b0abece'
p405
(dp406
sS'71923daf-d4f7-4cae-bfe1-ce393aa8179b'
p407
g363
sS'0ec69e9f-aea0-4800-a8bd-60834b7833bc'
p408
(dp409
sS'b9814877-acff-49ba-adb1-0dd2507388aa'
p410
g312
ssg110
(dp411
S'50ef71b2-62ff-4b20-af3f-65afa0b2aa33'
p412
(dp413
ssg114
(dp414
S'a189bd02-7045-4fe4-8e42-9acc9d6f6b4d'
p415
(dp416
sS'851b835c-5f1e-43b2-bab2-9937d8744f5b'
p417
(dp418
ssg118
(dp419
S'd6c7b5c1-3e36-4823-8eaf-1402e4bfa068'
p420
(dp421
sS'e96b50d1-e36f-450f-be43-df07d404723e'
p422
(dp423
sS'7653e8ed-feef-46df-83fc-783364897dac'
p424
(dp425
ssg122
(dp426
S'7b2a58c7-bc91-4748-ab84-89ed9b0abece'
p427
(dp428
ssg126
(dp429
S'3bd43fe8-64ed-4b3e-8b20-bbe73cb13496'
p430
g385
sS'9abe2384-e1a8-4a2d-ac9c-b3546a41bb16'
p431
(dp432
sS'e5035606-1fba-4a30-8f1a-172f6b489794'
p433
(dp434
ssg130
(dp435
S'c20ae5c1-2eeb-4054-baa9-552b62e6a68d'
p436
(dp437
ssg134
(dp438
S'363f8f9b-a614-4d0e-82a0-a017f24d99c2'
p439
g296
sS'695ec3b6-eb89-414a-9f82-d00fd31875ce'
p440
g395
sS'9558e3d2-a58a-4dd5-8c62-edde8100140e'
p441
(dp442
sS'd42f00a7-5134-4f87-b5ac-a80996dc0f66'
p443
(dp444
sS'e1cdaf2d-9777-4ff0-9ccb-93b99ec1bcfe'
p445
(dp446
sS'e96b50d1-e36f-450f-be43-df07d404723e'
p447
(dp448
ssg138
(dp449
S'd8807627-388f-4224-b0a7-c00c45d54d6e'
p450
(dp451
sS'e65ee320-a9d1-498d-be38-cac8390531a3'
p452
g418
sS'50ef71b2-62ff-4b20-af3f-65afa0b2aa33'
p453
(dp454
ssg142
(dp455
S'c8cd7c18-cb7f-4d57-82fc-d72d76453efe'
p456
(dp457
ssg146
(dp458
S'c62bdabc-cfc4-41b8-9ed2-d3193e54ac51'
p459
g326
sS'bba054e1-2e3f-44d2-a1bc-957404d26ee5'
p460
g448
sS'27e8a920-3eea-40c6-a09c-39d7d5caf6bf'
p461
g423
sS'0ec69e9f-aea0-4800-a8bd-60834b7833bc'
p462
(dp463
sS'3fc0e316-459b-4948-a7c7-961afb0783ae'
p464
(dp465
sS'a189bd02-7045-4fe4-8e42-9acc9d6f6b4d'
p466
(dp467
sS'7653e8ed-feef-46df-83fc-783364897dac'
p468
(dp469
ssg150
(dp470
S'0832c052-652a-4227-8052-3d5b3c912cbd'
p471
g437
sS'abecb886-b27f-4c1b-b206-00f880d42bf1'
p472
g377
ssg154
(dp473
S'7b2a58c7-bc91-4748-ab84-89ed9b0abece'
p474
(dp475
ssg158
(dp476
S'c8cd7c18-cb7f-4d57-82fc-d72d76453efe'
p477
(dp478
ssg162
(dp479
S'7b2a58c7-bc91-4748-ab84-89ed9b0abece'
p480
(dp481
sS'b5063e2a-afbf-41b9-bf6e-25cb1a3426a5'
p482
g432
ssg166
(dp483
S'bba054e1-2e3f-44d2-a1bc-957404d26ee5'
p484
g442
ssg170
(dp485
S'851b835c-5f1e-43b2-bab2-9937d8744f5b'
p486
g451
ssg174
(dp487
S'27e8a920-3eea-40c6-a09c-39d7d5caf6bf'
p488
g421
ssg178
(dp489
S'2e691c05-5a09-43e5-addc-aa3966a4c5b3'
p490
g401
ssg182
(dp491
S'c84934a0-3b9e-41ec-a195-f4e18d291f35'
p492
(dp493
sS'd9bbeaff-54c3-4288-9e77-caf0feefef75'
p494
(dp495
sS'037df66b-6424-4e27-8f26-11d7975a8ac7'
p496
g336
sS'3ed22a62-6f49-47f8-9b20-6d6b81d28341'
p497
(dp498
sS'851b835c-5f1e-43b2-bab2-9937d8744f5b'
p499
g454
sS'11aa0e19-eb8b-4a05-8fd1-8be374c17c72'
p500
g413
ssg186
(dp501
S'00940169-0ca7-438e-b524-17d1b08cf76f'
p502
g374
sS'0ff7f0cf-f64d-4b7a-9bc1-47cf2890c1a0'
p503
(dp504
sS'c8cd7c18-cb7f-4d57-82fc-d72d76453efe'
p505
(dp506
sS'abecb886-b27f-4c1b-b206-00f880d42bf1'
p507
g382
sS'afe978cd-9745-43df-b6b7-0c0304db90d8'
p508
g329
ssg190
(dp509
S'3ed22a62-6f49-47f8-9b20-6d6b81d28341'
p510
(dp511
ssg194
(dp512
S'8be0a058-86ba-4121-bece-44e41520d819'
p513
g350
ssg198
(dp514
S'0ec69e9f-aea0-4800-a8bd-60834b7833bc'
p515
(dp516
ssg202
(dp517
S'e543f4ab-2ee2-42d5-ade8-7fd8ddfa33f2'
p518
g369
sS'062c009b-8e96-4b8b-9bf3-538768f9b21a'
p519
(dp520
sS'bbb912b2-5f8d-4be0-b4be-bb08bdc56b5c'
p521
g511
sS'50ef71b2-62ff-4b20-af3f-65afa0b2aa33'
p522
g498
sS'a189bd02-7045-4fe4-8e42-9acc9d6f6b4d'
p523
(dp524
sS'c6990b43-8044-4ff0-8ad7-7acdff770606'
p525
(dp526
ssg206
(dp527
S'3ed22a62-6f49-47f8-9b20-6d6b81d28341'
p528
g524
sS'e65ee320-a9d1-498d-be38-cac8390531a3'
p529
g416
sS'e96b50d1-e36f-450f-be43-df07d404723e'
p530
g467
ssg210
(dp531
S'548750de-6c2f-4d84-81a3-8ecae49d28d0'
p532
g475
sS'd4486030-5075-4647-b3f9-d17bb3fa66dc'
p533
g428
sS'abc0a78c-892e-431a-85a7-70d489ea754e'
p534
g406
sS'9abe2384-e1a8-4a2d-ac9c-b3546a41bb16'
p535
g481
ssg214
(dp536
S'b9814877-acff-49ba-adb1-0dd2507388aa'
p537
g314
ssg218
(dp538
S'27e8a920-3eea-40c6-a09c-39d7d5caf6bf'
p539
g425
sS'e96b50d1-e36f-450f-be43-df07d404723e'
p540
g469
ssg222
(dp541
S'363f8f9b-a614-4d0e-82a0-a017f24d99c2'
p542
g298
ssg226
(dp543
S'5f3fd558-4f1e-49f0-a11c-af1c31001225'
p544
g478
sS'0a949971-1ee0-4584-b3c9-599e60c71cef'
p545
g457
sS'fc6d736b-708f-4657-a8c9-fb5a48c2bd24'
p546
g506
ssg230
(dp547
S'3ed22a62-6f49-47f8-9b20-6d6b81d28341'
p548
g526
sS'e543f4ab-2ee2-42d5-ade8-7fd8ddfa33f2'
p549
g371
ssg234
(dp550
S'3ed22a62-6f49-47f8-9b20-6d6b81d28341'
p551
g520
ssg238
(dp552
S'0ec69e9f-aea0-4800-a8bd-60834b7833bc'
p553
(dp554
ssg242
(dp555
S'2e691c05-5a09-43e5-addc-aa3966a4c5b3'
p556
g399
ssg246
(dp557
S'96792511-ae0b-425e-8121-59d06f4f2c20'
p558
g366
sS'fc6d736b-708f-4657-a8c9-fb5a48c2bd24'
p559
g504
sS'c740821a-6c23-4e1e-90b1-c61c4e31221c'
p560
g346
ssg250
(dp561
S'9132b905-0089-4a2d-97b0-a42de5ec97d7'
p562
g358
sS'50ef71b2-62ff-4b20-af3f-65afa0b2aa33'
p563
g493
ssg254
(dp564
S'f4bb3515-67a6-4555-abec-20ee81f4d22b'
p565
g392
sS'd06f2433-367c-4ec0-b235-6bde1042d42f'
p566
g554
sS'abc0a78c-892e-431a-85a7-70d489ea754e'
p567
g409
sS'c80788f2-0999-4dc5-b81d-bca38d5eb25d'
p568
g516
sS'037df66b-6424-4e27-8f26-11d7975a8ac7'
p569
g334
sS'e96b50d1-e36f-450f-be43-df07d404723e'
p570
g463
sS'd4e825e1-f754-4363-8a07-162692d5d9c2'
p571
(dp572
ssg258
(dp573
S'f666fdc3-9979-4b58-88a3-467679799d13'
p574
g343
sS'50ef71b2-62ff-4b20-af3f-65afa0b2aa33'
p575
g495
ssg262
(dp576
S'd42f00a7-5134-4f87-b5ac-a80996dc0f66'
p577
(dp578
sS'e96b50d1-e36f-450f-be43-df07d404723e'
p579
g465
ssg266
(dp580
S'3fc0e316-459b-4948-a7c7-961afb0783ae'
p581
g578
sS'bba054e1-2e3f-44d2-a1bc-957404d26ee5'
p582
g444
ssg270
(dp583
S'b19c8463-9b77-49d4-a8da-c3922152cb42'
p584
g323
ssg274
(dp585
S'bba054e1-2e3f-44d2-a1bc-957404d26ee5'
p586
g446
ssg278
(dp587
S'8be0a058-86ba-4121-bece-44e41520d819'
p588
g352
sS'71923daf-d4f7-4cae-bfe1-ce393aa8179b'
p589
g361
ssg282
(dp590
S'3bd43fe8-64ed-4b3e-8b20-bbe73cb13496'
p591
g387
sS'0ec69e9f-aea0-4800-a8bd-60834b7833bc'
p592
g572
ssg286
(dp593
S'b5063e2a-afbf-41b9-bf6e-25cb1a3426a5'
p594
g434
sssS'adj'
p595
g293
sb.