ccopy_reg
_reconstructor
p0
(cnetworkx.classes.graph
Graph
p1
c__builtin__
object
p2
Ntp3
Rp4
(dp5
S'node'
p6
(dp7
S'6a20c9ad-f287-4f03-9324-f4e8e4875327'
p8
(dp9
S'type'
p10
S'R'
p11
sS'label'
p12
S'CLASSROOM'
p13
ssS'd51c416d-3909-4517-899b-ac0656ade1a4'
p14
(dp15
g10
S'R'
p16
sg12
S'LAB'
p17
ssS'92f3122f-b1fa-4626-ae60-4f2cd3508cdc'
p18
(dp19
g10
S'C'
p20
sg12
S'CORRIDOR'
p21
ssS'1b0190ec-ba0f-42d5-b15e-1ddcabebfd7e'
p22
(dp23
g10
S'E'
p24
sg12
S'STAIRS'
p25
ssS'd5a52b9d-ba65-412e-8234-66477714bf18'
p26
(dp27
g10
S'C'
p28
sg12
S'WASHROOM'
p29
ssS'ce6d2779-6a56-492d-a7ea-4abaf7f05a49'
p30
(dp31
g10
S'R'
p32
sg12
S'LAB'
p33
ssS'7c8bdc8f-314a-4547-a364-939d001d0850'
p34
(dp35
g10
S'R'
p36
sg12
S'CLASSROOM'
p37
ssS'81f69c78-25ae-4ed3-a6ea-a2ddf17a807f'
p38
(dp39
g10
S'R'
p40
sg12
S'LAB'
p41
ssS'8d2cc2d8-260e-4cc6-ba32-ad13c5f02321'
p42
(dp43
g10
S'C'
p44
sg12
S'WASHROOM'
p45
ssS'a7be4b32-61e9-4cd8-8112-24b228719d8d'
p46
(dp47
g10
S'R'
p48
sg12
S'LAB'
p49
ssS'02fe10fa-5e00-46b0-8231-83fc82ae5d8d'
p50
(dp51
g10
S'E'
p52
sg12
S'STAIRS'
p53
ssS'4303c4d1-054c-433d-a990-95c80ba19cc8'
p54
(dp55
g10
S'C'
p56
sg12
S'CORRIDOR'
p57
ssS'039c97e7-2dc3-4d66-a092-97bf36477d1c'
p58
(dp59
g10
S'R'
p60
sg12
S'CLASSROOM'
p61
ssS'c3eaa00e-46b3-41dc-8e53-3bb9d2118e4f'
p62
(dp63
g10
S'R'
p64
sg12
S'CLASSROOM'
p65
ssS'8aaab125-405e-4866-9332-4b8cd997cc2d'
p66
(dp67
g10
S'R'
p68
sg12
S'CLASSROOM'
p69
ssS'3b9c688a-4858-4a9e-87ef-67fd2e66d4ff'
p70
(dp71
g10
S'E'
p72
sg12
S'STAIRS'
p73
ssS'f2f3ef94-fc26-4cd5-b7c2-1a275c95591e'
p74
(dp75
g10
S'C'
p76
sg12
S'CORRIDOR'
p77
ssS'18f178ba-f029-4b2f-9e0c-de8709d2b86c'
p78
(dp79
g10
S'R'
p80
sg12
S'LIBRARY'
p81
ssS'096621fb-2202-43ca-bd6c-38e97b8909db'
p82
(dp83
g10
S'R'
p84
sg12
S'CLASSROOM'
p85
ssS'59b411ca-9ed5-44c0-95fc-85578daf8685'
p86
(dp87
g10
S'E'
p88
sg12
S'STAIRS'
p89
ssS'97c6b11a-d61a-43f5-b1ff-fe83814d38ec'
p90
(dp91
g10
S'R'
p92
sg12
S'GYM'
p93
ssS'7a0acf6f-d68d-499d-ae5e-24f30292cdc0'
p94
(dp95
g10
S'R'
p96
sg12
S'CLASSROOM'
p97
ssS'90c202ee-8b8e-405d-b24d-9578b01c6aec'
p98
(dp99
g10
S'C'
p100
sg12
S'CORRIDOR'
p101
ssS'2fd5be56-c2d5-40b6-b921-ff7741d0d162'
p102
(dp103
g10
S'R'
p104
sg12
S'CLASSROOM'
p105
ssS'e4a9119a-6afa-4a43-b340-8dcde1fe8f03'
p106
(dp107
g10
S'R'
p108
sg12
S'CLASSROOM'
p109
sssS'graph'
p110
(dp111
sS'edge'
p112
(dp113
g8
(dp114
S'92f3122f-b1fa-4626-ae60-4f2cd3508cdc'
p115
(dp116
ssg14
(dp117
S'a7be4b32-61e9-4cd8-8112-24b228719d8d'
p118
(dp119
sS'90c202ee-8b8e-405d-b24d-9578b01c6aec'
p120
(dp121
ssg18
(dp122
S'6a20c9ad-f287-4f03-9324-f4e8e4875327'
p123
g116
sS'8aaab125-405e-4866-9332-4b8cd997cc2d'
p124
(dp125
sS'8d2cc2d8-260e-4cc6-ba32-ad13c5f02321'
p126
(dp127
sS'97c6b11a-d61a-43f5-b1ff-fe83814d38ec'
p128
(dp129
sS'3b9c688a-4858-4a9e-87ef-67fd2e66d4ff'
p130
(dp131
sS'a7be4b32-61e9-4cd8-8112-24b228719d8d'
p132
(dp133
sS'4303c4d1-054c-433d-a990-95c80ba19cc8'
p134
(dp135
sS'2fd5be56-c2d5-40b6-b921-ff7741d0d162'
p136
(dp137
sS'e4a9119a-6afa-4a43-b340-8dcde1fe8f03'
p138
(dp139
ssg22
(dp140
S'f2f3ef94-fc26-4cd5-b7c2-1a275c95591e'
p141
(dp142
ssg26
(dp143
S'90c202ee-8b8e-405d-b24d-9578b01c6aec'
p144
(dp145
ssg30
(dp146
S'90c202ee-8b8e-405d-b24d-9578b01c6aec'
p147
(dp148
ssg34
(dp149
S'f2f3ef94-fc26-4cd5-b7c2-1a275c95591e'
p150
(dp151
ssg38
(dp152
S'90c202ee-8b8e-405d-b24d-9578b01c6aec'
p153
(dp154
ssg42
(dp155
S'92f3122f-b1fa-4626-ae60-4f2cd3508cdc'
p156
g127
ssg46
(dp157
S'92f3122f-b1fa-4626-ae60-4f2cd3508cdc'
p158
g133
sS'd51c416d-3909-4517-899b-ac0656ade1a4'
p159
g119
ssg50
(dp160
S'90c202ee-8b8e-405d-b24d-9578b01c6aec'
p161
(dp162
ssg54
(dp163
S'59b411ca-9ed5-44c0-95fc-85578daf8685'
p164
(dp165
sS'92f3122f-b1fa-4626-ae60-4f2cd3508cdc'
p166
g135
sS'039c97e7-2dc3-4d66-a092-97bf36477d1c'
p167
(dp168
sS'7a0acf6f-d68d-499d-ae5e-24f30292cdc0'
p169
(dp170
sS'18f178ba-f029-4b2f-9e0c-de8709d2b86c'
p171
(dp172
ssg58
(dp173
S'4303c4d1-054c-433d-a990-95c80ba19cc8'
p174
g168
ssg62
(dp175
S'90c202ee-8b8e-405d-b24d-9578b01c6aec'
p176
(dp177
ssg66
(dp178
S'92f3122f-b1fa-4626-ae60-4f2cd3508cdc'
p179
g125
ssg70
(dp180
S'92f3122f-b1fa-4626-ae60-4f2cd3508cdc'
p181
g131
ssg74
(dp182
S'90c202ee-8b8e-405d-b24d-9578b01c6aec'
p183
(dp184
sS'7c8bdc8f-314a-4547-a364-939d001d0850'
p185
g151
sS'096621fb-2202-43ca-bd6c-38e97b8909db'
p186
(dp187
sS'1b0190ec-ba0f-42d5-b15e-1ddcabebfd7e'
p188
g142
sS'18f178ba-f029-4b2f-9e0c-de8709d2b86c'
p189
(dp190
ssg78
(dp191
S'4303c4d1-054c-433d-a990-95c80ba19cc8'
p192
g172
sS'f2f3ef94-fc26-4cd5-b7c2-1a275c95591e'
p193
g190
ssg82
(dp194
S'f2f3ef94-fc26-4cd5-b7c2-1a275c95591e'
p195
g187
ssg86
(dp196
S'4303c4d1-054c-433d-a990-95c80ba19cc8'
p197
g165
ssg90
(dp198
S'90c202ee-8b8e-405d-b24d-9578b01c6aec'
p199
(dp200
sS'92f3122f-b1fa-4626-ae60-4f2cd3508cdc'
p201
g129
ssg94
(dp202
S'4303c4d1-054c-433d-a990-95c80ba19cc8'
p203
g170
ssg98
(dp204
S'81f69c78-25ae-4ed3-a6ea-a2ddf17a807f'
p205
g154
sS'97c6b11a-d61a-43f5-b1ff-fe83814d38ec'
p206
g200
sS'd51c416d-3909-4517-899b-ac0656ade1a4'
p207
g121
sS'02fe10fa-5e00-46b0-8231-83fc82ae5d8d'
p208
g162
sS'd5a52b9d-ba65-412e-8234-66477714bf18'
p209
g145
sS'f2f3ef94-fc26-4cd5-b7c2-1a275c95591e'
p210
g184
sS'ce6d2779-6a56-492d-a7ea-4abaf7f05a49'
p211
g148
sS'c3eaa00e-46b3-41dc-8e53-3bb9d2118e4f'
p212
g177
ssg102
(dp213
S'92f3122f-b1fa-4626-ae60-4f2cd3508cdc'
p214
g137
ssg106
(dp215
S'92f3122f-b1fa-4626-ae60-4f2cd3508cdc'
p216
g139
sssS'adj'
p217
g113
sb.