ccopy_reg
_reconstructor
p0
(cnetworkx.classes.graph
Graph
p1
c__builtin__
object
p2
Ntp3
Rp4
(dp5
S'node'
p6
(dp7
S'37f2b976-1a34-45e7-a79f-7d629dd1472f'
p8
(dp9
S'type'
p10
S'R'
p11
sS'label'
p12
S'MEDIUM SERVICE'
p13
ssS'b5c33b6a-a306-4d76-a613-776e7e00d94f'
p14
(dp15
g10
S'R'
p16
sg12
S'BIG SERVICE'
p17
ssS'2df7f225-e063-4e15-8623-16496b0410bb'
p18
(dp19
g10
S'C'
p20
sg12
S'CORRIDOR'
p21
ssS'8d10e726-aa14-496b-8342-d3ef99c3c77b'
p22
(dp23
g10
S'R'
p24
sg12
S'MEDIUM ADMINISTRATIVE'
p25
ssS'56ea7a13-d305-4632-8a12-65060a04cbd0'
p26
(dp27
g10
S'R'
p28
sg12
S'CLASSROOM'
p29
ssS'b71e6979-6d43-442c-9d2a-df83ba367f1c'
p30
(dp31
g10
S'R'
p32
sg12
S'CLOSET'
p33
ssS'fd15c0d1-59ad-4e07-b76d-0214b8c65c66'
p34
(dp35
g10
S'E'
p36
sg12
S'STAIRS'
p37
ssS'9dd84365-a5ac-4439-aeb6-204098771ca9'
p38
(dp39
g10
S'R'
p40
sg12
S'SMALL ADMINISTRATIVE'
p41
ssS'0f8ef2ad-f113-4dcb-9ff7-49327087d59b'
p42
(dp43
g10
S'R'
p44
sg12
S'LAB'
p45
ssS'e4263c7e-6d63-4589-8c62-0ecb29b42d65'
p46
(dp47
g10
S'R'
p48
sg12
S'LAB'
p49
ssS'637af1f0-bb7d-4ad2-a7ef-0d7380a552ce'
p50
(dp51
g10
S'R'
p52
sg12
S'MEDIUM SERVICE'
p53
ssS'9576ea1e-bfb4-4dc0-8fba-c20f5c463d89'
p54
(dp55
g10
S'R'
p56
sg12
S'CLASSROOM'
p57
ssS'd3e98563-d956-4671-903a-d3795a58789d'
p58
(dp59
g10
S'R'
p60
sg12
S'SMALL ADMINISTRATIVE'
p61
ssS'9a9f7b94-b657-40d6-8883-ff842d33c732'
p62
(dp63
g10
S'E'
p64
sg12
S'STAIRS'
p65
ssS'461fca3d-3c01-4ddf-a22d-dc1ac53ac1ae'
p66
(dp67
g10
S'R'
p68
sg12
S'GYM'
p69
ssS'ca2c9fd0-a969-4c2a-8c46-9aa25797169c'
p70
(dp71
g10
S'C'
p72
sg12
S'WASHROOM'
p73
ssS'70bcda9b-4d5d-4009-a846-379bd720280b'
p74
(dp75
g10
S'C'
p76
sg12
S'CORRIDOR'
p77
ssS'2bd1bcc1-c581-4819-abd0-86030e863b52'
p78
(dp79
g10
S'R'
p80
sg12
S'CLASSROOM'
p81
ssS'47ae9599-30f7-4794-959b-d0b5651a4d6d'
p82
(dp83
g10
S'E'
p84
sg12
S'STAIRS'
p85
ssS'49ec9e50-8655-4359-a64f-1374ce8d37c1'
p86
(dp87
g10
S'R'
p88
sg12
S'MEDIUM SERVICE'
p89
ssS'ce138561-3faa-4760-888e-4103257c5749'
p90
(dp91
g10
S'R'
p92
sg12
S'MEDIUM SERVICE'
p93
ssS'f75da865-d67e-449e-830e-b4a8abcb5923'
p94
(dp95
g10
S'C'
p96
sg12
S'CORRIDOR'
p97
ssS'ac0a5a9c-d141-43aa-9c54-da57af3b9b64'
p98
(dp99
g10
S'R'
p100
sg12
S'BIG SERVICE'
p101
ssS'9987ce8f-e64a-4506-8bd2-e443231ee95d'
p102
(dp103
g10
S'R'
p104
sg12
S'SMALL ADMINISTRATIVE'
p105
ssS'3e118db6-ead3-415e-931c-3464ffb20554'
p106
(dp107
g10
S'R'
p108
sg12
S'MEDIUM ADMINISTRATIVE'
p109
ssS'd68cc9b1-8ce6-495a-ac39-91f7a7da6a3c'
p110
(dp111
g10
S'C'
p112
sg12
S'WASHROOM'
p113
ssS'f52c00a3-4f53-45d6-a970-f592ffa9631e'
p114
(dp115
g10
S'C'
p116
sg12
S'CORRIDOR'
p117
ssS'05692539-b254-4da9-921d-bae7c020485e'
p118
(dp119
g10
S'R'
p120
sg12
S'CLOSET'
p121
ssS'e6b1c43d-2133-4cd1-bd84-cce7831c03a4'
p122
(dp123
g10
S'E'
p124
sg12
S'STAIRS'
p125
ssS'877cef5c-0f84-42ac-aee8-c06172ca5e19'
p126
(dp127
g10
S'R'
p128
sg12
S'SMALL ADMINISTRATIVE'
p129
ssS'76ccf59f-7fcd-4ae7-9fda-39aa5462c678'
p130
(dp131
g10
S'E'
p132
sg12
S'ENTRANCE'
p133
ssS'7e0854b2-8d16-407e-bae4-3104456859c8'
p134
(dp135
g10
S'C'
p136
sg12
S'CORRIDOR'
p137
sssS'graph'
p138
(dp139
sS'edge'
p140
(dp141
g8
(dp142
S'f52c00a3-4f53-45d6-a970-f592ffa9631e'
p143
(dp144
ssg14
(dp145
S'f52c00a3-4f53-45d6-a970-f592ffa9631e'
p146
(dp147
ssg18
(dp148
S'd3e98563-d956-4671-903a-d3795a58789d'
p149
(dp150
sS'e6b1c43d-2133-4cd1-bd84-cce7831c03a4'
p151
(dp152
sS'f52c00a3-4f53-45d6-a970-f592ffa9631e'
p153
(dp154
sS'7e0854b2-8d16-407e-bae4-3104456859c8'
p155
(dp156
sS'9987ce8f-e64a-4506-8bd2-e443231ee95d'
p157
(dp158
sS'e4263c7e-6d63-4589-8c62-0ecb29b42d65'
p159
(dp160
ssg22
(dp161
S'70bcda9b-4d5d-4009-a846-379bd720280b'
p162
(dp163
ssg26
(dp164
S'70bcda9b-4d5d-4009-a846-379bd720280b'
p165
(dp166
ssg30
(dp167
S'f52c00a3-4f53-45d6-a970-f592ffa9631e'
p168
(dp169
sS'49ec9e50-8655-4359-a64f-1374ce8d37c1'
p170
(dp171
sS'461fca3d-3c01-4ddf-a22d-dc1ac53ac1ae'
p172
(dp173
ssg34
(dp174
S'f75da865-d67e-449e-830e-b4a8abcb5923'
p175
(dp176
ssg38
(dp177
S'9987ce8f-e64a-4506-8bd2-e443231ee95d'
p178
(dp179
sS'd3e98563-d956-4671-903a-d3795a58789d'
p180
(dp181
ssg42
(dp182
S'f52c00a3-4f53-45d6-a970-f592ffa9631e'
p183
(dp184
ssg46
(dp185
S'2df7f225-e063-4e15-8623-16496b0410bb'
p186
g160
ssg50
(dp187
S'05692539-b254-4da9-921d-bae7c020485e'
p188
(dp189
sS'f75da865-d67e-449e-830e-b4a8abcb5923'
p190
(dp191
ssg54
(dp192
S'70bcda9b-4d5d-4009-a846-379bd720280b'
p193
(dp194
ssg58
(dp195
S'9dd84365-a5ac-4439-aeb6-204098771ca9'
p196
g181
sS'2df7f225-e063-4e15-8623-16496b0410bb'
p197
g150
ssg62
(dp198
sg66
(dp199
S'f75da865-d67e-449e-830e-b4a8abcb5923'
p200
(dp201
sS'f52c00a3-4f53-45d6-a970-f592ffa9631e'
p202
(dp203
sS'05692539-b254-4da9-921d-bae7c020485e'
p204
(dp205
sS'b71e6979-6d43-442c-9d2a-df83ba367f1c'
p206
g173
sS'7e0854b2-8d16-407e-bae4-3104456859c8'
p207
(dp208
ssg70
(dp209
S'f75da865-d67e-449e-830e-b4a8abcb5923'
p210
(dp211
ssg74
(dp212
S'8d10e726-aa14-496b-8342-d3ef99c3c77b'
p213
g163
sS'56ea7a13-d305-4632-8a12-65060a04cbd0'
p214
g166
sS'f75da865-d67e-449e-830e-b4a8abcb5923'
p215
(dp216
sS'7e0854b2-8d16-407e-bae4-3104456859c8'
p217
(dp218
sS'9576ea1e-bfb4-4dc0-8fba-c20f5c463d89'
p219
g194
ssg78
(dp220
S'f75da865-d67e-449e-830e-b4a8abcb5923'
p221
(dp222
ssg82
(dp223
S'f52c00a3-4f53-45d6-a970-f592ffa9631e'
p224
(dp225
ssg86
(dp226
S'f52c00a3-4f53-45d6-a970-f592ffa9631e'
p227
(dp228
sS'b71e6979-6d43-442c-9d2a-df83ba367f1c'
p229
g171
ssg90
(dp230
S'f75da865-d67e-449e-830e-b4a8abcb5923'
p231
(dp232
ssg94
(dp233
S'637af1f0-bb7d-4ad2-a7ef-0d7380a552ce'
p234
g191
sS'fd15c0d1-59ad-4e07-b76d-0214b8c65c66'
p235
g176
sS'05692539-b254-4da9-921d-bae7c020485e'
p236
(dp237
sS'461fca3d-3c01-4ddf-a22d-dc1ac53ac1ae'
p238
g201
sS'ce138561-3faa-4760-888e-4103257c5749'
p239
g232
sS'ca2c9fd0-a969-4c2a-8c46-9aa25797169c'
p240
g211
sS'ac0a5a9c-d141-43aa-9c54-da57af3b9b64'
p241
(dp242
sS'70bcda9b-4d5d-4009-a846-379bd720280b'
p243
g216
sS'2bd1bcc1-c581-4819-abd0-86030e863b52'
p244
g222
ssg98
(dp245
S'f75da865-d67e-449e-830e-b4a8abcb5923'
p246
g242
ssg102
(dp247
S'9dd84365-a5ac-4439-aeb6-204098771ca9'
p248
g179
sS'877cef5c-0f84-42ac-aee8-c06172ca5e19'
p249
(dp250
sS'2df7f225-e063-4e15-8623-16496b0410bb'
p251
g158
ssg106
(dp252
S'7e0854b2-8d16-407e-bae4-3104456859c8'
p253
(dp254
ssg110
(dp255
S'f52c00a3-4f53-45d6-a970-f592ffa9631e'
p256
(dp257
ssg114
(dp258
S'd68cc9b1-8ce6-495a-ac39-91f7a7da6a3c'
p259
g257
sS'37f2b976-1a34-45e7-a79f-7d629dd1472f'
p260
g144
sS'49ec9e50-8655-4359-a64f-1374ce8d37c1'
p261
g228
sS'b5c33b6a-a306-4d76-a613-776e7e00d94f'
p262
g147
sS'461fca3d-3c01-4ddf-a22d-dc1ac53ac1ae'
p263
g203
sS'b71e6979-6d43-442c-9d2a-df83ba367f1c'
p264
g169
sS'47ae9599-30f7-4794-959b-d0b5651a4d6d'
p265
g225
sS'0f8ef2ad-f113-4dcb-9ff7-49327087d59b'
p266
g184
sS'2df7f225-e063-4e15-8623-16496b0410bb'
p267
g154
ssg118
(dp268
S'637af1f0-bb7d-4ad2-a7ef-0d7380a552ce'
p269
g189
sS'f75da865-d67e-449e-830e-b4a8abcb5923'
p270
g237
sS'461fca3d-3c01-4ddf-a22d-dc1ac53ac1ae'
p271
g205
ssg122
(dp272
S'2df7f225-e063-4e15-8623-16496b0410bb'
p273
g152
ssg126
(dp274
S'9987ce8f-e64a-4506-8bd2-e443231ee95d'
p275
g250
ssg130
(dp276
S'7e0854b2-8d16-407e-bae4-3104456859c8'
p277
(dp278
ssg134
(dp279
S'2df7f225-e063-4e15-8623-16496b0410bb'
p280
g156
sS'70bcda9b-4d5d-4009-a846-379bd720280b'
p281
g218
sS'76ccf59f-7fcd-4ae7-9fda-39aa5462c678'
p282
g278
sS'3e118db6-ead3-415e-931c-3464ffb20554'
p283
g254
sS'461fca3d-3c01-4ddf-a22d-dc1ac53ac1ae'
p284
g208
sssS'adj'
p285
g141
sb.