ccopy_reg
_reconstructor
p0
(cnetworkx.classes.graph
Graph
p1
c__builtin__
object
p2
Ntp3
Rp4
(dp5
S'node'
p6
(dp7
S'de1f71f2-3a6c-4984-8280-e741712d1259'
p8
(dp9
S'type'
p10
S'R'
p11
sS'label'
p12
S'CLOSET'
p13
ssS'5dacb6b5-38d3-416d-9b1c-9bb8ecac7974'
p14
(dp15
g10
S'R'
p16
sg12
S'CLOSET'
p17
ssS'b0e38cd5-2661-4dd3-8be5-403605c8bce8'
p18
(dp19
g10
S'C'
p20
sg12
S'WASHROOM'
p21
ssS'ce07c309-b300-4bc7-8281-3e12e7eded44'
p22
(dp23
g10
S'R'
p24
sg12
S'MEDIUM SERVICE'
p25
ssS'46bef182-928b-4bbc-ba93-3f61a3094ae1'
p26
(dp27
g10
S'R'
p28
sg12
S'CLASSROOM'
p29
ssS'201d0bb4-299d-4b5e-bb23-cabe73704e07'
p30
(dp31
g10
S'R'
p32
sg12
S'CLASSROOM'
p33
ssS'b2cd09a9-abf5-4e85-947b-ed7d79b12dc1'
p34
(dp35
g10
S'R'
p36
sg12
S'CLASSROOM'
p37
ssS'b8ff1296-ed82-46da-aa34-99db234f7468'
p38
(dp39
g10
S'C'
p40
sg12
S'CORRIDOR'
p41
ssS'76d3c937-477a-4507-b6fe-12f4fac9aa1c'
p42
(dp43
g10
S'R'
p44
sg12
S'SMALL ADMINISTRATIVE'
p45
ssS'28a50a19-74da-41c4-8626-59a12807a42e'
p46
(dp47
g10
S'R'
p48
sg12
S'LAB'
p49
ssS'6b803cd2-8a1f-45ea-8ac2-c7089185ca3a'
p50
(dp51
g10
S'R'
p52
sg12
S'CLOSET'
p53
ssS'54093e9b-c864-43de-b162-af5f77fb621e'
p54
(dp55
g10
S'C'
p56
sg12
S'CORRIDOR'
p57
ssS'22190945-9852-4709-a47e-ac26795b2f87'
p58
(dp59
g10
S'C'
p60
sg12
S'CORRIDOR'
p61
ssS'21425c00-fbb3-4a13-8a40-f97c6bbd01b8'
p62
(dp63
g10
S'R'
p64
sg12
S'CLOSET'
p65
ssS'3cfc99db-eb26-4ed2-b6ef-c60885c98f9b'
p66
(dp67
g10
S'R'
p68
sg12
S'CANTEEN'
p69
ssS'3c94820f-05f0-4d3f-b144-a29f92a4710d'
p70
(dp71
g10
S'R'
p72
sg12
S'LAB'
p73
ssS'78259793-2f07-4218-b01a-76dc800425ba'
p74
(dp75
g10
S'R'
p76
sg12
S'SMALL ADMINISTRATIVE'
p77
ssS'7f1ce8ef-21d0-4279-a29f-d33796038d67'
p78
(dp79
g10
S'R'
p80
sg12
S'LAB'
p81
ssS'3d4bfff2-62c6-458d-90b2-0087e9fccdcf'
p82
(dp83
g10
S'R'
p84
sg12
S'CLASSROOM'
p85
ssS'60a1a8df-548f-40d1-835f-148d2c98d054'
p86
(dp87
g10
S'C'
p88
sg12
S'HALL'
p89
ssS'5a7cfda6-ae8c-466c-b92a-437c81a5d979'
p90
(dp91
g10
S'R'
p92
sg12
S'SMALL ADMINISTRATIVE'
p93
ssS'e93abba8-83f8-4d03-bcbe-db5557ed5334'
p94
(dp95
g10
S'C'
p96
sg12
S'CORRIDOR'
p97
ssS'0a00c429-8106-4f1a-bc2a-60f865d3d103'
p98
(dp99
g10
S'R'
p100
sg12
S'CONFERENCE'
p101
ssS'9fa83747-65c6-4bbe-9060-0cecf0ba9cdf'
p102
(dp103
g10
S'R'
p104
sg12
S'CLOSET'
p105
ssS'ca456cf5-9e67-43d6-bea4-5f90087f845f'
p106
(dp107
g10
S'R'
p108
sg12
S'LAB'
p109
ssS'536768c1-b290-4670-8b32-68ae4a02c1a8'
p110
(dp111
g10
S'R'
p112
sg12
S'GYM'
p113
ssS'8dd4aae8-4aa1-4536-bedb-4d5c36a3891a'
p114
(dp115
g10
S'C'
p116
sg12
S'CORRIDOR'
p117
ssS'9a50ee5a-7ba8-4d2b-b515-ff90322b6ced'
p118
(dp119
g10
S'R'
p120
sg12
S'CLASSROOM'
p121
ssS'f64e1b46-3a6e-44e6-8482-d1a4d93c1a0b'
p122
(dp123
g10
S'R'
p124
sg12
S'CLASSROOM'
p125
ssS'6e6a9d93-9255-46ac-b7b5-1ffdcc9ba3ec'
p126
(dp127
g10
S'R'
p128
sg12
S'MEDIUM SERVICE'
p129
ssS'11d1a973-a5cd-4699-be59-bb958b65d4ad'
p130
(dp131
g10
S'R'
p132
sg12
S'BATHROOM'
p133
ssS'abbe0804-801b-49b4-9e52-1db377b450c0'
p134
(dp135
g10
S'R'
p136
sg12
S'BATHROOM'
p137
ssS'7e27a4a2-ee31-4694-ba36-86d1f8d0672f'
p138
(dp139
g10
S'C'
p140
sg12
S'CORRIDOR'
p141
ssS'f49f2e67-2328-4e05-a281-990addcb8b19'
p142
(dp143
g10
S'C'
p144
sg12
S'WASHROOM'
p145
ssS'19a2d50e-5aea-453c-8b20-1248f37d1b9f'
p146
(dp147
g10
S'R'
p148
sg12
S'CLASSROOM'
p149
ssS'31166166-601f-4bac-8b91-79ec37293754'
p150
(dp151
g10
S'R'
p152
sg12
S'CLASSROOM'
p153
ssS'7d3e7cc4-aec2-48da-9963-0fb4cbe96e50'
p154
(dp155
g10
S'E'
p156
sg12
S'ENTRANCE'
p157
ssS'bd132679-538f-4e66-aa67-1427d5455bbf'
p158
(dp159
g10
S'R'
p160
sg12
S'KITCHEN'
p161
ssS'295e1bc6-c625-4885-bfd9-2c44fb12e65d'
p162
(dp163
g10
S'R'
p164
sg12
S'LAB'
p165
sssS'graph'
p166
(dp167
sS'edge'
p168
(dp169
g8
(dp170
S'ca456cf5-9e67-43d6-bea4-5f90087f845f'
p171
(dp172
ssg14
(dp173
S'bd132679-538f-4e66-aa67-1427d5455bbf'
p174
(dp175
ssg18
(dp176
S'e93abba8-83f8-4d03-bcbe-db5557ed5334'
p177
(dp178
ssg22
(dp179
S'7e27a4a2-ee31-4694-ba36-86d1f8d0672f'
p180
(dp181
ssg26
(dp182
S'e93abba8-83f8-4d03-bcbe-db5557ed5334'
p183
(dp184
ssg30
(dp185
S'8dd4aae8-4aa1-4536-bedb-4d5c36a3891a'
p186
(dp187
ssg34
(dp188
S'8dd4aae8-4aa1-4536-bedb-4d5c36a3891a'
p189
(dp190
ssg38
(dp191
S'9fa83747-65c6-4bbe-9060-0cecf0ba9cdf'
p192
(dp193
sS'ca456cf5-9e67-43d6-bea4-5f90087f845f'
p194
(dp195
sS'8dd4aae8-4aa1-4536-bedb-4d5c36a3891a'
p196
(dp197
sS'78259793-2f07-4218-b01a-76dc800425ba'
p198
(dp199
sS'e93abba8-83f8-4d03-bcbe-db5557ed5334'
p200
(dp201
sS'76d3c937-477a-4507-b6fe-12f4fac9aa1c'
p202
(dp203
sS'295e1bc6-c625-4885-bfd9-2c44fb12e65d'
p204
(dp205
ssg42
(dp206
S'b8ff1296-ed82-46da-aa34-99db234f7468'
p207
g203
sS'5a7cfda6-ae8c-466c-b92a-437c81a5d979'
p208
(dp209
sS'78259793-2f07-4218-b01a-76dc800425ba'
p210
(dp211
ssg46
(dp212
S'e93abba8-83f8-4d03-bcbe-db5557ed5334'
p213
(dp214
sS'22190945-9852-4709-a47e-ac26795b2f87'
p215
(dp216
ssg50
(dp217
S'ca456cf5-9e67-43d6-bea4-5f90087f845f'
p218
(dp219
ssg54
(dp220
S'3cfc99db-eb26-4ed2-b6ef-c60885c98f9b'
p221
(dp222
sS'536768c1-b290-4670-8b32-68ae4a02c1a8'
p223
(dp224
ssg58
(dp225
S'28a50a19-74da-41c4-8626-59a12807a42e'
p226
g216
sS'7d3e7cc4-aec2-48da-9963-0fb4cbe96e50'
p227
(dp228
sS'e93abba8-83f8-4d03-bcbe-db5557ed5334'
p229
(dp230
ssg62
(dp231
S'ca456cf5-9e67-43d6-bea4-5f90087f845f'
p232
(dp233
ssg66
(dp234
S'60a1a8df-548f-40d1-835f-148d2c98d054'
p235
(dp236
sS'54093e9b-c864-43de-b162-af5f77fb621e'
p237
g222
sS'8dd4aae8-4aa1-4536-bedb-4d5c36a3891a'
p238
(dp239
ssg70
(dp240
S'e93abba8-83f8-4d03-bcbe-db5557ed5334'
p241
(dp242
ssg74
(dp243
S'b8ff1296-ed82-46da-aa34-99db234f7468'
p244
g199
sS'76d3c937-477a-4507-b6fe-12f4fac9aa1c'
p245
g211
ssg78
(dp246
S'e93abba8-83f8-4d03-bcbe-db5557ed5334'
p247
(dp248
ssg82
(dp249
S'e93abba8-83f8-4d03-bcbe-db5557ed5334'
p250
(dp251
sS'295e1bc6-c625-4885-bfd9-2c44fb12e65d'
p252
(dp253
ssg86
(dp254
S'3cfc99db-eb26-4ed2-b6ef-c60885c98f9b'
p255
g236
sS'abbe0804-801b-49b4-9e52-1db377b450c0'
p256
(dp257
sS'bd132679-538f-4e66-aa67-1427d5455bbf'
p258
(dp259
ssg90
(dp260
S'76d3c937-477a-4507-b6fe-12f4fac9aa1c'
p261
g209
ssg94
(dp262
S'9fa83747-65c6-4bbe-9060-0cecf0ba9cdf'
p263
(dp264
sS'b0e38cd5-2661-4dd3-8be5-403605c8bce8'
p265
g178
sS'46bef182-928b-4bbc-ba93-3f61a3094ae1'
p266
g184
sS'22190945-9852-4709-a47e-ac26795b2f87'
p267
g230
sS'28a50a19-74da-41c4-8626-59a12807a42e'
p268
g214
sS'3c94820f-05f0-4d3f-b144-a29f92a4710d'
p269
g242
sS'7f1ce8ef-21d0-4279-a29f-d33796038d67'
p270
g248
sS'3d4bfff2-62c6-458d-90b2-0087e9fccdcf'
p271
g251
sS'b8ff1296-ed82-46da-aa34-99db234f7468'
p272
g201
sS'f64e1b46-3a6e-44e6-8482-d1a4d93c1a0b'
p273
(dp274
ssg98
(dp275
S'8dd4aae8-4aa1-4536-bedb-4d5c36a3891a'
p276
(dp277
sS'295e1bc6-c625-4885-bfd9-2c44fb12e65d'
p278
(dp279
ssg102
(dp280
S'b8ff1296-ed82-46da-aa34-99db234f7468'
p281
g193
sS'e93abba8-83f8-4d03-bcbe-db5557ed5334'
p282
g264
sS'295e1bc6-c625-4885-bfd9-2c44fb12e65d'
p283
(dp284
ssg106
(dp285
S'21425c00-fbb3-4a13-8a40-f97c6bbd01b8'
p286
g233
sS'de1f71f2-3a6c-4984-8280-e741712d1259'
p287
g172
sS'b8ff1296-ed82-46da-aa34-99db234f7468'
p288
g195
sS'6b803cd2-8a1f-45ea-8ac2-c7089185ca3a'
p289
g219
ssg110
(dp290
S'7e27a4a2-ee31-4694-ba36-86d1f8d0672f'
p291
(dp292
sS'54093e9b-c864-43de-b162-af5f77fb621e'
p293
g224
sS'bd132679-538f-4e66-aa67-1427d5455bbf'
p294
(dp295
ssg114
(dp296
S'9a50ee5a-7ba8-4d2b-b515-ff90322b6ced'
p297
(dp298
sS'7e27a4a2-ee31-4694-ba36-86d1f8d0672f'
p299
(dp300
sS'31166166-601f-4bac-8b91-79ec37293754'
p301
(dp302
sS'201d0bb4-299d-4b5e-bb23-cabe73704e07'
p303
g187
sS'3cfc99db-eb26-4ed2-b6ef-c60885c98f9b'
p304
g239
sS'19a2d50e-5aea-453c-8b20-1248f37d1b9f'
p305
(dp306
sS'b2cd09a9-abf5-4e85-947b-ed7d79b12dc1'
p307
g190
sS'b8ff1296-ed82-46da-aa34-99db234f7468'
p308
g197
sS'f49f2e67-2328-4e05-a281-990addcb8b19'
p309
(dp310
sS'0a00c429-8106-4f1a-bc2a-60f865d3d103'
p311
g277
ssg118
(dp312
S'8dd4aae8-4aa1-4536-bedb-4d5c36a3891a'
p313
g298
ssg122
(dp314
S'e93abba8-83f8-4d03-bcbe-db5557ed5334'
p315
g274
ssg126
(dp316
S'7e27a4a2-ee31-4694-ba36-86d1f8d0672f'
p317
(dp318
ssg130
(dp319
S'7e27a4a2-ee31-4694-ba36-86d1f8d0672f'
p320
(dp321
ssg134
(dp322
S'60a1a8df-548f-40d1-835f-148d2c98d054'
p323
g257
ssg138
(dp324
S'11d1a973-a5cd-4699-be59-bb958b65d4ad'
p325
g321
sS'ce07c309-b300-4bc7-8281-3e12e7eded44'
p326
g181
sS'536768c1-b290-4670-8b32-68ae4a02c1a8'
p327
g292
sS'8dd4aae8-4aa1-4536-bedb-4d5c36a3891a'
p328
g300
sS'f49f2e67-2328-4e05-a281-990addcb8b19'
p329
(dp330
sS'6e6a9d93-9255-46ac-b7b5-1ffdcc9ba3ec'
p331
g318
ssg142
(dp332
S'7e27a4a2-ee31-4694-ba36-86d1f8d0672f'
p333
g330
sS'8dd4aae8-4aa1-4536-bedb-4d5c36a3891a'
p334
g310
ssg146
(dp335
S'8dd4aae8-4aa1-4536-bedb-4d5c36a3891a'
p336
g306
ssg150
(dp337
S'8dd4aae8-4aa1-4536-bedb-4d5c36a3891a'
p338
g302
ssg154
(dp339
S'22190945-9852-4709-a47e-ac26795b2f87'
p340
g228
ssg158
(dp341
S'536768c1-b290-4670-8b32-68ae4a02c1a8'
p342
g295
sS'60a1a8df-548f-40d1-835f-148d2c98d054'
p343
g259
sS'5dacb6b5-38d3-416d-9b1c-9bb8ecac7974'
p344
g175
ssg162
(dp345
S'9fa83747-65c6-4bbe-9060-0cecf0ba9cdf'
p346
g284
sS'b8ff1296-ed82-46da-aa34-99db234f7468'
p347
g205
sS'3d4bfff2-62c6-458d-90b2-0087e9fccdcf'
p348
g253
sS'0a00c429-8106-4f1a-bc2a-60f865d3d103'
p349
g279
sssS'adj'
p350
g169
sb.