ccopy_reg
_reconstructor
p0
(cnetworkx.classes.graph
Graph
p1
c__builtin__
object
p2
Ntp3
Rp4
(dp5
S'node'
p6
(dp7
S'7afd3c5e-8602-450d-878f-85b9694fda4f'
p8
(dp9
S'type'
p10
S'R'
p11
sS'label'
p12
S'CLASSROOM'
p13
ssS'd446a04f-3e05-4363-bf48-610299ba0295'
p14
(dp15
g10
S'C'
p16
sg12
S'CORRIDOR'
p17
ssS'f6838c43-21e7-4a19-88ae-3572ca7bdc5f'
p18
(dp19
g10
S'E'
p20
sg12
S'STAIRS'
p21
ssS'4a7b82bb-1426-4911-98a5-0861edaf6028'
p22
(dp23
g10
S'R'
p24
sg12
S'SMALL'
p25
ssS'615599f2-11fd-4107-9a19-25226186d5a0'
p26
(dp27
g10
S'C'
p28
sg12
S'WASHROOM'
p29
ssS'c43bc121-501f-4fe5-ad30-80cde6b2a326'
p30
(dp31
g10
S'R'
p32
sg12
S'CLOSET'
p33
ssS'ab938466-33a6-4f65-a0fa-09387db4918f'
p34
(dp35
g10
S'R'
p36
sg12
S'CLASSROOM'
p37
ssS'07458124-1541-44b3-a290-da5509a317c3'
p38
(dp39
g10
S'E'
p40
sg12
S'STAIRS'
p41
ssS'180e3c90-d8ef-41b2-b6f5-c7b3243d1572'
p42
(dp43
g10
S'R'
p44
sg12
S'MEDIUM SERVICE'
p45
ssS'e6e50a34-1359-4e06-b13b-0465995f4a82'
p46
(dp47
g10
S'R'
p48
sg12
S'CLASSROOM'
p49
ssS'0fd49c38-da52-496b-9f31-a18e3261b9e4'
p50
(dp51
g10
S'R'
p52
sg12
S'CLOSET'
p53
ssS'5ebcfd1c-2ee5-46ce-8edd-fa28f49ea76b'
p54
(dp55
g10
S'R'
p56
sg12
S'LAB'
p57
ssS'be087486-277a-404f-b03b-7253caeb768b'
p58
(dp59
g10
S'R'
p60
sg12
S'CLASSROOM'
p61
ssS'30c9a58a-f1b6-4c52-93ad-706779b89273'
p62
(dp63
g10
S'R'
p64
sg12
S'LAB'
p65
ssS'1de09e47-c72e-47da-9831-37021ee5e2a0'
p66
(dp67
g10
S'R'
p68
sg12
S'SMALL'
p69
ssS'65f9588d-5795-4b58-b209-d7ce6ff5ab33'
p70
(dp71
g10
S'R'
p72
sg12
S'CLASSROOM'
p73
ssS'61936c3d-ffca-486c-9733-98f01922a258'
p74
(dp75
g10
S'R'
p76
sg12
S'CLASSROOM'
p77
ssS'de3f0297-0c5e-4485-8ab6-d6a4080d1ebc'
p78
(dp79
g10
S'R'
p80
sg12
S'CLOSET'
p81
ssS'3f068027-81bd-4013-a2a8-cabcb5ebad5a'
p82
(dp83
g10
S'C'
p84
sg12
S'CORRIDOR'
p85
ssS'2fd48f04-438a-44bc-81ee-41b9a4bb2694'
p86
(dp87
g10
S'R'
p88
sg12
S'LAB'
p89
ssS'a1b28611-f2a8-43fd-9909-47bd8c9dfb71'
p90
(dp91
g10
S'R'
p92
sg12
S'MEDIUM SERVICE'
p93
ssS'687b5821-d1fe-4b61-b39c-2705a87b92b6'
p94
(dp95
g10
S'R'
p96
sg12
S'LAB'
p97
ssS'511c22ae-e1e1-41ab-be10-271ef26aaef9'
p98
(dp99
g10
S'R'
p100
sg12
S'CLOSET'
p101
ssS'6f8725d5-b572-4eec-ace4-a04b6efe09b5'
p102
(dp103
g10
S'C'
p104
sg12
S'CORRIDOR'
p105
ssS'076a98f2-6145-4c93-9908-c1f776b97607'
p106
(dp107
g10
S'R'
p108
sg12
S'LAB'
p109
ssS'129a7c48-a4d0-4610-af20-5d0790ac8e50'
p110
(dp111
g10
S'R'
p112
sg12
S'CLOSET'
p113
ssS'e77d5515-d3cb-4fba-93ad-50aa60a0b723'
p114
(dp115
g10
S'R'
p116
sg12
S'CLASSROOM'
p117
ssS'9e85148d-6c2d-416a-92a0-1cf0b78a5c5a'
p118
(dp119
g10
S'R'
p120
sg12
S'CLOSET'
p121
ssS'4851d464-5652-4513-9d4d-cf2eb0ca13c4'
p122
(dp123
g10
S'E'
p124
sg12
S'STAIRS'
p125
ssS'c82f48b1-c8e8-4f39-b4b4-6d15e483270f'
p126
(dp127
g10
S'R'
p128
sg12
S'CLASSROOM'
p129
ssS'2b438a03-5802-4e04-85ac-6b4717438f3c'
p130
(dp131
g10
S'R'
p132
sg12
S'CLOSET'
p133
ssS'429247b9-cae2-4927-963a-cea405350aaf'
p134
(dp135
g10
S'C'
p136
sg12
S'WASHROOM'
p137
ssS'6af965b0-7ea3-4d04-858d-1c6f42f31105'
p138
(dp139
g10
S'R'
p140
sg12
S'CLASSROOM'
p141
ssS'b4c3dcf4-6c58-44d5-9636-ac9333e54de0'
p142
(dp143
g10
S'R'
p144
sg12
S'CLASSROOM'
p145
ssS'23c7304d-7468-4827-a0f4-4dbe9ee81172'
p146
(dp147
g10
S'R'
p148
sg12
S'SMALL'
p149
ssS'c22fe8c6-f40e-4cf6-b2bf-d2a101357ad9'
p150
(dp151
g10
S'R'
p152
sg12
S'LAB'
p153
ssS'8e40159a-e1ba-4fa5-b349-ee5bc0644a22'
p154
(dp155
g10
S'R'
p156
sg12
S'CLASSROOM'
p157
ssS'4028263d-bb1a-4a1e-a660-6c0f7c3e7b24'
p158
(dp159
g10
S'R'
p160
sg12
S'CLASSROOM'
p161
sssS'graph'
p162
(dp163
sS'edge'
p164
(dp165
g8
(dp166
S'2b438a03-5802-4e04-85ac-6b4717438f3c'
p167
(dp168
sS'687b5821-d1fe-4b61-b39c-2705a87b92b6'
p169
(dp170
sS'3f068027-81bd-4013-a2a8-cabcb5ebad5a'
p171
(dp172
ssg14
(dp173
S'3f068027-81bd-4013-a2a8-cabcb5ebad5a'
p174
(dp175
sS'a1b28611-f2a8-43fd-9909-47bd8c9dfb71'
p176
(dp177
sS'f6838c43-21e7-4a19-88ae-3572ca7bdc5f'
p178
(dp179
sS'65f9588d-5795-4b58-b209-d7ce6ff5ab33'
p180
(dp181
sS'8e40159a-e1ba-4fa5-b349-ee5bc0644a22'
p182
(dp183
sS'61936c3d-ffca-486c-9733-98f01922a258'
p184
(dp185
sS'4028263d-bb1a-4a1e-a660-6c0f7c3e7b24'
p186
(dp187
ssg18
(dp188
S'd446a04f-3e05-4363-bf48-610299ba0295'
p189
g179
ssg22
(dp190
S'511c22ae-e1e1-41ab-be10-271ef26aaef9'
p191
(dp192
sS'3f068027-81bd-4013-a2a8-cabcb5ebad5a'
p193
(dp194
ssg26
(dp195
S'3f068027-81bd-4013-a2a8-cabcb5ebad5a'
p196
(dp197
ssg30
(dp198
S'e77d5515-d3cb-4fba-93ad-50aa60a0b723'
p199
(dp200
sS'ab938466-33a6-4f65-a0fa-09387db4918f'
p201
(dp202
ssg34
(dp203
S'c22fe8c6-f40e-4cf6-b2bf-d2a101357ad9'
p204
(dp205
sS'c43bc121-501f-4fe5-ad30-80cde6b2a326'
p206
g202
sS'6f8725d5-b572-4eec-ace4-a04b6efe09b5'
p207
(dp208
ssg38
(dp209
S'3f068027-81bd-4013-a2a8-cabcb5ebad5a'
p210
(dp211
ssg42
(dp212
S'6f8725d5-b572-4eec-ace4-a04b6efe09b5'
p213
(dp214
ssg46
(dp215
S'0fd49c38-da52-496b-9f31-a18e3261b9e4'
p216
(dp217
sS'6f8725d5-b572-4eec-ace4-a04b6efe09b5'
p218
(dp219
sS'5ebcfd1c-2ee5-46ce-8edd-fa28f49ea76b'
p220
(dp221
ssg50
(dp222
S'e6e50a34-1359-4e06-b13b-0465995f4a82'
p223
g217
sS'6af965b0-7ea3-4d04-858d-1c6f42f31105'
p224
(dp225
ssg54
(dp226
S'e6e50a34-1359-4e06-b13b-0465995f4a82'
p227
g221
sS'6af965b0-7ea3-4d04-858d-1c6f42f31105'
p228
(dp229
ssg58
(dp230
S'076a98f2-6145-4c93-9908-c1f776b97607'
p231
(dp232
sS'129a7c48-a4d0-4610-af20-5d0790ac8e50'
p233
(dp234
sS'3f068027-81bd-4013-a2a8-cabcb5ebad5a'
p235
(dp236
ssg62
(dp237
S'61936c3d-ffca-486c-9733-98f01922a258'
p238
(dp239
sS'4028263d-bb1a-4a1e-a660-6c0f7c3e7b24'
p240
(dp241
ssg66
(dp242
S'3f068027-81bd-4013-a2a8-cabcb5ebad5a'
p243
(dp244
ssg70
(dp245
S'd446a04f-3e05-4363-bf48-610299ba0295'
p246
g181
sS'2fd48f04-438a-44bc-81ee-41b9a4bb2694'
p247
(dp248
sS'de3f0297-0c5e-4485-8ab6-d6a4080d1ebc'
p249
(dp250
ssg74
(dp251
S'9e85148d-6c2d-416a-92a0-1cf0b78a5c5a'
p252
(dp253
sS'30c9a58a-f1b6-4c52-93ad-706779b89273'
p254
g239
sS'd446a04f-3e05-4363-bf48-610299ba0295'
p255
g185
ssg78
(dp256
S'65f9588d-5795-4b58-b209-d7ce6ff5ab33'
p257
g250
sS'8e40159a-e1ba-4fa5-b349-ee5bc0644a22'
p258
(dp259
ssg82
(dp260
S'07458124-1541-44b3-a290-da5509a317c3'
p261
g211
sS'7afd3c5e-8602-450d-878f-85b9694fda4f'
p262
g172
sS'c82f48b1-c8e8-4f39-b4b4-6d15e483270f'
p263
(dp264
sS'd446a04f-3e05-4363-bf48-610299ba0295'
p265
g175
sS'4a7b82bb-1426-4911-98a5-0861edaf6028'
p266
g194
sS'615599f2-11fd-4107-9a19-25226186d5a0'
p267
g197
sS'6f8725d5-b572-4eec-ace4-a04b6efe09b5'
p268
(dp269
sS'be087486-277a-404f-b03b-7253caeb768b'
p270
g236
sS'23c7304d-7468-4827-a0f4-4dbe9ee81172'
p271
(dp272
sS'1de09e47-c72e-47da-9831-37021ee5e2a0'
p273
g244
sS'429247b9-cae2-4927-963a-cea405350aaf'
p274
(dp275
sS'b4c3dcf4-6c58-44d5-9636-ac9333e54de0'
p276
(dp277
ssg86
(dp278
S'65f9588d-5795-4b58-b209-d7ce6ff5ab33'
p279
g248
sS'8e40159a-e1ba-4fa5-b349-ee5bc0644a22'
p280
(dp281
ssg90
(dp282
S'd446a04f-3e05-4363-bf48-610299ba0295'
p283
g177
ssg94
(dp284
S'7afd3c5e-8602-450d-878f-85b9694fda4f'
p285
g170
sS'c82f48b1-c8e8-4f39-b4b4-6d15e483270f'
p286
(dp287
ssg98
(dp288
S'4a7b82bb-1426-4911-98a5-0861edaf6028'
p289
g192
sS'23c7304d-7468-4827-a0f4-4dbe9ee81172'
p290
(dp291
ssg102
(dp292
S'4851d464-5652-4513-9d4d-cf2eb0ca13c4'
p293
(dp294
sS'3f068027-81bd-4013-a2a8-cabcb5ebad5a'
p295
g269
sS'e6e50a34-1359-4e06-b13b-0465995f4a82'
p296
g219
sS'180e3c90-d8ef-41b2-b6f5-c7b3243d1572'
p297
g214
sS'6af965b0-7ea3-4d04-858d-1c6f42f31105'
p298
(dp299
sS'ab938466-33a6-4f65-a0fa-09387db4918f'
p300
g208
sS'e77d5515-d3cb-4fba-93ad-50aa60a0b723'
p301
(dp302
ssg106
(dp303
S'be087486-277a-404f-b03b-7253caeb768b'
p304
g232
sS'b4c3dcf4-6c58-44d5-9636-ac9333e54de0'
p305
(dp306
ssg110
(dp307
S'be087486-277a-404f-b03b-7253caeb768b'
p308
g234
sS'b4c3dcf4-6c58-44d5-9636-ac9333e54de0'
p309
(dp310
ssg114
(dp311
S'c22fe8c6-f40e-4cf6-b2bf-d2a101357ad9'
p312
(dp313
sS'c43bc121-501f-4fe5-ad30-80cde6b2a326'
p314
g200
sS'6f8725d5-b572-4eec-ace4-a04b6efe09b5'
p315
g302
ssg118
(dp316
S'61936c3d-ffca-486c-9733-98f01922a258'
p317
g253
sS'4028263d-bb1a-4a1e-a660-6c0f7c3e7b24'
p318
(dp319
ssg122
(dp320
S'6f8725d5-b572-4eec-ace4-a04b6efe09b5'
p321
g294
ssg126
(dp322
S'2b438a03-5802-4e04-85ac-6b4717438f3c'
p323
(dp324
sS'687b5821-d1fe-4b61-b39c-2705a87b92b6'
p325
g287
sS'3f068027-81bd-4013-a2a8-cabcb5ebad5a'
p326
g264
ssg130
(dp327
S'7afd3c5e-8602-450d-878f-85b9694fda4f'
p328
g168
sS'c82f48b1-c8e8-4f39-b4b4-6d15e483270f'
p329
g324
ssg134
(dp330
S'3f068027-81bd-4013-a2a8-cabcb5ebad5a'
p331
g275
ssg138
(dp332
S'0fd49c38-da52-496b-9f31-a18e3261b9e4'
p333
g225
sS'6f8725d5-b572-4eec-ace4-a04b6efe09b5'
p334
g299
sS'5ebcfd1c-2ee5-46ce-8edd-fa28f49ea76b'
p335
g229
ssg142
(dp336
S'076a98f2-6145-4c93-9908-c1f776b97607'
p337
g306
sS'129a7c48-a4d0-4610-af20-5d0790ac8e50'
p338
g310
sS'3f068027-81bd-4013-a2a8-cabcb5ebad5a'
p339
g277
ssg146
(dp340
S'511c22ae-e1e1-41ab-be10-271ef26aaef9'
p341
g291
sS'3f068027-81bd-4013-a2a8-cabcb5ebad5a'
p342
g272
ssg150
(dp343
S'e77d5515-d3cb-4fba-93ad-50aa60a0b723'
p344
g313
sS'ab938466-33a6-4f65-a0fa-09387db4918f'
p345
g205
ssg154
(dp346
S'd446a04f-3e05-4363-bf48-610299ba0295'
p347
g183
sS'2fd48f04-438a-44bc-81ee-41b9a4bb2694'
p348
g281
sS'de3f0297-0c5e-4485-8ab6-d6a4080d1ebc'
p349
g259
ssg158
(dp350
S'9e85148d-6c2d-416a-92a0-1cf0b78a5c5a'
p351
g319
sS'30c9a58a-f1b6-4c52-93ad-706779b89273'
p352
g241
sS'd446a04f-3e05-4363-bf48-610299ba0295'
p353
g187
sssS'adj'
p354
g165
sb.