ccopy_reg
_reconstructor
p0
(cnetworkx.classes.graph
Graph
p1
c__builtin__
object
p2
Ntp3
Rp4
(dp5
S'node'
p6
(dp7
S'8b5f79f2-3406-4095-b7b8-67b96bf454d3'
p8
(dp9
S'type'
p10
S'E'
p11
sS'label'
p12
S'STAIRS'
p13
ssS'b235c077-5de6-4bf8-937e-f44e8b2cbcb8'
p14
(dp15
g10
S'R'
p16
sg12
S'GYM'
p17
ssS'7e42c82c-60d9-46a3-b141-0086bb224aa4'
p18
(dp19
g10
S'R'
p20
sg12
S'CANTEEN'
p21
ssS'266e3423-defe-4012-8ec8-1bd5110df65f'
p22
(dp23
g10
S'R'
p24
sg12
S'BATHROOM'
p25
ssS'65072290-4c8d-462e-990f-0f56d70241d7'
p26
(dp27
g10
S'C'
p28
sg12
S'CORRIDOR'
p29
ssS'b8f9e99d-375e-4149-82fa-b8a7f58d018b'
p30
(dp31
g10
S'E'
p32
sg12
S'ENTRANCE'
p33
ssS'7b992219-3632-44dd-a6b4-ac1db92b0fa1'
p34
(dp35
g10
S'C'
p36
sg12
S'CORRIDOR'
p37
ssS'7ccf07aa-56d1-4b15-b3a8-4f4f4f369fcf'
p38
(dp39
g10
S'E'
p40
sg12
S'STAIRS'
p41
ssS'a9e982ee-0afb-4e02-991b-6e546c341f6f'
p42
(dp43
g10
S'R'
p44
sg12
S'BIG SERVICE'
p45
ssS'aa7282f6-6412-421e-8e09-ad6a6d368634'
p46
(dp47
g10
S'R'
p48
sg12
S'SMALL'
p49
ssS'b52f6870-3f91-4d45-a530-a534aa01e3af'
p50
(dp51
g10
S'C'
p52
sg12
S'WASHROOM'
p53
ssS'f2804d31-3206-4ff8-9397-c6f588c540b6'
p54
(dp55
g10
S'R'
p56
sg12
S'SMALL'
p57
ssS'82ae9549-88a3-4a53-80b9-114c860a1936'
p58
(dp59
g10
S'R'
p60
sg12
S'SMALL'
p61
ssS'f42cea75-cbb9-4157-b42e-710833195d49'
p62
(dp63
g10
S'R'
p64
sg12
S'BATHROOM'
p65
ssS'a31a0eb0-e6d0-49f4-b5f3-ff809a8f9f70'
p66
(dp67
g10
S'R'
p68
sg12
S'SMALL ADMINISTRATIVE'
p69
ssS'220b5c96-0094-4fe6-949b-434a948e0af5'
p70
(dp71
g10
S'R'
p72
sg12
S'SMALL'
p73
ssS'633baab6-357e-4481-b63d-ea6afd81640e'
p74
(dp75
g10
S'R'
p76
sg12
S'CLOSET'
p77
ssS'940e42ff-a4d5-4bf1-a3b0-f4f742f7cc69'
p78
(dp79
g10
S'R'
p80
sg12
S'CLOSET'
p81
ssS'b4e1d41a-51de-4d12-b936-27046392401e'
p82
(dp83
g10
S'E'
p84
sg12
S'STAIRS'
p85
ssS'16e80674-4447-4314-b2c1-9e5ee197c470'
p86
(dp87
g10
S'R'
p88
sg12
S'SMALL'
p89
ssS'd641d3d6-b66d-4458-90e4-810a8d12b347'
p90
(dp91
g10
S'R'
p92
sg12
S'CLASSROOM'
p93
ssS'd4acc01b-f151-4796-badb-36e59d329702'
p94
(dp95
g10
S'R'
p96
sg12
S'SMALL'
p97
ssS'1ca1a8e7-b1e9-4e4a-b646-4f39835c3aa8'
p98
(dp99
g10
S'R'
p100
sg12
S'CLOSET'
p101
ssS'bde26966-cc8a-4f38-80ec-8d0af5d4d516'
p102
(dp103
g10
S'C'
p104
sg12
S'CORRIDOR'
p105
ssS'6db9c252-877d-4f61-86ff-7b35c0fe042d'
p106
(dp107
g10
S'R'
p108
sg12
S'SMALL'
p109
ssS'bbada163-629e-46a4-99a4-be5d6d208062'
p110
(dp111
g10
S'R'
p112
sg12
S'SMALL ADMINISTRATIVE'
p113
ssS'7ed0d86a-0257-498e-8011-7a0e83a2393c'
p114
(dp115
g10
S'R'
p116
sg12
S'MEDIUM SERVICE'
p117
ssS'ccbe52d8-cd22-4960-9220-56a18228bd13'
p118
(dp119
g10
S'R'
p120
sg12
S'MEDIUM'
p121
ssS'b99fdda6-b712-484b-95cf-6f259bda8893'
p122
(dp123
g10
S'R'
p124
sg12
S'CLASSROOM'
p125
ssS'0b8aabdf-8b25-4c9c-924d-ff5018867f76'
p126
(dp127
g10
S'R'
p128
sg12
S'BATHROOM'
p129
ssS'd8180ba0-d27b-4c55-9dd6-4d307d85962a'
p130
(dp131
g10
S'R'
p132
sg12
S'CLOSET'
p133
ssS'67fc1fc2-c06a-4235-a7ba-33c1e00435fe'
p134
(dp135
g10
S'R'
p136
sg12
S'BATHROOM'
p137
ssS'681997f9-dd31-4fab-b8e3-892992e62c65'
p138
(dp139
g10
S'R'
p140
sg12
S'SMALL'
p141
ssS'07e0b0bd-e13a-4b2d-a893-2ae4015c9f0d'
p142
(dp143
g10
S'R'
p144
sg12
S'BATHROOM'
p145
ssS'8e58e739-12fc-4c60-97b9-124f68a27f89'
p146
(dp147
g10
S'R'
p148
sg12
S'CLASSROOM'
p149
ssS'ce4343c6-c9db-45f7-b26e-945cb3265750'
p150
(dp151
g10
S'R'
p152
sg12
S'SMALL'
p153
ssS'e8957482-ac0b-4d2b-bed3-79b24229ee4c'
p154
(dp155
g10
S'R'
p156
sg12
S'CLASSROOM'
p157
ssS'f7b4c976-b1c3-4fb6-83e3-dab8ef880e19'
p158
(dp159
g10
S'R'
p160
sg12
S'CLASSROOM'
p161
ssS'44cabd54-5676-4649-9284-bcb6af9f476a'
p162
(dp163
g10
S'R'
p164
sg12
S'CLOSET'
p165
ssS'9905c97f-28ad-44b3-926b-dcc510ffae3e'
p166
(dp167
g10
S'R'
p168
sg12
S'CLOSET'
p169
ssS'd80fea7e-aa6f-4b70-a802-204f59d5887b'
p170
(dp171
g10
S'C'
p172
sg12
S'CORRIDOR'
p173
ssS'7c3ea991-4d34-4f91-a75a-98cdec9fe253'
p174
(dp175
g10
S'R'
p176
sg12
S'CLOSET'
p177
ssS'7c492466-d27f-4750-8fa0-cb64152b26da'
p178
(dp179
g10
S'R'
p180
sg12
S'MEDIUM'
p181
ssS'e16bf109-9803-4c22-8d10-35e9f2c0f1ee'
p182
(dp183
g10
S'R'
p184
sg12
S'BATHROOM'
p185
ssS'834f3c7b-7b51-46fb-a55d-ee18cb87131d'
p186
(dp187
g10
S'R'
p188
sg12
S'MEDIUM SERVICE'
p189
ssS'b3b2c513-3be1-4ad4-8496-8a04b6728101'
p190
(dp191
g10
S'R'
p192
sg12
S'CLASSROOM'
p193
ssS'72cef4dd-4cab-4d5f-8817-c7bfa0e09493'
p194
(dp195
g10
S'R'
p196
sg12
S'BATHROOM'
p197
ssS'c705dfc5-742e-4232-a06d-987b8c37b2ec'
p198
(dp199
g10
S'R'
p200
sg12
S'SMALL'
p201
ssS'fff3149c-a50d-4a81-8b1a-9168ae29c856'
p202
(dp203
g10
S'C'
p204
sg12
S'WASHROOM'
p205
ssS'21e6c835-57f5-4540-b9ba-dee6f5ce46d6'
p206
(dp207
g10
S'R'
p208
sg12
S'MEDIUM'
p209
ssS'50855a6b-6ba4-4ae8-9d4f-5dd3201ce263'
p210
(dp211
g10
S'R'
p212
sg12
S'SMALL'
p213
ssS'dc2b8cf0-2d14-40e4-b8a0-ca4d2ea867ec'
p214
(dp215
g10
S'R'
p216
sg12
S'SMALL ADMINISTRATIVE'
p217
ssS'74d34b00-7655-435f-9c5d-81389daae77c'
p218
(dp219
g10
S'R'
p220
sg12
S'MEDIUM SERVICE'
p221
ssS'841f529f-3f57-40cc-8616-6096104eb9f7'
p222
(dp223
g10
S'R'
p224
sg12
S'MEDIUM SERVICE'
p225
ssS'ef172a85-b5c2-414f-b4b4-c976e6c914fe'
p226
(dp227
g10
S'R'
p228
sg12
S'CLOSET'
p229
ssS'aa04290d-ab5a-4ce9-a11b-ed2285491a60'
p230
(dp231
g10
S'R'
p232
sg12
S'MEDIUM SERVICE'
p233
ssS'199f8a9a-746b-4f69-b893-ebc4946ee4a8'
p234
(dp235
g10
S'C'
p236
sg12
S'WASHROOM'
p237
ssS'111dd040-e974-4587-8352-0f3b6e764927'
p238
(dp239
g10
S'R'
p240
sg12
S'CLOSET'
p241
ssS'89a50d17-fcc3-45d1-989f-f4c0d2ab4c6f'
p242
(dp243
g10
S'R'
p244
sg12
S'CLASSROOM'
p245
ssS'8e03aa4d-c0e3-4f12-9dec-1b5789777e7d'
p246
(dp247
g10
S'C'
p248
sg12
S'CORRIDOR'
p249
ssS'1351020d-09c6-4894-9f1e-d9b84bb106f0'
p250
(dp251
g10
S'R'
p252
sg12
S'KITCHEN'
p253
ssS'bf98c7fb-a7dc-42c4-8e7b-a519a6c6769e'
p254
(dp255
g10
S'R'
p256
sg12
S'CLOSET'
p257
ssS'9c9e308f-983d-421f-ba74-c43687dd32c1'
p258
(dp259
g10
S'R'
p260
sg12
S'SMALL'
p261
ssS'837f3e97-4d77-43d1-9ff3-1b944b706063'
p262
(dp263
g10
S'R'
p264
sg12
S'BIG SERVICE'
p265
ssS'89d4f186-7f10-40e5-9cae-e04d426f9672'
p266
(dp267
g10
S'R'
p268
sg12
S'CLOSET'
p269
ssS'6833f6e7-22e0-4da2-ab99-5d91cee4aa09'
p270
(dp271
g10
S'R'
p272
sg12
S'CLOSET'
p273
ssS'14c2f662-288b-4e94-94d1-85397d976249'
p274
(dp275
g10
S'C'
p276
sg12
S'CORRIDOR'
p277
ssS'9b0b023c-525f-41bd-b7a0-1ebb5d0cc26c'
p278
(dp279
g10
S'C'
p280
sg12
S'CORRIDOR'
p281
ssS'eabd2347-3cfb-40fa-9e60-e050f7d9d4fd'
p282
(dp283
g10
S'R'
p284
sg12
S'SMALL'
p285
ssS'3f4b3c34-69b5-4207-b965-dd4aa3a0ecc2'
p286
(dp287
g10
S'C'
p288
sg12
S'LOBBY'
p289
ssS'9a0b9fbc-fe10-4c89-9461-e9dba5ba87b1'
p290
(dp291
g10
S'R'
p292
sg12
S'BIG SERVICE'
p293
ssS'8efa3bbb-6daf-4646-b438-5730e2b08ef1'
p294
(dp295
g10
S'R'
p296
sg12
S'BATHROOM'
p297
ssS'eec3b638-358b-4000-93d3-f0ced02f72b7'
p298
(dp299
g10
S'R'
p300
sg12
S'BATHROOM'
p301
ssS'598b4487-dbb8-466e-b790-b5414137532b'
p302
(dp303
g10
S'R'
p304
sg12
S'CLOSET'
p305
ssS'774bd928-e172-4aea-8f99-7f31e3255574'
p306
(dp307
g10
S'R'
p308
sg12
S'CLOSET'
p309
ssS'ee687fef-5cf8-4ad6-a0a4-bc1a98d2a437'
p310
(dp311
g10
S'C'
p312
sg12
S'WASHROOM'
p313
ssS'a6bf4f74-0366-4be2-8d0c-16244271345b'
p314
(dp315
g10
S'R'
p316
sg12
S'CLASSROOM'
p317
ssS'3966fac0-fce0-4510-b0ee-730a2524e18c'
p318
(dp319
g10
S'R'
p320
sg12
S'BIG SERVICE'
p321
ssS'12857511-dfa1-453d-90bc-89902388f995'
p322
(dp323
g10
S'R'
p324
sg12
S'CLOSET'
p325
ssS'8488a1d0-7dca-4371-a661-ef9270a6aae8'
p326
(dp327
g10
S'C'
p328
sg12
S'LOBBY'
p329
sssS'graph'
p330
(dp331
sS'edge'
p332
(dp333
g8
(dp334
S'3f4b3c34-69b5-4207-b965-dd4aa3a0ecc2'
p335
(dp336
ssg14
(dp337
S'bbada163-629e-46a4-99a4-be5d6d208062'
p338
(dp339
sS'9b0b023c-525f-41bd-b7a0-1ebb5d0cc26c'
p340
(dp341
ssg18
(dp342
S'65072290-4c8d-462e-990f-0f56d70241d7'
p343
(dp344
sS'9b0b023c-525f-41bd-b7a0-1ebb5d0cc26c'
p345
(dp346
ssg22
(dp347
S'f7b4c976-b1c3-4fb6-83e3-dab8ef880e19'
p348
(dp349
ssg26
(dp350
S'1351020d-09c6-4894-9f1e-d9b84bb106f0'
p351
(dp352
sS'7e42c82c-60d9-46a3-b141-0086bb224aa4'
p353
g344
sS'dc2b8cf0-2d14-40e4-b8a0-ca4d2ea867ec'
p354
(dp355
sS'a31a0eb0-e6d0-49f4-b5f3-ff809a8f9f70'
p356
(dp357
sS'774bd928-e172-4aea-8f99-7f31e3255574'
p358
(dp359
sS'44cabd54-5676-4649-9284-bcb6af9f476a'
p360
(dp361
ssg30
(dp362
S'3f4b3c34-69b5-4207-b965-dd4aa3a0ecc2'
p363
(dp364
sS'8488a1d0-7dca-4371-a661-ef9270a6aae8'
p365
(dp366
ssg34
(dp367
S'bde26966-cc8a-4f38-80ec-8d0af5d4d516'
p368
(dp369
sS'bf98c7fb-a7dc-42c4-8e7b-a519a6c6769e'
p370
(dp371
sS'50855a6b-6ba4-4ae8-9d4f-5dd3201ce263'
p372
(dp373
sS'14c2f662-288b-4e94-94d1-85397d976249'
p374
(dp375
sS'd80fea7e-aa6f-4b70-a802-204f59d5887b'
p376
(dp377
sS'82ae9549-88a3-4a53-80b9-114c860a1936'
p378
(dp379
ssg38
(dp380
S'bde26966-cc8a-4f38-80ec-8d0af5d4d516'
p381
(dp382
ssg42
(dp383
S'940e42ff-a4d5-4bf1-a3b0-f4f742f7cc69'
p384
(dp385
sS'9b0b023c-525f-41bd-b7a0-1ebb5d0cc26c'
p386
(dp387
ssg46
(dp388
S'14c2f662-288b-4e94-94d1-85397d976249'
p389
(dp390
ssg50
(dp391
S'9b0b023c-525f-41bd-b7a0-1ebb5d0cc26c'
p392
(dp393
ssg54
(dp394
S'14c2f662-288b-4e94-94d1-85397d976249'
p395
(dp396
ssg58
(dp397
S'7b992219-3632-44dd-a6b4-ac1db92b0fa1'
p398
g379
ssg62
(dp399
S'14c2f662-288b-4e94-94d1-85397d976249'
p400
(dp401
ssg66
(dp402
S'65072290-4c8d-462e-990f-0f56d70241d7'
p403
g357
ssg70
(dp404
S'bde26966-cc8a-4f38-80ec-8d0af5d4d516'
p405
(dp406
ssg74
(dp407
S'74d34b00-7655-435f-9c5d-81389daae77c'
p408
(dp409
ssg78
(dp410
S'a9e982ee-0afb-4e02-991b-6e546c341f6f'
p411
g385
sS'9b0b023c-525f-41bd-b7a0-1ebb5d0cc26c'
p412
(dp413
ssg82
(dp414
S'bde26966-cc8a-4f38-80ec-8d0af5d4d516'
p415
(dp416
ssg86
(dp417
S'bde26966-cc8a-4f38-80ec-8d0af5d4d516'
p418
(dp419
sS'14c2f662-288b-4e94-94d1-85397d976249'
p420
(dp421
ssg90
(dp422
S'bde26966-cc8a-4f38-80ec-8d0af5d4d516'
p423
(dp424
sS'21e6c835-57f5-4540-b9ba-dee6f5ce46d6'
p425
(dp426
sS'12857511-dfa1-453d-90bc-89902388f995'
p427
(dp428
ssg94
(dp429
S'774bd928-e172-4aea-8f99-7f31e3255574'
p430
(dp431
ssg98
(dp432
S'89a50d17-fcc3-45d1-989f-f4c0d2ab4c6f'
p433
(dp434
sS'a6bf4f74-0366-4be2-8d0c-16244271345b'
p435
(dp436
ssg102
(dp437
S'd641d3d6-b66d-4458-90e4-810a8d12b347'
p438
g424
sS'f7b4c976-b1c3-4fb6-83e3-dab8ef880e19'
p439
(dp440
sS'b4e1d41a-51de-4d12-b936-27046392401e'
p441
g416
sS'7ccf07aa-56d1-4b15-b3a8-4f4f4f369fcf'
p442
g382
sS'7ed0d86a-0257-498e-8011-7a0e83a2393c'
p443
(dp444
sS'b99fdda6-b712-484b-95cf-6f259bda8893'
p445
(dp446
sS'220b5c96-0094-4fe6-949b-434a948e0af5'
p447
g406
sS'3f4b3c34-69b5-4207-b965-dd4aa3a0ecc2'
p448
(dp449
sS'681997f9-dd31-4fab-b8e3-892992e62c65'
p450
(dp451
sS'8e58e739-12fc-4c60-97b9-124f68a27f89'
p452
(dp453
sS'7b992219-3632-44dd-a6b4-ac1db92b0fa1'
p454
g369
sS'74d34b00-7655-435f-9c5d-81389daae77c'
p455
(dp456
sS'841f529f-3f57-40cc-8616-6096104eb9f7'
p457
(dp458
sS'ee687fef-5cf8-4ad6-a0a4-bc1a98d2a437'
p459
(dp460
sS'89a50d17-fcc3-45d1-989f-f4c0d2ab4c6f'
p461
(dp462
sS'a6bf4f74-0366-4be2-8d0c-16244271345b'
p463
(dp464
sS'b3b2c513-3be1-4ad4-8496-8a04b6728101'
p465
(dp466
sS'16e80674-4447-4314-b2c1-9e5ee197c470'
p467
g419
sS'eabd2347-3cfb-40fa-9e60-e050f7d9d4fd'
p468
(dp469
ssg106
(dp470
S'c705dfc5-742e-4232-a06d-987b8c37b2ec'
p471
(dp472
ssg110
(dp473
S'b235c077-5de6-4bf8-937e-f44e8b2cbcb8'
p474
g339
ssg114
(dp475
S'bde26966-cc8a-4f38-80ec-8d0af5d4d516'
p476
g444
sS'7c3ea991-4d34-4f91-a75a-98cdec9fe253'
p477
(dp478
sS'8efa3bbb-6daf-4646-b438-5730e2b08ef1'
p479
(dp480
ssg118
(dp481
S'89a50d17-fcc3-45d1-989f-f4c0d2ab4c6f'
p482
(dp483
sS'a6bf4f74-0366-4be2-8d0c-16244271345b'
p484
(dp485
ssg122
(dp486
S'89d4f186-7f10-40e5-9cae-e04d426f9672'
p487
(dp488
sS'bde26966-cc8a-4f38-80ec-8d0af5d4d516'
p489
g446
sS'7c492466-d27f-4750-8fa0-cb64152b26da'
p490
(dp491
ssg126
(dp492
S'9905c97f-28ad-44b3-926b-dcc510ffae3e'
p493
(dp494
ssg130
(dp495
S'1351020d-09c6-4894-9f1e-d9b84bb106f0'
p496
(dp497
ssg134
(dp498
S'9b0b023c-525f-41bd-b7a0-1ebb5d0cc26c'
p499
(dp500
ssg138
(dp501
S'bde26966-cc8a-4f38-80ec-8d0af5d4d516'
p502
g451
ssg142
(dp503
S'b3b2c513-3be1-4ad4-8496-8a04b6728101'
p504
(dp505
ssg146
(dp506
S'bde26966-cc8a-4f38-80ec-8d0af5d4d516'
p507
g453
sS'21e6c835-57f5-4540-b9ba-dee6f5ce46d6'
p508
(dp509
sS'12857511-dfa1-453d-90bc-89902388f995'
p510
(dp511
ssg150
(dp512
S'14c2f662-288b-4e94-94d1-85397d976249'
p513
(dp514
sS'72cef4dd-4cab-4d5f-8817-c7bfa0e09493'
p515
(dp516
ssg154
(dp517
S'89d4f186-7f10-40e5-9cae-e04d426f9672'
p518
(dp519
sS'7c492466-d27f-4750-8fa0-cb64152b26da'
p520
(dp521
ssg158
(dp522
S'ef172a85-b5c2-414f-b4b4-c976e6c914fe'
p523
(dp524
sS'bde26966-cc8a-4f38-80ec-8d0af5d4d516'
p525
g440
sS'b3b2c513-3be1-4ad4-8496-8a04b6728101'
p526
(dp527
sS'266e3423-defe-4012-8ec8-1bd5110df65f'
p528
g349
ssg162
(dp529
S'65072290-4c8d-462e-990f-0f56d70241d7'
p530
g361
ssg166
(dp531
S'1351020d-09c6-4894-9f1e-d9b84bb106f0'
p532
(dp533
sS'0b8aabdf-8b25-4c9c-924d-ff5018867f76'
p534
g494
ssg170
(dp535
S'8e03aa4d-c0e3-4f12-9dec-1b5789777e7d'
p536
(dp537
sS'3966fac0-fce0-4510-b0ee-730a2524e18c'
p538
(dp539
sS'7b992219-3632-44dd-a6b4-ac1db92b0fa1'
p540
g377
sS'8488a1d0-7dca-4371-a661-ef9270a6aae8'
p541
(dp542
ssg174
(dp543
S'7ed0d86a-0257-498e-8011-7a0e83a2393c'
p544
g478
ssg178
(dp545
S'e8957482-ac0b-4d2b-bed3-79b24229ee4c'
p546
g521
sS'b99fdda6-b712-484b-95cf-6f259bda8893'
p547
g491
ssg182
(dp548
S'14c2f662-288b-4e94-94d1-85397d976249'
p549
(dp550
ssg186
(dp551
S'9b0b023c-525f-41bd-b7a0-1ebb5d0cc26c'
p552
(dp553
ssg190
(dp554
S'598b4487-dbb8-466e-b790-b5414137532b'
p555
(dp556
sS'3f4b3c34-69b5-4207-b965-dd4aa3a0ecc2'
p557
(dp558
sS'07e0b0bd-e13a-4b2d-a893-2ae4015c9f0d'
p559
g505
sS'bde26966-cc8a-4f38-80ec-8d0af5d4d516'
p560
g466
sS'f7b4c976-b1c3-4fb6-83e3-dab8ef880e19'
p561
g527
ssg194
(dp562
S'ce4343c6-c9db-45f7-b26e-945cb3265750'
p563
g516
ssg198
(dp564
S'6db9c252-877d-4f61-86ff-7b35c0fe042d'
p565
g472
sS'14c2f662-288b-4e94-94d1-85397d976249'
p566
(dp567
ssg202
(dp568
S'841f529f-3f57-40cc-8616-6096104eb9f7'
p569
(dp570
sS'74d34b00-7655-435f-9c5d-81389daae77c'
p571
(dp572
ssg206
(dp573
S'd641d3d6-b66d-4458-90e4-810a8d12b347'
p574
g426
sS'8e58e739-12fc-4c60-97b9-124f68a27f89'
p575
g509
ssg210
(dp576
S'7b992219-3632-44dd-a6b4-ac1db92b0fa1'
p577
g373
ssg214
(dp578
S'65072290-4c8d-462e-990f-0f56d70241d7'
p579
g355
ssg218
(dp580
S'3f4b3c34-69b5-4207-b965-dd4aa3a0ecc2'
p581
(dp582
sS'633baab6-357e-4481-b63d-ea6afd81640e'
p583
g409
sS'bde26966-cc8a-4f38-80ec-8d0af5d4d516'
p584
g456
sS'fff3149c-a50d-4a81-8b1a-9168ae29c856'
p585
g572
ssg222
(dp586
S'bde26966-cc8a-4f38-80ec-8d0af5d4d516'
p587
g458
sS'8efa3bbb-6daf-4646-b438-5730e2b08ef1'
p588
(dp589
sS'fff3149c-a50d-4a81-8b1a-9168ae29c856'
p590
g570
ssg226
(dp591
S'f7b4c976-b1c3-4fb6-83e3-dab8ef880e19'
p592
g524
ssg230
(dp593
S'111dd040-e974-4587-8352-0f3b6e764927'
p594
(dp595
sS'8488a1d0-7dca-4371-a661-ef9270a6aae8'
p596
(dp597
sS'eec3b638-358b-4000-93d3-f0ced02f72b7'
p598
(dp599
ssg234
(dp600
S'9b0b023c-525f-41bd-b7a0-1ebb5d0cc26c'
p601
(dp602
ssg238
(dp603
S'aa04290d-ab5a-4ce9-a11b-ed2285491a60'
p604
g595
ssg242
(dp605
S'bde26966-cc8a-4f38-80ec-8d0af5d4d516'
p606
g462
sS'1ca1a8e7-b1e9-4e4a-b646-4f39835c3aa8'
p607
g434
sS'ccbe52d8-cd22-4960-9220-56a18228bd13'
p608
g483
ssg246
(dp609
S'9b0b023c-525f-41bd-b7a0-1ebb5d0cc26c'
p610
(dp611
sS'd80fea7e-aa6f-4b70-a802-204f59d5887b'
p612
g537
ssg250
(dp613
S'd8180ba0-d27b-4c55-9dd6-4d307d85962a'
p614
g497
sS'9905c97f-28ad-44b3-926b-dcc510ffae3e'
p615
g533
sS'65072290-4c8d-462e-990f-0f56d70241d7'
p616
g352
ssg254
(dp617
S'7b992219-3632-44dd-a6b4-ac1db92b0fa1'
p618
g371
ssg258
(dp619
S'3966fac0-fce0-4510-b0ee-730a2524e18c'
p620
(dp621
ssg262
(dp622
S'9a0b9fbc-fe10-4c89-9461-e9dba5ba87b1'
p623
(dp624
sS'3966fac0-fce0-4510-b0ee-730a2524e18c'
p625
(dp626
ssg266
(dp627
S'e8957482-ac0b-4d2b-bed3-79b24229ee4c'
p628
g519
sS'b99fdda6-b712-484b-95cf-6f259bda8893'
p629
g488
ssg270
(dp630
S'14c2f662-288b-4e94-94d1-85397d976249'
p631
(dp632
ssg274
(dp633
S'e16bf109-9803-4c22-8d10-35e9f2c0f1ee'
p634
g550
sS'6833f6e7-22e0-4da2-ab99-5d91cee4aa09'
p635
g632
sS'ce4343c6-c9db-45f7-b26e-945cb3265750'
p636
g514
sS'7b992219-3632-44dd-a6b4-ac1db92b0fa1'
p637
g375
sS'f2804d31-3206-4ff8-9397-c6f588c540b6'
p638
g396
sS'c705dfc5-742e-4232-a06d-987b8c37b2ec'
p639
g567
sS'f42cea75-cbb9-4157-b42e-710833195d49'
p640
g401
sS'aa7282f6-6412-421e-8e09-ad6a6d368634'
p641
g390
sS'16e80674-4447-4314-b2c1-9e5ee197c470'
p642
g421
sS'8488a1d0-7dca-4371-a661-ef9270a6aae8'
p643
(dp644
ssg278
(dp645
S'199f8a9a-746b-4f69-b893-ebc4946ee4a8'
p646
g602
sS'b235c077-5de6-4bf8-937e-f44e8b2cbcb8'
p647
g341
sS'7e42c82c-60d9-46a3-b141-0086bb224aa4'
p648
g346
sS'834f3c7b-7b51-46fb-a55d-ee18cb87131d'
p649
g553
sS'a9e982ee-0afb-4e02-991b-6e546c341f6f'
p650
g387
sS'67fc1fc2-c06a-4235-a7ba-33c1e00435fe'
p651
g500
sS'b52f6870-3f91-4d45-a530-a534aa01e3af'
p652
g393
sS'8488a1d0-7dca-4371-a661-ef9270a6aae8'
p653
(dp654
sS'8e03aa4d-c0e3-4f12-9dec-1b5789777e7d'
p655
g611
sS'940e42ff-a4d5-4bf1-a3b0-f4f742f7cc69'
p656
g413
ssg282
(dp657
S'bde26966-cc8a-4f38-80ec-8d0af5d4d516'
p658
g469
ssg286
(dp659
S'8b5f79f2-3406-4095-b7b8-67b96bf454d3'
p660
g336
sS'b3b2c513-3be1-4ad4-8496-8a04b6728101'
p661
g558
sS'bde26966-cc8a-4f38-80ec-8d0af5d4d516'
p662
g449
sS'b8f9e99d-375e-4149-82fa-b8a7f58d018b'
p663
g364
sS'74d34b00-7655-435f-9c5d-81389daae77c'
p664
g582
ssg290
(dp665
S'837f3e97-4d77-43d1-9ff3-1b944b706063'
p666
g624
sS'3966fac0-fce0-4510-b0ee-730a2524e18c'
p667
(dp668
ssg294
(dp669
S'841f529f-3f57-40cc-8616-6096104eb9f7'
p670
g589
sS'7ed0d86a-0257-498e-8011-7a0e83a2393c'
p671
g480
ssg298
(dp672
S'aa04290d-ab5a-4ce9-a11b-ed2285491a60'
p673
g599
ssg302
(dp674
S'b3b2c513-3be1-4ad4-8496-8a04b6728101'
p675
g556
ssg306
(dp676
S'd4acc01b-f151-4796-badb-36e59d329702'
p677
g431
sS'65072290-4c8d-462e-990f-0f56d70241d7'
p678
g359
ssg310
(dp679
S'bde26966-cc8a-4f38-80ec-8d0af5d4d516'
p680
g460
ssg314
(dp681
S'bde26966-cc8a-4f38-80ec-8d0af5d4d516'
p682
g464
sS'1ca1a8e7-b1e9-4e4a-b646-4f39835c3aa8'
p683
g436
sS'ccbe52d8-cd22-4960-9220-56a18228bd13'
p684
g485
ssg318
(dp685
S'837f3e97-4d77-43d1-9ff3-1b944b706063'
p686
g626
sS'9a0b9fbc-fe10-4c89-9461-e9dba5ba87b1'
p687
g668
sS'9c9e308f-983d-421f-ba74-c43687dd32c1'
p688
g621
sS'd80fea7e-aa6f-4b70-a802-204f59d5887b'
p689
g539
ssg322
(dp690
S'd641d3d6-b66d-4458-90e4-810a8d12b347'
p691
g428
sS'8e58e739-12fc-4c60-97b9-124f68a27f89'
p692
g511
ssg326
(dp693
S'b8f9e99d-375e-4149-82fa-b8a7f58d018b'
p694
g366
sS'9b0b023c-525f-41bd-b7a0-1ebb5d0cc26c'
p695
g654
sS'14c2f662-288b-4e94-94d1-85397d976249'
p696
g644
sS'd80fea7e-aa6f-4b70-a802-204f59d5887b'
p697
g542
sS'aa04290d-ab5a-4ce9-a11b-ed2285491a60'
p698
g597
sssS'adj'
p699
g333
sb.