ccopy_reg
_reconstructor
p0
(cnetworkx.classes.graph
Graph
p1
c__builtin__
object
p2
Ntp3
Rp4
(dp5
S'node'
p6
(dp7
S'938ee894-2176-456a-984a-2908cd59b48b'
p8
(dp9
S'type'
p10
S'C'
p11
sS'label'
p12
S'HALL'
p13
ssS'f10baec8-da46-4364-9358-6a628b882c19'
p14
(dp15
g10
S'R'
p16
sg12
S'MEDIUM ADMINISTRATIVE'
p17
ssS'71747ab6-fff7-4cf4-bfc1-f1962750e7eb'
p18
(dp19
g10
S'R'
p20
sg12
S'BIG ADMINISTRATIVE'
p21
ssS'65cb6edf-70c3-430a-ba75-6e702809a7c8'
p22
(dp23
g10
S'E'
p24
sg12
S'ENTRANCE'
p25
ssS'5684d967-9603-4c5b-b9d6-6479aae2d57a'
p26
(dp27
g10
S'E'
p28
sg12
S'STAIRS'
p29
ssS'9f4f911d-a4d7-4a9c-9191-11da072792dc'
p30
(dp31
g10
S'R'
p32
sg12
S'MEDIUM ADMINISTRATIVE'
p33
ssS'ee591a53-0e02-4583-a514-3efd247ced69'
p34
(dp35
g10
S'R'
p36
sg12
S'CLOSET'
p37
ssS'430d2ae1-79ab-4d19-964f-3f278cb14829'
p38
(dp39
g10
S'R'
p40
sg12
S'MEDIUM SERVICE'
p41
ssS'304d5ae9-e91f-4629-b0b2-373f653adeff'
p42
(dp43
g10
S'R'
p44
sg12
S'SMALL ADMINISTRATIVE'
p45
ssS'4943d7ed-c86f-4b04-b22a-5f8364e10b1d'
p46
(dp47
g10
S'C'
p48
sg12
S'CORRIDOR'
p49
ssS'b5076a53-c188-458c-babb-134a6ce613be'
p50
(dp51
g10
S'R'
p52
sg12
S'BIG ADMINISTRATIVE'
p53
ssS'0ebdedc7-293b-4cc6-9aee-e5a925b242b6'
p54
(dp55
g10
S'R'
p56
sg12
S'BATHROOM'
p57
ssS'4b96f51a-596c-460f-95c1-0632d899612c'
p58
(dp59
g10
S'E'
p60
sg12
S'ENTRANCE'
p61
ssS'd57562e0-08fe-4119-bb7a-05fac6dd2d09'
p62
(dp63
g10
S'C'
p64
sg12
S'WASHROOM'
p65
ssS'c6db3a4c-e710-4752-bf57-36cfae8150db'
p66
(dp67
g10
S'R'
p68
sg12
S'MEDIUM SERVICE'
p69
ssS'063e413d-8818-4cf7-a40a-689346f06230'
p70
(dp71
g10
S'E'
p72
sg12
S'ENTRANCE'
p73
ssS'db11ace0-65f3-4f29-94b5-3752dcb3c9c1'
p74
(dp75
g10
S'C'
p76
sg12
S'LOBBY'
p77
ssS'899646c0-3858-439a-9318-d875d8611393'
p78
(dp79
g10
S'R'
p80
sg12
S'MEDIUM SERVICE'
p81
ssS'26b45632-3963-426e-8da1-c828f9d4ca2a'
p82
(dp83
g10
S'C'
p84
sg12
S'WASHROOM'
p85
ssS'a7c9fb8a-d52d-4ec9-8751-6bc5237b6820'
p86
(dp87
g10
S'R'
p88
sg12
S'CLASSROOM'
p89
ssS'ff39228c-02f2-4f43-8aa5-b5d988a8ffbf'
p90
(dp91
g10
S'E'
p92
sg12
S'STAIRS'
p93
ssS'09d6ae20-7f6d-4b37-9db9-786d9f860486'
p94
(dp95
g10
S'R'
p96
sg12
S'CLOSET'
p97
ssS'49956562-c6ef-4e79-8484-d5c6443a59a3'
p98
(dp99
g10
S'R'
p100
sg12
S'SMALL ADMINISTRATIVE'
p101
ssS'05c9c71b-a849-4582-a8f9-7e76a3bffb7a'
p102
(dp103
g10
S'R'
p104
sg12
S'CLASSROOM'
p105
ssS'383b6b4e-4995-4f93-9d94-79a688ebc181'
p106
(dp107
g10
S'E'
p108
sg12
S'STAIRS'
p109
ssS'2cd8df36-f8ab-4e6a-9573-90b32fca4be6'
p110
(dp111
g10
S'R'
p112
sg12
S'KITCHEN'
p113
ssS'fd3cc9d2-c56d-4e49-8514-cc884ccef659'
p114
(dp115
g10
S'R'
p116
sg12
S'BIG ADMINISTRATIVE'
p117
ssS'9458456c-afca-4324-a46d-a6ec3dd747a0'
p118
(dp119
g10
S'R'
p120
sg12
S'MEDIUM SERVICE'
p121
ssS'18b3fefa-3cfd-42f1-a212-d33658aaa444'
p122
(dp123
g10
S'C'
p124
sg12
S'CORRIDOR'
p125
ssS'999aadf5-5e18-49cc-bd67-3e543008c472'
p126
(dp127
g10
S'R'
p128
sg12
S'KITCHEN'
p129
ssS'e3a946c0-9196-478f-93e4-ff74fb8c41cb'
p130
(dp131
g10
S'E'
p132
sg12
S'STAIRS'
p133
ssS'e5170b68-434d-4ab3-be7e-c77ae7046128'
p134
(dp135
g10
S'R'
p136
sg12
S'MEDIUM ADMINISTRATIVE'
p137
ssS'9cab5ac8-829e-48c6-a17a-caa80f64bf59'
p138
(dp139
g10
S'R'
p140
sg12
S'CLOSET'
p141
ssS'2181348f-d39c-409e-a105-77dda0ae11e1'
p142
(dp143
g10
S'R'
p144
sg12
S'CLASSROOM'
p145
ssS'a032810f-01cd-4b4c-b798-4263ae48613e'
p146
(dp147
g10
S'R'
p148
sg12
S'CLOSET'
p149
ssS'0f764a64-7892-484d-8e54-5030b744f4ea'
p150
(dp151
g10
S'E'
p152
sg12
S'ENTRANCE'
p153
ssS'5e065e71-3477-42cb-a641-514b65d65a0f'
p154
(dp155
g10
S'R'
p156
sg12
S'MEDIUM SERVICE'
p157
ssS'a8d00d74-efcb-422c-a57c-31204ad785b4'
p158
(dp159
g10
S'R'
p160
sg12
S'MEDIUM SERVICE'
p161
ssS'f2d1f4c9-0f20-4657-8b36-81080d323352'
p162
(dp163
g10
S'C'
p164
sg12
S'CORRIDOR'
p165
ssS'bc3a10e5-5241-4065-8511-939666183f43'
p166
(dp167
g10
S'R'
p168
sg12
S'MEDIUM SERVICE'
p169
ssS'41aaa5ec-c8eb-419f-a1e0-f10fea1eac15'
p170
(dp171
g10
S'E'
p172
sg12
S'STAIRS'
p173
ssS'483331cc-0745-452c-81ff-aff7f3c4cac0'
p174
(dp175
g10
S'R'
p176
sg12
S'CANTEEN'
p177
ssS'100d274f-94aa-4b0c-97d3-b732b163aa4d'
p178
(dp179
g10
S'R'
p180
sg12
S'CLOSET'
p181
ssS'3b6ccac5-4892-4e1a-854b-d4675d1e21f8'
p182
(dp183
g10
S'C'
p184
sg12
S'WASHROOM'
p185
ssS'aadabf24-1f7a-4438-8cfa-1f9c84b54055'
p186
(dp187
g10
S'E'
p188
sg12
S'STAIRS'
p189
ssS'97b8f28d-a6b3-4ac4-b9c0-00c50d2c9998'
p190
(dp191
g10
S'R'
p192
sg12
S'MEDIUM SERVICE'
p193
ssS'e21c4cf6-d4c8-429c-bc93-e48bfb751073'
p194
(dp195
g10
S'R'
p196
sg12
S'MEDIUM SERVICE'
p197
ssS'1bcab8b3-26fb-45fe-8e82-f5c86d20f1fd'
p198
(dp199
g10
S'C'
p200
sg12
S'HALL'
p201
ssS'71bf7d95-b9fd-4620-9e98-5f6f5c00949d'
p202
(dp203
g10
S'E'
p204
sg12
S'ELEVATOR'
p205
ssS'7e147ae4-bfc8-4544-b40b-d45d174cd0d2'
p206
(dp207
g10
S'R'
p208
sg12
S'MEDIUM SERVICE'
p209
ssS'30972d19-399f-4f96-b687-d20a3f66973d'
p210
(dp211
g10
S'R'
p212
sg12
S'MEDIUM SERVICE'
p213
ssS'83d29e23-5e9a-438f-acfb-3f585610a2fa'
p214
(dp215
g10
S'C'
p216
sg12
S'CORRIDOR'
p217
ssS'3735dd7a-3054-4771-bdb5-c375a62e076d'
p218
(dp219
g10
S'R'
p220
sg12
S'CLOSET'
p221
ssS'7632b308-7684-4fde-87cb-05ed5ea33c0c'
p222
(dp223
g10
S'R'
p224
sg12
S'MEDIUM SERVICE'
p225
sssS'graph'
p226
(dp227
sS'edge'
p228
(dp229
g8
(dp230
S'05c9c71b-a849-4582-a8f9-7e76a3bffb7a'
p231
(dp232
sS'26b45632-3963-426e-8da1-c828f9d4ca2a'
p233
(dp234
sS'a7c9fb8a-d52d-4ec9-8751-6bc5237b6820'
p235
(dp236
sS'2181348f-d39c-409e-a105-77dda0ae11e1'
p237
(dp238
sS'18b3fefa-3cfd-42f1-a212-d33658aaa444'
p239
(dp240
sS'83d29e23-5e9a-438f-acfb-3f585610a2fa'
p241
(dp242
sS'd57562e0-08fe-4119-bb7a-05fac6dd2d09'
p243
(dp244
sS'fd3cc9d2-c56d-4e49-8514-cc884ccef659'
p245
(dp246
ssg14
(dp247
S'1bcab8b3-26fb-45fe-8e82-f5c86d20f1fd'
p248
(dp249
ssg18
(dp250
S'f2d1f4c9-0f20-4657-8b36-81080d323352'
p251
(dp252
ssg22
(dp253
S'483331cc-0745-452c-81ff-aff7f3c4cac0'
p254
(dp255
ssg26
(dp256
S'83d29e23-5e9a-438f-acfb-3f585610a2fa'
p257
(dp258
ssg30
(dp259
S'fd3cc9d2-c56d-4e49-8514-cc884ccef659'
p260
(dp261
sS'18b3fefa-3cfd-42f1-a212-d33658aaa444'
p262
(dp263
ssg34
(dp264
S'7e147ae4-bfc8-4544-b40b-d45d174cd0d2'
p265
(dp266
ssg38
(dp267
S'4943d7ed-c86f-4b04-b22a-5f8364e10b1d'
p268
(dp269
ssg42
(dp270
S'1bcab8b3-26fb-45fe-8e82-f5c86d20f1fd'
p271
(dp272
ssg46
(dp273
S'f2d1f4c9-0f20-4657-8b36-81080d323352'
p274
(dp275
sS'430d2ae1-79ab-4d19-964f-3f278cb14829'
p276
g269
ssg50
(dp277
S'18b3fefa-3cfd-42f1-a212-d33658aaa444'
p278
(dp279
sS'e5170b68-434d-4ab3-be7e-c77ae7046128'
p280
(dp281
sS'100d274f-94aa-4b0c-97d3-b732b163aa4d'
p282
(dp283
ssg54
(dp284
S'f2d1f4c9-0f20-4657-8b36-81080d323352'
p285
(dp286
ssg58
(dp287
S'30972d19-399f-4f96-b687-d20a3f66973d'
p288
(dp289
sS'9458456c-afca-4324-a46d-a6ec3dd747a0'
p290
(dp291
ssg62
(dp292
S'938ee894-2176-456a-984a-2908cd59b48b'
p293
g244
ssg66
(dp294
S'f2d1f4c9-0f20-4657-8b36-81080d323352'
p295
(dp296
ssg70
(dp297
S'1bcab8b3-26fb-45fe-8e82-f5c86d20f1fd'
p298
(dp299
ssg74
(dp300
S'f2d1f4c9-0f20-4657-8b36-81080d323352'
p301
(dp302
sS'e3a946c0-9196-478f-93e4-ff74fb8c41cb'
p303
(dp304
sS'0f764a64-7892-484d-8e54-5030b744f4ea'
p305
(dp306
ssg78
(dp307
S'09d6ae20-7f6d-4b37-9db9-786d9f860486'
p308
(dp309
sS'83d29e23-5e9a-438f-acfb-3f585610a2fa'
p310
(dp311
ssg82
(dp312
S'938ee894-2176-456a-984a-2908cd59b48b'
p313
g234
ssg86
(dp314
S'938ee894-2176-456a-984a-2908cd59b48b'
p315
g236
ssg90
(dp316
S'1bcab8b3-26fb-45fe-8e82-f5c86d20f1fd'
p317
(dp318
ssg94
(dp319
S'899646c0-3858-439a-9318-d875d8611393'
p320
g309
ssg98
(dp321
S'18b3fefa-3cfd-42f1-a212-d33658aaa444'
p322
(dp323
ssg102
(dp324
S'938ee894-2176-456a-984a-2908cd59b48b'
p325
g232
ssg106
(dp326
S'83d29e23-5e9a-438f-acfb-3f585610a2fa'
p327
(dp328
ssg110
(dp329
S'999aadf5-5e18-49cc-bd67-3e543008c472'
p330
(dp331
sS'483331cc-0745-452c-81ff-aff7f3c4cac0'
p332
(dp333
sS'30972d19-399f-4f96-b687-d20a3f66973d'
p334
(dp335
ssg114
(dp336
S'938ee894-2176-456a-984a-2908cd59b48b'
p337
g246
sS'9f4f911d-a4d7-4a9c-9191-11da072792dc'
p338
g261
sS'1bcab8b3-26fb-45fe-8e82-f5c86d20f1fd'
p339
(dp340
ssg118
(dp341
S'97b8f28d-a6b3-4ac4-b9c0-00c50d2c9998'
p342
(dp343
sS'999aadf5-5e18-49cc-bd67-3e543008c472'
p344
(dp345
sS'4b96f51a-596c-460f-95c1-0632d899612c'
p346
g291
ssg122
(dp347
S'938ee894-2176-456a-984a-2908cd59b48b'
p348
g240
sS'b5076a53-c188-458c-babb-134a6ce613be'
p349
g279
sS'49956562-c6ef-4e79-8484-d5c6443a59a3'
p350
g323
sS'9f4f911d-a4d7-4a9c-9191-11da072792dc'
p351
g263
sS'1bcab8b3-26fb-45fe-8e82-f5c86d20f1fd'
p352
(dp353
ssg126
(dp354
S'2cd8df36-f8ab-4e6a-9573-90b32fca4be6'
p355
g331
sS'483331cc-0745-452c-81ff-aff7f3c4cac0'
p356
(dp357
sS'9458456c-afca-4324-a46d-a6ec3dd747a0'
p358
g345
ssg130
(dp359
S'db11ace0-65f3-4f29-94b5-3752dcb3c9c1'
p360
g304
ssg134
(dp361
S'b5076a53-c188-458c-babb-134a6ce613be'
p362
g281
sS'1bcab8b3-26fb-45fe-8e82-f5c86d20f1fd'
p363
(dp364
ssg138
(dp365
S'f2d1f4c9-0f20-4657-8b36-81080d323352'
p366
(dp367
ssg142
(dp368
S'938ee894-2176-456a-984a-2908cd59b48b'
p369
g238
ssg146
(dp370
S'f2d1f4c9-0f20-4657-8b36-81080d323352'
p371
(dp372
ssg150
(dp373
S'db11ace0-65f3-4f29-94b5-3752dcb3c9c1'
p374
g306
sS'e21c4cf6-d4c8-429c-bc93-e48bfb751073'
p375
(dp376
ssg154
(dp377
S'bc3a10e5-5241-4065-8511-939666183f43'
p378
(dp379
ssg158
(dp380
S'83d29e23-5e9a-438f-acfb-3f585610a2fa'
p381
(dp382
ssg162
(dp383
S'db11ace0-65f3-4f29-94b5-3752dcb3c9c1'
p384
g302
sS'483331cc-0745-452c-81ff-aff7f3c4cac0'
p385
(dp386
sS'aadabf24-1f7a-4438-8cfa-1f9c84b54055'
p387
(dp388
sS'9cab5ac8-829e-48c6-a17a-caa80f64bf59'
p389
g367
sS'a032810f-01cd-4b4c-b798-4263ae48613e'
p390
g372
sS'1bcab8b3-26fb-45fe-8e82-f5c86d20f1fd'
p391
(dp392
sS'71bf7d95-b9fd-4620-9e98-5f6f5c00949d'
p393
(dp394
sS'7e147ae4-bfc8-4544-b40b-d45d174cd0d2'
p395
(dp396
sS'4943d7ed-c86f-4b04-b22a-5f8364e10b1d'
p397
g275
sS'0ebdedc7-293b-4cc6-9aee-e5a925b242b6'
p398
g286
sS'71747ab6-fff7-4cf4-bfc1-f1962750e7eb'
p399
g252
sS'7632b308-7684-4fde-87cb-05ed5ea33c0c'
p400
(dp401
sS'c6db3a4c-e710-4752-bf57-36cfae8150db'
p402
g296
ssg166
(dp403
S'83d29e23-5e9a-438f-acfb-3f585610a2fa'
p404
(dp405
sS'5e065e71-3477-42cb-a641-514b65d65a0f'
p406
g379
ssg170
(dp407
S'1bcab8b3-26fb-45fe-8e82-f5c86d20f1fd'
p408
(dp409
ssg174
(dp410
S'999aadf5-5e18-49cc-bd67-3e543008c472'
p411
g357
sS'3b6ccac5-4892-4e1a-854b-d4675d1e21f8'
p412
(dp413
sS'65cb6edf-70c3-430a-ba75-6e702809a7c8'
p414
g255
sS'f2d1f4c9-0f20-4657-8b36-81080d323352'
p415
g386
sS'2cd8df36-f8ab-4e6a-9573-90b32fca4be6'
p416
g333
sS'3735dd7a-3054-4771-bdb5-c375a62e076d'
p417
(dp418
ssg178
(dp419
S'b5076a53-c188-458c-babb-134a6ce613be'
p420
g283
ssg182
(dp421
S'483331cc-0745-452c-81ff-aff7f3c4cac0'
p422
g413
ssg186
(dp423
S'f2d1f4c9-0f20-4657-8b36-81080d323352'
p424
g388
ssg190
(dp425
S'9458456c-afca-4324-a46d-a6ec3dd747a0'
p426
g343
ssg194
(dp427
S'7e147ae4-bfc8-4544-b40b-d45d174cd0d2'
p428
(dp429
sS'0f764a64-7892-484d-8e54-5030b744f4ea'
p430
g376
ssg198
(dp431
S'063e413d-8818-4cf7-a40a-689346f06230'
p432
g299
sS'f10baec8-da46-4364-9358-6a628b882c19'
p433
g249
sS'e5170b68-434d-4ab3-be7e-c77ae7046128'
p434
g364
sS'fd3cc9d2-c56d-4e49-8514-cc884ccef659'
p435
g340
sS'18b3fefa-3cfd-42f1-a212-d33658aaa444'
p436
g353
sS'304d5ae9-e91f-4629-b0b2-373f653adeff'
p437
g272
sS'f2d1f4c9-0f20-4657-8b36-81080d323352'
p438
g392
sS'ff39228c-02f2-4f43-8aa5-b5d988a8ffbf'
p439
g318
sS'41aaa5ec-c8eb-419f-a1e0-f10fea1eac15'
p440
g409
ssg202
(dp441
S'f2d1f4c9-0f20-4657-8b36-81080d323352'
p442
g394
ssg206
(dp443
S'ee591a53-0e02-4583-a514-3efd247ced69'
p444
g266
sS'e21c4cf6-d4c8-429c-bc93-e48bfb751073'
p445
g429
sS'7632b308-7684-4fde-87cb-05ed5ea33c0c'
p446
(dp447
sS'f2d1f4c9-0f20-4657-8b36-81080d323352'
p448
g396
ssg210
(dp449
S'2cd8df36-f8ab-4e6a-9573-90b32fca4be6'
p450
g335
sS'4b96f51a-596c-460f-95c1-0632d899612c'
p451
g289
ssg214
(dp452
S'938ee894-2176-456a-984a-2908cd59b48b'
p453
g242
sS'899646c0-3858-439a-9318-d875d8611393'
p454
g311
sS'a8d00d74-efcb-422c-a57c-31204ad785b4'
p455
g382
sS'5684d967-9603-4c5b-b9d6-6479aae2d57a'
p456
g258
sS'383b6b4e-4995-4f93-9d94-79a688ebc181'
p457
g328
sS'bc3a10e5-5241-4065-8511-939666183f43'
p458
g405
ssg218
(dp459
S'483331cc-0745-452c-81ff-aff7f3c4cac0'
p460
g418
ssg222
(dp461
S'7e147ae4-bfc8-4544-b40b-d45d174cd0d2'
p462
g447
sS'f2d1f4c9-0f20-4657-8b36-81080d323352'
p463
g401
sssS'adj'
p464
g229
sb.