ccopy_reg
_reconstructor
p0
(cnetworkx.classes.graph
Graph
p1
c__builtin__
object
p2
Ntp3
Rp4
(dp5
S'node'
p6
(dp7
S'6a31ac22-0bf1-42b1-aaa0-828184c11a85'
p8
(dp9
S'type'
p10
S'R'
p11
sS'label'
p12
S'CLASSROOM'
p13
ssS'1cdf21ae-49a6-48d6-9c05-9fb732fa2771'
p14
(dp15
g10
S'R'
p16
sg12
S'CLASSROOM'
p17
ssS'd1a4a8af-3a75-40dc-ab68-550b3543eb82'
p18
(dp19
g10
S'R'
p20
sg12
S'CLOSET'
p21
ssS'8e075188-7066-4190-aa2f-969a8414055c'
p22
(dp23
g10
S'R'
p24
sg12
S'CLASSROOM'
p25
ssS'6d2aa31f-2283-4e2a-8b34-edabc6a27708'
p26
(dp27
g10
S'C'
p28
sg12
S'CORRIDOR'
p29
ssS'7b231b0d-f60a-400d-b4ce-ab2bc646274d'
p30
(dp31
g10
S'R'
p32
sg12
S'LAB'
p33
ssS'ac75126d-87ca-480e-8fef-f412a11d3cb2'
p34
(dp35
g10
S'C'
p36
sg12
S'CORRIDOR'
p37
ssS'639787d7-e294-423f-b94e-c9c33c1d006f'
p38
(dp39
g10
S'R'
p40
sg12
S'CLASSROOM'
p41
ssS'53f44c38-1fd0-4331-8d97-b205e69c92ae'
p42
(dp43
g10
S'C'
p44
sg12
S'CORRIDOR'
p45
ssS'7a4b2df5-5383-4247-b794-f07e9e225cdd'
p46
(dp47
g10
S'C'
p48
sg12
S'WASHROOM'
p49
ssS'157dfbed-0cc4-4dab-8dfd-ef702d4dc59c'
p50
(dp51
g10
S'R'
p52
sg12
S'CLASSROOM'
p53
ssS'08444c31-62cb-4524-8a55-936c196ffade'
p54
(dp55
g10
S'C'
p56
sg12
S'WASHROOM'
p57
ssS'bd26fad4-4135-407d-87bd-51248f52cdfc'
p58
(dp59
g10
S'R'
p60
sg12
S'BATHROOM'
p61
ssS'6cf80384-be47-486a-9783-bf36ea5ab658'
p62
(dp63
g10
S'R'
p64
sg12
S'CLASSROOM'
p65
ssS'8907f686-9199-4fe5-9f8f-ac1cf72c54a4'
p66
(dp67
g10
S'R'
p68
sg12
S'MEDIUM SERVICE'
p69
ssS'7ebe167f-38c2-4a82-9262-25ee150f50fe'
p70
(dp71
g10
S'C'
p72
sg12
S'CORRIDOR'
p73
ssS'f13a4925-ca59-4535-8fcd-435b1705f25b'
p74
(dp75
g10
S'R'
p76
sg12
S'CLASSROOM'
p77
ssS'56ccf971-8595-4866-8e59-9b49d840ceba'
p78
(dp79
g10
S'E'
p80
sg12
S'STAIRS'
p81
ssS'd6ff315d-6c6f-4c1e-964a-724d296dc5f0'
p82
(dp83
g10
S'R'
p84
sg12
S'LAB'
p85
ssS'5d05bc7c-e32f-421f-b327-ea8c63459fca'
p86
(dp87
g10
S'C'
p88
sg12
S'CORRIDOR'
p89
ssS'b9c94c73-8f92-411b-a1c5-5d8d4b9a9a37'
p90
(dp91
g10
S'R'
p92
sg12
S'MEDIUM SERVICE'
p93
ssS'521ca79b-fd85-4414-b8cf-93adbdc2cd9b'
p94
(dp95
g10
S'C'
p96
sg12
S'LOBBY'
p97
ssS'33adbaea-0d0a-4664-a6e6-fe1a16effb69'
p98
(dp99
g10
S'E'
p100
sg12
S'ELEVATOR'
p101
ssS'4938d4e1-ad2e-42ac-a1e2-15b5b9b71586'
p102
(dp103
g10
S'E'
p104
sg12
S'STAIRS'
p105
ssS'fe58c824-56af-479c-b210-1a45693518e9'
p106
(dp107
g10
S'R'
p108
sg12
S'CLASSROOM'
p109
ssS'30a79bd8-ba92-4f9a-824c-e4bb406fac4d'
p110
(dp111
g10
S'C'
p112
sg12
S'CORRIDOR'
p113
ssS'af1d9382-73ed-4104-9a93-75f56e44c199'
p114
(dp115
g10
S'E'
p116
sg12
S'STAIRS'
p117
ssS'64869ae4-365f-4bdd-9b32-fd84678135c3'
p118
(dp119
g10
S'C'
p120
sg12
S'LOBBY'
p121
ssS'da30cef7-c422-43df-a8f0-8b6dd4bbc266'
p122
(dp123
g10
S'E'
p124
sg12
S'STAIRS'
p125
ssS'1c103c62-854f-4dc6-bc5e-bb676f978a5d'
p126
(dp127
g10
S'C'
p128
sg12
S'LOBBY'
p129
ssS'bcd901e0-cda9-48aa-9386-ea76ec80987f'
p130
(dp131
g10
S'R'
p132
sg12
S'CLOSET'
p133
ssS'54fe6bbd-8f47-4b5f-9fb2-cc0d9c9404dd'
p134
(dp135
g10
S'E'
p136
sg12
S'STAIRS'
p137
ssS'8c656432-a0b8-4dec-b556-24d81c8eda43'
p138
(dp139
g10
S'R'
p140
sg12
S'CLASSROOM'
p141
ssS'3ceeb58e-c73a-473a-a95d-04a4320c6bd6'
p142
(dp143
g10
S'R'
p144
sg12
S'CLASSROOM'
p145
ssS'20b687c7-02ee-4fc2-88a0-7946dbe74a2b'
p146
(dp147
g10
S'R'
p148
sg12
S'BATHROOM'
p149
ssS'5abdadff-53c3-4b5e-b8ab-b673dc58974e'
p150
(dp151
g10
S'R'
p152
sg12
S'CLASSROOM'
p153
sssS'graph'
p154
(dp155
sS'edge'
p156
(dp157
g8
(dp158
S'8907f686-9199-4fe5-9f8f-ac1cf72c54a4'
p159
(dp160
sS'5d05bc7c-e32f-421f-b327-ea8c63459fca'
p161
(dp162
sS'6cf80384-be47-486a-9783-bf36ea5ab658'
p163
(dp164
ssg14
(dp165
S'6d2aa31f-2283-4e2a-8b34-edabc6a27708'
p166
(dp167
sS'fe58c824-56af-479c-b210-1a45693518e9'
p168
(dp169
ssg18
(dp170
S'6d2aa31f-2283-4e2a-8b34-edabc6a27708'
p171
(dp172
ssg22
(dp173
S'6d2aa31f-2283-4e2a-8b34-edabc6a27708'
p174
(dp175
sS'7b231b0d-f60a-400d-b4ce-ab2bc646274d'
p176
(dp177
ssg26
(dp178
S'1cdf21ae-49a6-48d6-9c05-9fb732fa2771'
p179
g167
sS'd1a4a8af-3a75-40dc-ab68-550b3543eb82'
p180
g172
sS'64869ae4-365f-4bdd-9b32-fd84678135c3'
p181
(dp182
sS'8e075188-7066-4190-aa2f-969a8414055c'
p183
g175
sS'd6ff315d-6c6f-4c1e-964a-724d296dc5f0'
p184
(dp185
sS'bcd901e0-cda9-48aa-9386-ea76ec80987f'
p186
(dp187
sS'521ca79b-fd85-4414-b8cf-93adbdc2cd9b'
p188
(dp189
sS'7b231b0d-f60a-400d-b4ce-ab2bc646274d'
p190
(dp191
sS'fe58c824-56af-479c-b210-1a45693518e9'
p192
(dp193
sS'30a79bd8-ba92-4f9a-824c-e4bb406fac4d'
p194
(dp195
ssg30
(dp196
S'8e075188-7066-4190-aa2f-969a8414055c'
p197
g177
sS'6d2aa31f-2283-4e2a-8b34-edabc6a27708'
p198
g191
sS'd6ff315d-6c6f-4c1e-964a-724d296dc5f0'
p199
(dp200
ssg34
(dp201
S'7a4b2df5-5383-4247-b794-f07e9e225cdd'
p202
(dp203
sS'af1d9382-73ed-4104-9a93-75f56e44c199'
p204
(dp205
sS'08444c31-62cb-4524-8a55-936c196ffade'
p206
(dp207
sS'53f44c38-1fd0-4331-8d97-b205e69c92ae'
p208
(dp209
sS'639787d7-e294-423f-b94e-c9c33c1d006f'
p210
(dp211
sS'7ebe167f-38c2-4a82-9262-25ee150f50fe'
p212
(dp213
sS'bd26fad4-4135-407d-87bd-51248f52cdfc'
p214
(dp215
ssg38
(dp216
S'ac75126d-87ca-480e-8fef-f412a11d3cb2'
p217
g211
sS'5abdadff-53c3-4b5e-b8ab-b673dc58974e'
p218
(dp219
ssg42
(dp220
S'8c656432-a0b8-4dec-b556-24d81c8eda43'
p221
(dp222
sS'5d05bc7c-e32f-421f-b327-ea8c63459fca'
p223
(dp224
sS'ac75126d-87ca-480e-8fef-f412a11d3cb2'
p225
g209
sS'6cf80384-be47-486a-9783-bf36ea5ab658'
p226
(dp227
sS'5abdadff-53c3-4b5e-b8ab-b673dc58974e'
p228
(dp229
ssg46
(dp230
S'ac75126d-87ca-480e-8fef-f412a11d3cb2'
p231
g203
ssg50
(dp232
S'5d05bc7c-e32f-421f-b327-ea8c63459fca'
p233
(dp234
sS'3ceeb58e-c73a-473a-a95d-04a4320c6bd6'
p235
(dp236
ssg54
(dp237
S'ac75126d-87ca-480e-8fef-f412a11d3cb2'
p238
g207
ssg58
(dp239
S'ac75126d-87ca-480e-8fef-f412a11d3cb2'
p240
g215
ssg62
(dp241
S'6a31ac22-0bf1-42b1-aaa0-828184c11a85'
p242
g164
sS'53f44c38-1fd0-4331-8d97-b205e69c92ae'
p243
g227
sS'5abdadff-53c3-4b5e-b8ab-b673dc58974e'
p244
(dp245
ssg66
(dp246
S'6a31ac22-0bf1-42b1-aaa0-828184c11a85'
p247
g160
ssg70
(dp248
S'ac75126d-87ca-480e-8fef-f412a11d3cb2'
p249
g213
sS'30a79bd8-ba92-4f9a-824c-e4bb406fac4d'
p250
(dp251
ssg74
(dp252
S'8c656432-a0b8-4dec-b556-24d81c8eda43'
p253
(dp254
sS'3ceeb58e-c73a-473a-a95d-04a4320c6bd6'
p255
(dp256
ssg78
(dp257
S'64869ae4-365f-4bdd-9b32-fd84678135c3'
p258
(dp259
ssg82
(dp260
S'6d2aa31f-2283-4e2a-8b34-edabc6a27708'
p261
g185
sS'7b231b0d-f60a-400d-b4ce-ab2bc646274d'
p262
g200
ssg86
(dp263
S'b9c94c73-8f92-411b-a1c5-5d8d4b9a9a37'
p264
(dp265
sS'157dfbed-0cc4-4dab-8dfd-ef702d4dc59c'
p266
g234
sS'6a31ac22-0bf1-42b1-aaa0-828184c11a85'
p267
g162
sS'53f44c38-1fd0-4331-8d97-b205e69c92ae'
p268
g224
sS'1c103c62-854f-4dc6-bc5e-bb676f978a5d'
p269
(dp270
sS'20b687c7-02ee-4fc2-88a0-7946dbe74a2b'
p271
(dp272
ssg90
(dp273
S'5d05bc7c-e32f-421f-b327-ea8c63459fca'
p274
g265
ssg94
(dp275
S'4938d4e1-ad2e-42ac-a1e2-15b5b9b71586'
p276
(dp277
sS'6d2aa31f-2283-4e2a-8b34-edabc6a27708'
p278
g189
ssg98
(dp279
S'1c103c62-854f-4dc6-bc5e-bb676f978a5d'
p280
(dp281
ssg102
(dp282
S'521ca79b-fd85-4414-b8cf-93adbdc2cd9b'
p283
g277
ssg106
(dp284
S'1cdf21ae-49a6-48d6-9c05-9fb732fa2771'
p285
g169
sS'6d2aa31f-2283-4e2a-8b34-edabc6a27708'
p286
g193
ssg110
(dp287
S'7ebe167f-38c2-4a82-9262-25ee150f50fe'
p288
g251
sS'6d2aa31f-2283-4e2a-8b34-edabc6a27708'
p289
g195
ssg114
(dp290
S'ac75126d-87ca-480e-8fef-f412a11d3cb2'
p291
g205
ssg118
(dp292
S'54fe6bbd-8f47-4b5f-9fb2-cc0d9c9404dd'
p293
(dp294
sS'6d2aa31f-2283-4e2a-8b34-edabc6a27708'
p295
g182
sS'56ccf971-8595-4866-8e59-9b49d840ceba'
p296
g259
ssg122
(dp297
S'1c103c62-854f-4dc6-bc5e-bb676f978a5d'
p298
(dp299
ssg126
(dp300
S'5d05bc7c-e32f-421f-b327-ea8c63459fca'
p301
g270
sS'33adbaea-0d0a-4664-a6e6-fe1a16effb69'
p302
g281
sS'da30cef7-c422-43df-a8f0-8b6dd4bbc266'
p303
g299
ssg130
(dp304
S'6d2aa31f-2283-4e2a-8b34-edabc6a27708'
p305
g187
ssg134
(dp306
S'64869ae4-365f-4bdd-9b32-fd84678135c3'
p307
g294
ssg138
(dp308
S'f13a4925-ca59-4535-8fcd-435b1705f25b'
p309
g254
sS'53f44c38-1fd0-4331-8d97-b205e69c92ae'
p310
g222
ssg142
(dp311
S'f13a4925-ca59-4535-8fcd-435b1705f25b'
p312
g256
sS'157dfbed-0cc4-4dab-8dfd-ef702d4dc59c'
p313
g236
ssg146
(dp314
S'5d05bc7c-e32f-421f-b327-ea8c63459fca'
p315
g272
ssg150
(dp316
S'639787d7-e294-423f-b94e-c9c33c1d006f'
p317
g219
sS'6cf80384-be47-486a-9783-bf36ea5ab658'
p318
g245
sS'53f44c38-1fd0-4331-8d97-b205e69c92ae'
p319
g229
sssS'adj'
p320
g157
sb.