ccopy_reg
_reconstructor
p0
(cnetworkx.classes.graph
Graph
p1
c__builtin__
object
p2
Ntp3
Rp4
(dp5
S'node'
p6
(dp7
S'682d709c-8fc9-41a4-bd18-72e2fd4d9a84'
p8
(dp9
S'type'
p10
S'C'
p11
sS'label'
p12
S'CORRIDOR'
p13
ssS'72d15a28-d22e-4c66-9378-306e630e156f'
p14
(dp15
g10
S'R'
p16
sg12
S'CLOSET'
p17
ssS'15c02d3a-38f3-4c10-b4f8-c407ffc3d3d4'
p18
(dp19
g10
S'R'
p20
sg12
S'CLASSROOM'
p21
ssS'c68e48ff-e6ac-46ea-bbef-c9902e8a75db'
p22
(dp23
g10
S'E'
p24
sg12
S'STAIRS'
p25
ssS'3d508375-ed57-4e62-8197-18db1a46ffca'
p26
(dp27
g10
S'C'
p28
sg12
S'WASHROOM'
p29
ssS'828802e6-f065-4d95-bc72-f9f682db8e3e'
p30
(dp31
g10
S'C'
p32
sg12
S'LOBBY'
p33
ssS'c0dbe45a-82f6-4d05-8753-7ef979875184'
p34
(dp35
g10
S'R'
p36
sg12
S'MEDIUM SERVICE'
p37
ssS'e57ff207-7403-4a8b-895f-92de4b68dd7d'
p38
(dp39
g10
S'C'
p40
sg12
S'LOBBY'
p41
ssS'6e9a9ee7-0d0a-40cb-9637-5cf3a0a00e56'
p42
(dp43
g10
S'R'
p44
sg12
S'SMALL ADMINISTRATIVE'
p45
ssS'8d4a41b6-b7f1-41f4-aa6d-ee7e4049a579'
p46
(dp47
g10
S'R'
p48
sg12
S'CLASSROOM'
p49
ssS'66ab2317-1e45-4c3e-89ce-a7c77c7c139f'
p50
(dp51
g10
S'C'
p52
sg12
S'CORRIDOR'
p53
ssS'2ecc64cf-5173-42fe-bb1c-3f84a87b55c5'
p54
(dp55
g10
S'R'
p56
sg12
S'SMALL ADMINISTRATIVE'
p57
ssS'9120ba61-5963-46e8-9b9d-643b82760400'
p58
(dp59
g10
S'C'
p60
sg12
S'LOBBY'
p61
ssS'438139ba-4e30-40c7-8606-84fdc9f2256c'
p62
(dp63
g10
S'R'
p64
sg12
S'MEDIUM'
p65
ssS'e9fa08e7-356e-423f-b10e-54a4e110b992'
p66
(dp67
g10
S'E'
p68
sg12
S'ENTRANCE'
p69
ssS'f61cfc3e-5fac-4c2a-b3e6-05fbfaa6b1ef'
p70
(dp71
g10
S'R'
p72
sg12
S'CLASSROOM'
p73
ssS'd8968946-46ba-4cb6-838e-832d4042e26a'
p74
(dp75
g10
S'R'
p76
sg12
S'SMALL ADMINISTRATIVE'
p77
ssS'2850900b-9ad1-4d6b-883a-4675ded35798'
p78
(dp79
g10
S'R'
p80
sg12
S'CLASSROOM'
p81
ssS'a67f1b92-b139-4f9f-8b9d-8260b30983ad'
p82
(dp83
g10
S'E'
p84
sg12
S'ENTRANCE'
p85
sssS'graph'
p86
(dp87
sS'edge'
p88
(dp89
g8
(dp90
S'e57ff207-7403-4a8b-895f-92de4b68dd7d'
p91
(dp92
sS'8d4a41b6-b7f1-41f4-aa6d-ee7e4049a579'
p93
(dp94
sS'66ab2317-1e45-4c3e-89ce-a7c77c7c139f'
p95
(dp96
sS'2ecc64cf-5173-42fe-bb1c-3f84a87b55c5'
p97
(dp98
sS'9120ba61-5963-46e8-9b9d-643b82760400'
p99
(dp100
sS'438139ba-4e30-40c7-8606-84fdc9f2256c'
p101
(dp102
sS'f61cfc3e-5fac-4c2a-b3e6-05fbfaa6b1ef'
p103
(dp104
sS'd8968946-46ba-4cb6-838e-832d4042e26a'
p105
(dp106
sS'2850900b-9ad1-4d6b-883a-4675ded35798'
p107
(dp108
ssg14
(dp109
S'9120ba61-5963-46e8-9b9d-643b82760400'
p110
(dp111
sS'a67f1b92-b139-4f9f-8b9d-8260b30983ad'
p112
(dp113
ssg18
(dp114
S'66ab2317-1e45-4c3e-89ce-a7c77c7c139f'
p115
(dp116
ssg22
(dp117
S'9120ba61-5963-46e8-9b9d-643b82760400'
p118
(dp119
ssg26
(dp120
S'66ab2317-1e45-4c3e-89ce-a7c77c7c139f'
p121
(dp122
ssg30
(dp123
S'e9fa08e7-356e-423f-b10e-54a4e110b992'
p124
(dp125
sS'e57ff207-7403-4a8b-895f-92de4b68dd7d'
p126
(dp127
ssg34
(dp128
S'a67f1b92-b139-4f9f-8b9d-8260b30983ad'
p129
(dp130
ssg38
(dp131
S'682d709c-8fc9-41a4-bd18-72e2fd4d9a84'
p132
g92
sS'828802e6-f065-4d95-bc72-f9f682db8e3e'
p133
g127
sS'6e9a9ee7-0d0a-40cb-9637-5cf3a0a00e56'
p134
(dp135
ssg42
(dp136
S'e57ff207-7403-4a8b-895f-92de4b68dd7d'
p137
g135
ssg46
(dp138
S'682d709c-8fc9-41a4-bd18-72e2fd4d9a84'
p139
g94
ssg50
(dp140
S'682d709c-8fc9-41a4-bd18-72e2fd4d9a84'
p141
g96
sS'15c02d3a-38f3-4c10-b4f8-c407ffc3d3d4'
p142
g116
sS'3d508375-ed57-4e62-8197-18db1a46ffca'
p143
g122
ssg54
(dp144
S'682d709c-8fc9-41a4-bd18-72e2fd4d9a84'
p145
g98
ssg58
(dp146
S'682d709c-8fc9-41a4-bd18-72e2fd4d9a84'
p147
g100
sS'72d15a28-d22e-4c66-9378-306e630e156f'
p148
g111
sS'c68e48ff-e6ac-46ea-bbef-c9902e8a75db'
p149
g119
ssg62
(dp150
S'682d709c-8fc9-41a4-bd18-72e2fd4d9a84'
p151
g102
ssg66
(dp152
S'828802e6-f065-4d95-bc72-f9f682db8e3e'
p153
g125
ssg70
(dp154
S'682d709c-8fc9-41a4-bd18-72e2fd4d9a84'
p155
g104
ssg74
(dp156
S'682d709c-8fc9-41a4-bd18-72e2fd4d9a84'
p157
g106
ssg78
(dp158
S'682d709c-8fc9-41a4-bd18-72e2fd4d9a84'
p159
g108
ssg82
(dp160
S'72d15a28-d22e-4c66-9378-306e630e156f'
p161
g113
sS'c0dbe45a-82f6-4d05-8753-7ef979875184'
p162
g130
sssS'adj'
p163
g89
sb.