ccopy_reg
_reconstructor
p0
(cnetworkx.classes.graph
Graph
p1
c__builtin__
object
p2
Ntp3
Rp4
(dp5
S'node'
p6
(dp7
S'877b6845-d7e1-477f-8bb0-addeed437a64'
p8
(dp9
S'type'
p10
S'R'
p11
sS'label'
p12
S'CLASSROOM'
p13
ssS'a8d954c2-5990-4225-b549-dfc6a097e1c2'
p14
(dp15
g10
S'R'
p16
sg12
S'CLASSROOM'
p17
ssS'813dbf9a-b7c2-4138-b2bc-49ab97533934'
p18
(dp19
g10
S'C'
p20
sg12
S'WASHROOM'
p21
ssS'9322fe45-d23e-4bb9-af8f-717fd5b693ed'
p22
(dp23
g10
S'R'
p24
sg12
S'MEDIUM'
p25
ssS'758ba7c2-eb24-4053-81b3-c4e071d9de60'
p26
(dp27
g10
S'C'
p28
sg12
S'CORRIDOR'
p29
ssS'5b859305-f69e-4fb3-92fe-6dd54f74e431'
p30
(dp31
g10
S'C'
p32
sg12
S'CORRIDOR'
p33
ssS'35c1a036-5dbf-4003-be68-4d055bafac32'
p34
(dp35
g10
S'C'
p36
sg12
S'LOBBY'
p37
ssS'd7c06930-a5b9-4267-8997-b320c28397dd'
p38
(dp39
g10
S'R'
p40
sg12
S'MEDIUM SERVICE'
p41
ssS'26ade6bd-f231-403f-bda2-c14a7e8c9d70'
p42
(dp43
g10
S'C'
p44
sg12
S'LOBBY'
p45
ssS'ceaba597-bcac-4f04-a959-8a8e8f3c265d'
p46
(dp47
g10
S'E'
p48
sg12
S'ENTRANCE'
p49
ssS'cfbe4d10-b2c2-422f-b8b4-a87a914a1d7e'
p50
(dp51
g10
S'E'
p52
sg12
S'STAIRS'
p53
ssS'4fd19a70-7788-4392-8a1b-5813aed29a01'
p54
(dp55
g10
S'R'
p56
sg12
S'CLASSROOM'
p57
ssS'9323e4a9-f6ef-4678-bf55-1832abf509d1'
p58
(dp59
g10
S'R'
p60
sg12
S'MEDIUM'
p61
ssS'938490e3-f335-4451-9dac-7746f5069c92'
p62
(dp63
g10
S'R'
p64
sg12
S'CLASSROOM'
p65
ssS'7780e218-fd07-41bd-8e84-867babee1183'
p66
(dp67
g10
S'R'
p68
sg12
S'CLASSROOM'
p69
ssS'c423b64b-5714-4c6b-baa3-369964b8ae9a'
p70
(dp71
g10
S'C'
p72
sg12
S'CORRIDOR'
p73
ssS'2b081e82-42ed-4b6e-826a-3221df86ce6e'
p74
(dp75
g10
S'R'
p76
sg12
S'CLASSROOM'
p77
ssS'64c7741c-5554-4cd2-aca5-41de652f9653'
p78
(dp79
g10
S'C'
p80
sg12
S'CORRIDOR'
p81
sssS'graph'
p82
(dp83
sS'edge'
p84
(dp85
g8
(dp86
S'64c7741c-5554-4cd2-aca5-41de652f9653'
p87
(dp88
ssg14
(dp89
S'5b859305-f69e-4fb3-92fe-6dd54f74e431'
p90
(dp91
ssg18
(dp92
S'26ade6bd-f231-403f-bda2-c14a7e8c9d70'
p93
(dp94
ssg22
(dp95
S'5b859305-f69e-4fb3-92fe-6dd54f74e431'
p96
(dp97
ssg26
(dp98
S'5b859305-f69e-4fb3-92fe-6dd54f74e431'
p99
(dp100
sS'26ade6bd-f231-403f-bda2-c14a7e8c9d70'
p101
(dp102
sS'938490e3-f335-4451-9dac-7746f5069c92'
p103
(dp104
sS'd7c06930-a5b9-4267-8997-b320c28397dd'
p105
(dp106
ssg30
(dp107
S'9323e4a9-f6ef-4678-bf55-1832abf509d1'
p108
(dp109
sS'a8d954c2-5990-4225-b549-dfc6a097e1c2'
p110
g91
sS'758ba7c2-eb24-4053-81b3-c4e071d9de60'
p111
g100
sS'9322fe45-d23e-4bb9-af8f-717fd5b693ed'
p112
g97
sS'64c7741c-5554-4cd2-aca5-41de652f9653'
p113
(dp114
ssg34
(dp115
S'c423b64b-5714-4c6b-baa3-369964b8ae9a'
p116
(dp117
sS'ceaba597-bcac-4f04-a959-8a8e8f3c265d'
p118
(dp119
ssg38
(dp120
S'758ba7c2-eb24-4053-81b3-c4e071d9de60'
p121
g106
ssg42
(dp122
S'758ba7c2-eb24-4053-81b3-c4e071d9de60'
p123
g102
sS'813dbf9a-b7c2-4138-b2bc-49ab97533934'
p124
g94
sS'cfbe4d10-b2c2-422f-b8b4-a87a914a1d7e'
p125
(dp126
ssg46
(dp127
S'35c1a036-5dbf-4003-be68-4d055bafac32'
p128
g119
ssg50
(dp129
S'26ade6bd-f231-403f-bda2-c14a7e8c9d70'
p130
g126
ssg54
(dp131
S'c423b64b-5714-4c6b-baa3-369964b8ae9a'
p132
(dp133
ssg58
(dp134
S'5b859305-f69e-4fb3-92fe-6dd54f74e431'
p135
g109
ssg62
(dp136
S'758ba7c2-eb24-4053-81b3-c4e071d9de60'
p137
g104
ssg66
(dp138
S'c423b64b-5714-4c6b-baa3-369964b8ae9a'
p139
(dp140
ssg70
(dp141
S'7780e218-fd07-41bd-8e84-867babee1183'
p142
g140
sS'35c1a036-5dbf-4003-be68-4d055bafac32'
p143
g117
sS'4fd19a70-7788-4392-8a1b-5813aed29a01'
p144
g133
sS'64c7741c-5554-4cd2-aca5-41de652f9653'
p145
(dp146
ssg74
(dp147
S'64c7741c-5554-4cd2-aca5-41de652f9653'
p148
(dp149
ssg78
(dp150
S'877b6845-d7e1-477f-8bb0-addeed437a64'
p151
g88
sS'5b859305-f69e-4fb3-92fe-6dd54f74e431'
p152
g114
sS'c423b64b-5714-4c6b-baa3-369964b8ae9a'
p153
g146
sS'2b081e82-42ed-4b6e-826a-3221df86ce6e'
p154
g149
sssS'adj'
p155
g85
sb.