ccopy_reg
_reconstructor
p0
(cnetworkx.classes.graph
Graph
p1
c__builtin__
object
p2
Ntp3
Rp4
(dp5
S'node'
p6
(dp7
S'92330f7e-65a6-4c85-a2e3-c3f461257458'
p8
(dp9
S'type'
p10
S'C'
p11
sS'label'
p12
S'LOBBY'
p13
ssS'f4fdc377-8e84-4019-b11d-10bee3c899e6'
p14
(dp15
g10
S'R'
p16
sg12
S'CLASSROOM'
p17
ssS'a33d46fc-ccaa-4756-bf0f-25bb21197a77'
p18
(dp19
g10
S'R'
p20
sg12
S'MEDIUM SERVICE'
p21
ssS'adcf5bf5-0227-4e3e-9dec-7c5324f87eac'
p22
(dp23
g10
S'R'
p24
sg12
S'CLASSROOM'
p25
ssS'ea39037b-0e81-4c8b-834a-0ff6235cb172'
p26
(dp27
g10
S'R'
p28
sg12
S'CLASSROOM'
p29
ssS'a657a475-0925-450b-a68b-bb41a8c03d0f'
p30
(dp31
g10
S'E'
p32
sg12
S'ENTRANCE'
p33
ssS'd85350da-a032-4f04-88cd-7d32cba603cf'
p34
(dp35
g10
S'R'
p36
sg12
S'LAB'
p37
ssS'cb41944f-d2ca-4f69-b6f1-f1c0f6350f13'
p38
(dp39
g10
S'R'
p40
sg12
S'CLASSROOM'
p41
ssS'072125cb-5dbe-4cfc-a89b-06ce5998d53d'
p42
(dp43
g10
S'C'
p44
sg12
S'CORRIDOR'
p45
ssS'964815cb-6d7f-4774-8b9c-a48d400c422c'
p46
(dp47
g10
S'C'
p48
sg12
S'CORRIDOR'
p49
ssS'778f50eb-fd22-47ee-995c-76b841ad44ce'
p50
(dp51
g10
S'R'
p52
sg12
S'MEDIUM'
p53
ssS'0371a48e-c50e-4417-bd79-e0e903a216cd'
p54
(dp55
g10
S'C'
p56
sg12
S'CORRIDOR'
p57
ssS'b9f0123f-e964-4100-8960-58d2e29b9f7e'
p58
(dp59
g10
S'R'
p60
sg12
S'CLASSROOM'
p61
ssS'e707014a-212a-46de-bd0c-85259bc8032f'
p62
(dp63
g10
S'C'
p64
sg12
S'WASHROOM'
p65
ssS'ba1077b3-d28d-4dce-b222-55f4ecd899eb'
p66
(dp67
g10
S'C'
p68
sg12
S'CORRIDOR'
p69
ssS'efba0285-0eeb-407d-b31c-20b35a3a062e'
p70
(dp71
g10
S'R'
p72
sg12
S'CLASSROOM'
p73
ssS'0c4fb46d-ffea-4d50-8c7d-40ca5b8879af'
p74
(dp75
g10
S'E'
p76
sg12
S'STAIRS'
p77
ssS'5d53802c-82fe-448c-b0a9-7425f3e99d0c'
p78
(dp79
g10
S'C'
p80
sg12
S'LOBBY'
p81
sssS'graph'
p82
(dp83
sS'edge'
p84
(dp85
g8
(dp86
S'a657a475-0925-450b-a68b-bb41a8c03d0f'
p87
(dp88
sS'072125cb-5dbe-4cfc-a89b-06ce5998d53d'
p89
(dp90
ssg14
(dp91
S'072125cb-5dbe-4cfc-a89b-06ce5998d53d'
p92
(dp93
ssg18
(dp94
S'964815cb-6d7f-4774-8b9c-a48d400c422c'
p95
(dp96
ssg22
(dp97
S'ba1077b3-d28d-4dce-b222-55f4ecd899eb'
p98
(dp99
ssg26
(dp100
S'778f50eb-fd22-47ee-995c-76b841ad44ce'
p101
(dp102
sS'0371a48e-c50e-4417-bd79-e0e903a216cd'
p103
(dp104
ssg30
(dp105
S'92330f7e-65a6-4c85-a2e3-c3f461257458'
p106
g88
ssg34
(dp107
S'072125cb-5dbe-4cfc-a89b-06ce5998d53d'
p108
(dp109
ssg38
(dp110
S'964815cb-6d7f-4774-8b9c-a48d400c422c'
p111
(dp112
ssg42
(dp113
S'778f50eb-fd22-47ee-995c-76b841ad44ce'
p114
(dp115
sS'92330f7e-65a6-4c85-a2e3-c3f461257458'
p116
g90
sS'f4fdc377-8e84-4019-b11d-10bee3c899e6'
p117
g93
sS'0371a48e-c50e-4417-bd79-e0e903a216cd'
p118
(dp119
sS'd85350da-a032-4f04-88cd-7d32cba603cf'
p120
g109
ssg46
(dp121
S'ba1077b3-d28d-4dce-b222-55f4ecd899eb'
p122
(dp123
sS'cb41944f-d2ca-4f69-b6f1-f1c0f6350f13'
p124
g112
sS'a33d46fc-ccaa-4756-bf0f-25bb21197a77'
p125
g96
sS'5d53802c-82fe-448c-b0a9-7425f3e99d0c'
p126
(dp127
ssg50
(dp128
S'ea39037b-0e81-4c8b-834a-0ff6235cb172'
p129
g102
sS'072125cb-5dbe-4cfc-a89b-06ce5998d53d'
p130
g115
ssg54
(dp131
S'ba1077b3-d28d-4dce-b222-55f4ecd899eb'
p132
(dp133
sS'b9f0123f-e964-4100-8960-58d2e29b9f7e'
p134
(dp135
sS'ea39037b-0e81-4c8b-834a-0ff6235cb172'
p136
g104
sS'072125cb-5dbe-4cfc-a89b-06ce5998d53d'
p137
g119
ssg58
(dp138
S'0371a48e-c50e-4417-bd79-e0e903a216cd'
p139
g135
ssg62
(dp140
S'5d53802c-82fe-448c-b0a9-7425f3e99d0c'
p141
(dp142
ssg66
(dp143
S'964815cb-6d7f-4774-8b9c-a48d400c422c'
p144
g123
sS'adcf5bf5-0227-4e3e-9dec-7c5324f87eac'
p145
g99
sS'0371a48e-c50e-4417-bd79-e0e903a216cd'
p146
g133
sS'efba0285-0eeb-407d-b31c-20b35a3a062e'
p147
(dp148
ssg70
(dp149
S'ba1077b3-d28d-4dce-b222-55f4ecd899eb'
p150
g148
ssg74
(dp151
S'5d53802c-82fe-448c-b0a9-7425f3e99d0c'
p152
(dp153
ssg78
(dp154
S'964815cb-6d7f-4774-8b9c-a48d400c422c'
p155
g127
sS'0c4fb46d-ffea-4d50-8c7d-40ca5b8879af'
p156
g153
sS'e707014a-212a-46de-bd0c-85259bc8032f'
p157
g142
sssS'adj'
p158
g85
sb.