ccopy_reg
_reconstructor
p0
(cnetworkx.classes.graph
Graph
p1
c__builtin__
object
p2
Ntp3
Rp4
(dp5
S'node'
p6
(dp7
S'b4eddbab-b01c-4ca0-bbd5-0a3fe33cca5e'
p8
(dp9
S'type'
p10
S'R'
p11
sS'label'
p12
S'LAB'
p13
ssS'8bf17f8d-a2e1-45c0-8b5c-7b13cd139f49'
p14
(dp15
g10
S'R'
p16
sg12
S'LAB'
p17
ssS'ae8a20a3-418d-405d-8542-de8689bbac68'
p18
(dp19
g10
S'R'
p20
sg12
S'SMALL ADMINISTRATIVE'
p21
ssS'ed0fba40-7988-4a43-907c-2cd767b9eaa7'
p22
(dp23
g10
S'R'
p24
sg12
S'CLASSROOM'
p25
ssS'0e0a0dde-dde8-486a-adf8-e39879e149c7'
p26
(dp27
g10
S'R'
p28
sg12
S'CLASSROOM'
p29
ssS'cc4db6f9-a124-4053-a16e-991dfbf1b469'
p30
(dp31
g10
S'C'
p32
sg12
S'HALL'
p33
ssS'df60696d-7eaf-42b1-b015-93732ca42811'
p34
(dp35
g10
S'C'
p36
sg12
S'HALL'
p37
ssS'bf4dea98-6cd1-4f36-a8d3-d161ae904a3c'
p38
(dp39
g10
S'C'
p40
sg12
S'CORRIDOR'
p41
ssS'8d09f5df-beba-46c4-87e7-0202abd8dc5e'
p42
(dp43
g10
S'C'
p44
sg12
S'CORRIDOR'
p45
ssS'2899271a-0f4f-4e1c-a571-a8a5d7d6e769'
p46
(dp47
g10
S'R'
p48
sg12
S'CLASSROOM'
p49
ssS'1dc539b2-16c5-4325-8a14-737141574324'
p50
(dp51
g10
S'C'
p52
sg12
S'WASHROOM'
p53
ssS'5b3a8022-e156-4682-92bf-c7449ec4a5c8'
p54
(dp55
g10
S'E'
p56
sg12
S'STAIRS'
p57
ssS'94d56731-9607-4e30-b9c4-908e4a65d6e9'
p58
(dp59
g10
S'C'
p60
sg12
S'CORRIDOR'
p61
ssS'487fe805-bee3-4c7f-b1f6-032c3075cec6'
p62
(dp63
g10
S'R'
p64
sg12
S'LAB'
p65
ssS'c8acd591-9eb4-4934-89f5-2044f1cff300'
p66
(dp67
g10
S'E'
p68
sg12
S'ELEVATOR'
p69
ssS'02f6c378-bed7-424f-8841-532adcaf4ac2'
p70
(dp71
g10
S'C'
p72
sg12
S'CORRIDOR'
p73
ssS'124b5b40-bcad-4f42-958d-b1f7dab72fc6'
p74
(dp75
g10
S'R'
p76
sg12
S'CLASSROOM'
p77
ssS'd861cedf-6065-46e4-b6ad-94925f52176c'
p78
(dp79
g10
S'C'
p80
sg12
S'WASHROOM'
p81
ssS'd80edcc4-c358-4391-aaed-11243ae6b4f9'
p82
(dp83
g10
S'R'
p84
sg12
S'LAB'
p85
ssS'0277904d-3177-4e2f-ba93-b02d4d711e2b'
p86
(dp87
g10
S'E'
p88
sg12
S'ELEVATOR'
p89
ssS'ecf80e38-c358-4aa3-9c57-26ed5e06c639'
p90
(dp91
g10
S'E'
p92
sg12
S'STAIRS'
p93
ssS'9165e5d1-8086-4bb5-a42a-24ef9daffa33'
p94
(dp95
g10
S'C'
p96
sg12
S'CORRIDOR'
p97
ssS'cef511e0-4fd3-4fe2-b76f-a1e3869d6925'
p98
(dp99
g10
S'R'
p100
sg12
S'LAB'
p101
ssS'33a4b08a-e009-4668-9044-7301535d5241'
p102
(dp103
g10
S'C'
p104
sg12
S'CORRIDOR'
p105
ssS'cae27f9c-8282-471d-8f47-196fa9104e41'
p106
(dp107
g10
S'C'
p108
sg12
S'WASHROOM'
p109
ssS'ec56dfcb-6bf6-4875-b9d3-1801b3992c95'
p110
(dp111
g10
S'R'
p112
sg12
S'CLASSROOM'
p113
ssS'b4f6e07b-67be-474f-bc1c-f9d2cefed845'
p114
(dp115
g10
S'C'
p116
sg12
S'CORRIDOR'
p117
ssS'c927adfb-a104-43f6-80f6-5f341da6c251'
p118
(dp119
g10
S'C'
p120
sg12
S'WASHROOM'
p121
ssS'f7b52024-7026-4580-a089-6968e824e949'
p122
(dp123
g10
S'R'
p124
sg12
S'LAB'
p125
ssS'18000508-25dc-4559-9292-c23d14b3d4f5'
p126
(dp127
g10
S'R'
p128
sg12
S'CLASSROOM'
p129
ssS'0c8374c9-0880-4272-88d1-619d91dde929'
p130
(dp131
g10
S'E'
p132
sg12
S'ELEVATOR'
p133
ssS'1d417818-60a6-4207-8898-34efa7e3abfc'
p134
(dp135
g10
S'R'
p136
sg12
S'MEDIUM ADMINISTRATIVE'
p137
ssS'7ad611f8-7e47-41e4-a124-9da1165e2d36'
p138
(dp139
g10
S'C'
p140
sg12
S'CORRIDOR'
p141
ssS'4e2a7faf-e63e-43b2-a841-5c0bbb5ab240'
p142
(dp143
g10
S'E'
p144
sg12
S'ENTRANCE'
p145
ssS'83fdd918-8572-446c-b795-65bcee3e129d'
p146
(dp147
g10
S'R'
p148
sg12
S'LIBRARY'
p149
ssS'ab88cd37-7b13-49a0-a879-0656b14991b8'
p150
(dp151
g10
S'R'
p152
sg12
S'SMALL ADMINISTRATIVE'
p153
ssS'3375a67e-f3e4-4a90-9677-c42cff117cd5'
p154
(dp155
g10
S'R'
p156
sg12
S'SMALL ADMINISTRATIVE'
p157
ssS'36743798-7b88-48a4-abcb-9bd97eda24a4'
p158
(dp159
g10
S'E'
p160
sg12
S'ENTRANCE'
p161
ssS'28a9c1af-eb59-4a00-8588-750ef81c5954'
p162
(dp163
g10
S'R'
p164
sg12
S'LAB'
p165
ssS'd847cff4-88bc-4df9-9957-11fbe56af2dc'
p166
(dp167
g10
S'R'
p168
sg12
S'SMALL ADMINISTRATIVE'
p169
sssS'graph'
p170
(dp171
sS'edge'
p172
(dp173
g8
(dp174
S'94d56731-9607-4e30-b9c4-908e4a65d6e9'
p175
(dp176
ssg14
(dp177
S'cc4db6f9-a124-4053-a16e-991dfbf1b469'
p178
(dp179
ssg18
(dp180
S'df60696d-7eaf-42b1-b015-93732ca42811'
p181
(dp182
ssg22
(dp183
S'8d09f5df-beba-46c4-87e7-0202abd8dc5e'
p184
(dp185
ssg26
(dp186
S'8d09f5df-beba-46c4-87e7-0202abd8dc5e'
p187
(dp188
ssg30
(dp189
S'bf4dea98-6cd1-4f36-a8d3-d161ae904a3c'
p190
(dp191
sS'8bf17f8d-a2e1-45c0-8b5c-7b13cd139f49'
p192
g179
sS'ecf80e38-c358-4aa3-9c57-26ed5e06c639'
p193
(dp194
sS'02f6c378-bed7-424f-8841-532adcaf4ac2'
p195
(dp196
ssg34
(dp197
S'ab88cd37-7b13-49a0-a879-0656b14991b8'
p198
(dp199
sS'3375a67e-f3e4-4a90-9677-c42cff117cd5'
p200
(dp201
sS'ae8a20a3-418d-405d-8542-de8689bbac68'
p202
g182
sS'5b3a8022-e156-4682-92bf-c7449ec4a5c8'
p203
(dp204
sS'94d56731-9607-4e30-b9c4-908e4a65d6e9'
p205
(dp206
sS'02f6c378-bed7-424f-8841-532adcaf4ac2'
p207
(dp208
sS'7ad611f8-7e47-41e4-a124-9da1165e2d36'
p209
(dp210
ssg38
(dp211
S'487fe805-bee3-4c7f-b1f6-032c3075cec6'
p212
(dp213
sS'd80edcc4-c358-4391-aaed-11243ae6b4f9'
p214
(dp215
sS'94d56731-9607-4e30-b9c4-908e4a65d6e9'
p216
(dp217
sS'cc4db6f9-a124-4053-a16e-991dfbf1b469'
p218
g191
ssg42
(dp219
S'36743798-7b88-48a4-abcb-9bd97eda24a4'
p220
(dp221
sS'2899271a-0f4f-4e1c-a571-a8a5d7d6e769'
p222
(dp223
sS'ed0fba40-7988-4a43-907c-2cd767b9eaa7'
p224
g185
sS'0e0a0dde-dde8-486a-adf8-e39879e149c7'
p225
g188
sS'ec56dfcb-6bf6-4875-b9d3-1801b3992c95'
p226
(dp227
sS'18000508-25dc-4559-9292-c23d14b3d4f5'
p228
(dp229
sS'02f6c378-bed7-424f-8841-532adcaf4ac2'
p230
(dp231
sS'124b5b40-bcad-4f42-958d-b1f7dab72fc6'
p232
(dp233
ssg46
(dp234
S'8d09f5df-beba-46c4-87e7-0202abd8dc5e'
p235
g223
ssg50
(dp236
S'02f6c378-bed7-424f-8841-532adcaf4ac2'
p237
(dp238
ssg54
(dp239
S'df60696d-7eaf-42b1-b015-93732ca42811'
p240
g204
ssg58
(dp241
S'bf4dea98-6cd1-4f36-a8d3-d161ae904a3c'
p242
g217
sS'b4eddbab-b01c-4ca0-bbd5-0a3fe33cca5e'
p243
g176
sS'd80edcc4-c358-4391-aaed-11243ae6b4f9'
p244
(dp245
sS'cef511e0-4fd3-4fe2-b76f-a1e3869d6925'
p246
(dp247
sS'df60696d-7eaf-42b1-b015-93732ca42811'
p248
g206
ssg62
(dp249
S'bf4dea98-6cd1-4f36-a8d3-d161ae904a3c'
p250
g213
ssg66
(dp251
S'02f6c378-bed7-424f-8841-532adcaf4ac2'
p252
(dp253
ssg70
(dp254
S'd80edcc4-c358-4391-aaed-11243ae6b4f9'
p255
(dp256
sS'0277904d-3177-4e2f-ba93-b02d4d711e2b'
p257
(dp258
sS'df60696d-7eaf-42b1-b015-93732ca42811'
p259
g208
sS'8d09f5df-beba-46c4-87e7-0202abd8dc5e'
p260
g231
sS'cae27f9c-8282-471d-8f47-196fa9104e41'
p261
(dp262
sS'1dc539b2-16c5-4325-8a14-737141574324'
p263
g238
sS'cc4db6f9-a124-4053-a16e-991dfbf1b469'
p264
g196
sS'c8acd591-9eb4-4934-89f5-2044f1cff300'
p265
g253
ssg74
(dp266
S'8d09f5df-beba-46c4-87e7-0202abd8dc5e'
p267
g233
ssg78
(dp268
S'33a4b08a-e009-4668-9044-7301535d5241'
p269
(dp270
ssg82
(dp271
S'bf4dea98-6cd1-4f36-a8d3-d161ae904a3c'
p272
g215
sS'02f6c378-bed7-424f-8841-532adcaf4ac2'
p273
g256
sS'94d56731-9607-4e30-b9c4-908e4a65d6e9'
p274
g245
ssg86
(dp275
S'02f6c378-bed7-424f-8841-532adcaf4ac2'
p276
g258
ssg90
(dp277
S'cc4db6f9-a124-4053-a16e-991dfbf1b469'
p278
g194
ssg94
(dp279
S'33a4b08a-e009-4668-9044-7301535d5241'
p280
(dp281
sS'7ad611f8-7e47-41e4-a124-9da1165e2d36'
p282
(dp283
ssg98
(dp284
S'94d56731-9607-4e30-b9c4-908e4a65d6e9'
p285
g247
ssg102
(dp286
S'c927adfb-a104-43f6-80f6-5f341da6c251'
p287
(dp288
sS'd861cedf-6065-46e4-b6ad-94925f52176c'
p289
g270
sS'1d417818-60a6-4207-8898-34efa7e3abfc'
p290
(dp291
sS'9165e5d1-8086-4bb5-a42a-24ef9daffa33'
p292
g281
sS'b4f6e07b-67be-474f-bc1c-f9d2cefed845'
p293
(dp294
ssg106
(dp295
S'02f6c378-bed7-424f-8841-532adcaf4ac2'
p296
g262
ssg110
(dp297
S'8d09f5df-beba-46c4-87e7-0202abd8dc5e'
p298
g227
ssg114
(dp299
S'4e2a7faf-e63e-43b2-a841-5c0bbb5ab240'
p300
(dp301
sS'83fdd918-8572-446c-b795-65bcee3e129d'
p302
(dp303
sS'33a4b08a-e009-4668-9044-7301535d5241'
p304
g294
sS'7ad611f8-7e47-41e4-a124-9da1165e2d36'
p305
(dp306
ssg118
(dp307
S'33a4b08a-e009-4668-9044-7301535d5241'
p308
g288
ssg122
(dp309
S'7ad611f8-7e47-41e4-a124-9da1165e2d36'
p310
(dp311
ssg126
(dp312
S'8d09f5df-beba-46c4-87e7-0202abd8dc5e'
p313
g229
ssg130
(dp314
S'7ad611f8-7e47-41e4-a124-9da1165e2d36'
p315
(dp316
ssg134
(dp317
S'33a4b08a-e009-4668-9044-7301535d5241'
p318
g291
ssg138
(dp319
S'df60696d-7eaf-42b1-b015-93732ca42811'
p320
g210
sS'9165e5d1-8086-4bb5-a42a-24ef9daffa33'
p321
g283
sS'28a9c1af-eb59-4a00-8588-750ef81c5954'
p322
(dp323
sS'b4f6e07b-67be-474f-bc1c-f9d2cefed845'
p324
g306
sS'd847cff4-88bc-4df9-9957-11fbe56af2dc'
p325
(dp326
sS'f7b52024-7026-4580-a089-6968e824e949'
p327
g311
sS'83fdd918-8572-446c-b795-65bcee3e129d'
p328
(dp329
sS'0c8374c9-0880-4272-88d1-619d91dde929'
p330
g316
ssg142
(dp331
S'b4f6e07b-67be-474f-bc1c-f9d2cefed845'
p332
g301
ssg146
(dp333
S'b4f6e07b-67be-474f-bc1c-f9d2cefed845'
p334
g303
sS'7ad611f8-7e47-41e4-a124-9da1165e2d36'
p335
g329
ssg150
(dp336
S'df60696d-7eaf-42b1-b015-93732ca42811'
p337
g199
ssg154
(dp338
S'df60696d-7eaf-42b1-b015-93732ca42811'
p339
g201
ssg158
(dp340
S'8d09f5df-beba-46c4-87e7-0202abd8dc5e'
p341
g221
ssg162
(dp342
S'7ad611f8-7e47-41e4-a124-9da1165e2d36'
p343
g323
ssg166
(dp344
S'7ad611f8-7e47-41e4-a124-9da1165e2d36'
p345
g326
sssS'adj'
p346
g173
sb.