ccopy_reg
_reconstructor
p0
(cnetworkx.classes.graph
Graph
p1
c__builtin__
object
p2
Ntp3
Rp4
(dp5
S'node'
p6
(dp7
S'7bd958fc-3463-4aa1-9942-cade61c98360'
p8
(dp9
S'type'
p10
S'C'
p11
sS'label'
p12
S'LOBBY'
p13
ssS'a122c851-96e3-4278-aa1d-9bf46c83a215'
p14
(dp15
g10
S'C'
p16
sg12
S'WASHROOM'
p17
ssS'6bfbbca1-4120-4dcc-b9da-d565b507d420'
p18
(dp19
g10
S'R'
p20
sg12
S'LAB'
p21
ssS'23ce0008-2813-4b61-8dc9-c9728e86f133'
p22
(dp23
g10
S'R'
p24
sg12
S'CLASSROOM'
p25
ssS'3bf15fbc-aefe-4b11-90ea-d80341c25756'
p26
(dp27
g10
S'R'
p28
sg12
S'MEDIUM SERVICE'
p29
ssS'5d696161-d6d5-44c0-b029-8002ad342295'
p30
(dp31
g10
S'R'
p32
sg12
S'BATHROOM'
p33
ssS'88e2ce79-7fae-4e36-96d8-4684815abd22'
p34
(dp35
g10
S'R'
p36
sg12
S'CLOSET'
p37
ssS'74e9c01e-3cd4-41f9-8e4a-5167a1de7a0b'
p38
(dp39
g10
S'C'
p40
sg12
S'CORRIDOR'
p41
ssS'123c0468-bbf6-45a5-b8e0-7dc89840a381'
p42
(dp43
g10
S'C'
p44
sg12
S'CORRIDOR'
p45
ssS'c47c1dc0-3842-459d-a5a7-9a7aa8bcc687'
p46
(dp47
g10
S'E'
p48
sg12
S'ENTRANCE'
p49
ssS'541973b1-9d07-4117-aaaf-c1c9c54acfa7'
p50
(dp51
g10
S'C'
p52
sg12
S'WASHROOM'
p53
ssS'ce5065ec-2ac8-4ac5-ab19-9358b2ab8a0d'
p54
(dp55
g10
S'R'
p56
sg12
S'CLASSROOM'
p57
ssS'23ebe52e-779e-41af-b891-56e890e6487a'
p58
(dp59
g10
S'R'
p60
sg12
S'MEDIUM SERVICE'
p61
ssS'4740f9ed-ad1b-45b9-8117-c5c0f7139eea'
p62
(dp63
g10
S'C'
p64
sg12
S'CORRIDOR'
p65
ssS'e48fa72e-acd3-4bbe-9d39-a29500b0b8e2'
p66
(dp67
g10
S'R'
p68
sg12
S'CLASSROOM'
p69
ssS'f008a502-ed2d-4f6e-a4e8-2eb0acc1c149'
p70
(dp71
g10
S'E'
p72
sg12
S'ENTRANCE'
p73
ssS'd7e66e88-db89-4a1a-8917-bddeebe24201'
p74
(dp75
g10
S'R'
p76
sg12
S'BATHROOM'
p77
ssS'27c1225f-47db-45ce-bcde-13a1a0e84d90'
p78
(dp79
g10
S'R'
p80
sg12
S'CLASSROOM'
p81
ssS'40412422-a500-44f3-88a6-90597ebd6ef5'
p82
(dp83
g10
S'R'
p84
sg12
S'MEDIUM'
p85
ssS'58276bac-218d-4e28-ae90-147f8b85fc14'
p86
(dp87
g10
S'R'
p88
sg12
S'CLASSROOM'
p89
sssS'graph'
p90
(dp91
sS'edge'
p92
(dp93
g8
(dp94
S'a122c851-96e3-4278-aa1d-9bf46c83a215'
p95
(dp96
sS'6bfbbca1-4120-4dcc-b9da-d565b507d420'
p97
(dp98
sS'23ce0008-2813-4b61-8dc9-c9728e86f133'
p99
(dp100
sS'd7e66e88-db89-4a1a-8917-bddeebe24201'
p101
(dp102
sS'e48fa72e-acd3-4bbe-9d39-a29500b0b8e2'
p103
(dp104
sS'123c0468-bbf6-45a5-b8e0-7dc89840a381'
p105
(dp106
sS'c47c1dc0-3842-459d-a5a7-9a7aa8bcc687'
p107
(dp108
sS'ce5065ec-2ac8-4ac5-ab19-9358b2ab8a0d'
p109
(dp110
sS'27c1225f-47db-45ce-bcde-13a1a0e84d90'
p111
(dp112
sS'4740f9ed-ad1b-45b9-8117-c5c0f7139eea'
p113
(dp114
sS'58276bac-218d-4e28-ae90-147f8b85fc14'
p115
(dp116
ssg14
(dp117
S'7bd958fc-3463-4aa1-9942-cade61c98360'
p118
g96
ssg18
(dp119
S'7bd958fc-3463-4aa1-9942-cade61c98360'
p120
g98
ssg22
(dp121
S'7bd958fc-3463-4aa1-9942-cade61c98360'
p122
g100
ssg26
(dp123
S'123c0468-bbf6-45a5-b8e0-7dc89840a381'
p124
(dp125
ssg30
(dp126
S'4740f9ed-ad1b-45b9-8117-c5c0f7139eea'
p127
(dp128
ssg34
(dp129
S'123c0468-bbf6-45a5-b8e0-7dc89840a381'
p130
(dp131
ssg38
(dp132
S'541973b1-9d07-4117-aaaf-c1c9c54acfa7'
p133
(dp134
sS'123c0468-bbf6-45a5-b8e0-7dc89840a381'
p135
(dp136
ssg42
(dp137
S'7bd958fc-3463-4aa1-9942-cade61c98360'
p138
g106
sS'3bf15fbc-aefe-4b11-90ea-d80341c25756'
p139
g125
sS'74e9c01e-3cd4-41f9-8e4a-5167a1de7a0b'
p140
g136
sS'88e2ce79-7fae-4e36-96d8-4684815abd22'
p141
g131
ssg46
(dp142
S'7bd958fc-3463-4aa1-9942-cade61c98360'
p143
g108
ssg50
(dp144
S'74e9c01e-3cd4-41f9-8e4a-5167a1de7a0b'
p145
g134
ssg54
(dp146
S'7bd958fc-3463-4aa1-9942-cade61c98360'
p147
g110
ssg58
(dp148
S'4740f9ed-ad1b-45b9-8117-c5c0f7139eea'
p149
(dp150
ssg62
(dp151
S'7bd958fc-3463-4aa1-9942-cade61c98360'
p152
g114
sS'23ebe52e-779e-41af-b891-56e890e6487a'
p153
g150
sS'40412422-a500-44f3-88a6-90597ebd6ef5'
p154
(dp155
sS'f008a502-ed2d-4f6e-a4e8-2eb0acc1c149'
p156
(dp157
sS'5d696161-d6d5-44c0-b029-8002ad342295'
p158
g128
ssg66
(dp159
S'7bd958fc-3463-4aa1-9942-cade61c98360'
p160
g104
ssg70
(dp161
S'4740f9ed-ad1b-45b9-8117-c5c0f7139eea'
p162
g157
ssg74
(dp163
S'7bd958fc-3463-4aa1-9942-cade61c98360'
p164
g102
ssg78
(dp165
S'7bd958fc-3463-4aa1-9942-cade61c98360'
p166
g112
ssg82
(dp167
S'4740f9ed-ad1b-45b9-8117-c5c0f7139eea'
p168
g155
ssg86
(dp169
S'7bd958fc-3463-4aa1-9942-cade61c98360'
p170
g116
sssS'adj'
p171
g93
sb.