ccopy_reg
_reconstructor
p0
(cnetworkx.classes.graph
Graph
p1
c__builtin__
object
p2
Ntp3
Rp4
(dp5
S'node'
p6
(dp7
S'5401233d-3c79-4ef4-afc9-51213df45b81'
p8
(dp9
S'type'
p10
S'R'
p11
sS'label'
p12
S'CLASSROOM'
p13
ssS'a7b82e09-29d1-49c1-8aa0-1647c741baf2'
p14
(dp15
g10
S'R'
p16
sg12
S'CLASSROOM'
p17
ssS'f7ef7f2b-0a8b-4ea0-ae01-f0514a7d1a52'
p18
(dp19
g10
S'C'
p20
sg12
S'CORRIDOR'
p21
ssS'4acad0fb-ac9c-4798-8b47-d319ee12903e'
p22
(dp23
g10
S'E'
p24
sg12
S'ENTRANCE'
p25
ssS'a233a97a-e629-4755-a742-2ec4bc8ef4a7'
p26
(dp27
g10
S'C'
p28
sg12
S'WASHROOM'
p29
ssS'cb45cd08-acb1-45ad-bb4e-c7ee5ca7d632'
p30
(dp31
g10
S'R'
p32
sg12
S'CLASSROOM'
p33
ssS'0edd0579-8435-46a0-a3ce-d3a267282ad5'
p34
(dp35
g10
S'E'
p36
sg12
S'ENTRANCE'
p37
ssS'af68cd5b-a218-4eb4-b8ba-4ebc4bac5879'
p38
(dp39
g10
S'E'
p40
sg12
S'ENTRANCE'
p41
ssS'170c07e8-654b-4bcd-ac4a-fd5fc736961b'
p42
(dp43
g10
S'R'
p44
sg12
S'CLASSROOM'
p45
ssS'0631f5bc-fe70-4880-bf6f-869d5b985685'
p46
(dp47
g10
S'R'
p48
sg12
S'CLOSET'
p49
ssS'07fbb88c-8499-4d43-94e4-c3234ae258fa'
p50
(dp51
g10
S'R'
p52
sg12
S'CLASSROOM'
p53
ssS'55ca6e3c-92eb-43ee-bab3-265cea2f6264'
p54
(dp55
g10
S'E'
p56
sg12
S'STAIRS'
p57
ssS'f147fab8-e0dc-4260-b614-3f7a7334e88c'
p58
(dp59
g10
S'R'
p60
sg12
S'CLASSROOM'
p61
ssS'9a2e9e79-6c3d-48ae-b661-3729ce6ef326'
p62
(dp63
g10
S'R'
p64
sg12
S'CLASSROOM'
p65
ssS'8b57c6ad-170a-4e49-8798-4012cd49ce67'
p66
(dp67
g10
S'E'
p68
sg12
S'ENTRANCE'
p69
ssS'51acc39b-e4e2-4bf6-a52d-3f677e8a1182'
p70
(dp71
g10
S'E'
p72
sg12
S'STAIRS'
p73
ssS'a1e04afe-fd79-4353-b0f5-eb3229771b8d'
p74
(dp75
g10
S'C'
p76
sg12
S'WASHROOM'
p77
ssS'ba52c201-4322-4a5c-94c5-933c5bb7a1f3'
p78
(dp79
g10
S'E'
p80
sg12
S'ENTRANCE'
p81
ssS'3a8b6a6e-2f85-4261-bcd8-a1dbfaffa0c0'
p82
(dp83
g10
S'R'
p84
sg12
S'CLOSET'
p85
ssS'590f12d9-048b-4408-9515-9e0daa4f249b'
p86
(dp87
g10
S'C'
p88
sg12
S'HALL'
p89
ssS'efba248c-a60c-4693-a961-394feba25dc5'
p90
(dp91
g10
S'C'
p92
sg12
S'CORRIDOR'
p93
ssS'37e3c252-8fd6-4717-8058-2072d6138c3f'
p94
(dp95
g10
S'R'
p96
sg12
S'CLASSROOM'
p97
ssS'aa89250a-7df7-4f1a-8644-dde14916fc02'
p98
(dp99
g10
S'E'
p100
sg12
S'ENTRANCE'
p101
sssS'graph'
p102
(dp103
sS'edge'
p104
(dp105
g8
(dp106
S'f7ef7f2b-0a8b-4ea0-ae01-f0514a7d1a52'
p107
(dp108
ssg14
(dp109
S'efba248c-a60c-4693-a961-394feba25dc5'
p110
(dp111
ssg18
(dp112
S'5401233d-3c79-4ef4-afc9-51213df45b81'
p113
g108
sS'590f12d9-048b-4408-9515-9e0daa4f249b'
p114
(dp115
sS'a233a97a-e629-4755-a742-2ec4bc8ef4a7'
p116
(dp117
sS'51acc39b-e4e2-4bf6-a52d-3f677e8a1182'
p118
(dp119
sS'cb45cd08-acb1-45ad-bb4e-c7ee5ca7d632'
p120
(dp121
ssg22
(dp122
S'590f12d9-048b-4408-9515-9e0daa4f249b'
p123
(dp124
ssg26
(dp125
S'aa89250a-7df7-4f1a-8644-dde14916fc02'
p126
(dp127
sS'f7ef7f2b-0a8b-4ea0-ae01-f0514a7d1a52'
p128
g117
ssg30
(dp129
S'f7ef7f2b-0a8b-4ea0-ae01-f0514a7d1a52'
p130
g121
ssg34
(dp131
S'3a8b6a6e-2f85-4261-bcd8-a1dbfaffa0c0'
p132
(dp133
ssg38
(dp134
S'a1e04afe-fd79-4353-b0f5-eb3229771b8d'
p135
(dp136
ssg42
(dp137
S'590f12d9-048b-4408-9515-9e0daa4f249b'
p138
(dp139
ssg46
(dp140
S'590f12d9-048b-4408-9515-9e0daa4f249b'
p141
(dp142
sS'8b57c6ad-170a-4e49-8798-4012cd49ce67'
p143
(dp144
ssg50
(dp145
S'590f12d9-048b-4408-9515-9e0daa4f249b'
p146
(dp147
ssg54
(dp148
S'efba248c-a60c-4693-a961-394feba25dc5'
p149
(dp150
ssg58
(dp151
S'590f12d9-048b-4408-9515-9e0daa4f249b'
p152
(dp153
ssg62
(dp154
S'590f12d9-048b-4408-9515-9e0daa4f249b'
p155
(dp156
ssg66
(dp157
S'0631f5bc-fe70-4880-bf6f-869d5b985685'
p158
g144
ssg70
(dp159
S'f7ef7f2b-0a8b-4ea0-ae01-f0514a7d1a52'
p160
g119
ssg74
(dp161
S'af68cd5b-a218-4eb4-b8ba-4ebc4bac5879'
p162
g136
sS'efba248c-a60c-4693-a961-394feba25dc5'
p163
(dp164
ssg78
(dp165
S'590f12d9-048b-4408-9515-9e0daa4f249b'
p166
(dp167
ssg82
(dp168
S'590f12d9-048b-4408-9515-9e0daa4f249b'
p169
(dp170
sS'0edd0579-8435-46a0-a3ce-d3a267282ad5'
p171
g133
ssg86
(dp172
S'f147fab8-e0dc-4260-b614-3f7a7334e88c'
p173
g153
sS'f7ef7f2b-0a8b-4ea0-ae01-f0514a7d1a52'
p174
g115
sS'170c07e8-654b-4bcd-ac4a-fd5fc736961b'
p175
g139
sS'ba52c201-4322-4a5c-94c5-933c5bb7a1f3'
p176
g167
sS'0631f5bc-fe70-4880-bf6f-869d5b985685'
p177
g142
sS'3a8b6a6e-2f85-4261-bcd8-a1dbfaffa0c0'
p178
g170
sS'4acad0fb-ac9c-4798-8b47-d319ee12903e'
p179
g124
sS'efba248c-a60c-4693-a961-394feba25dc5'
p180
(dp181
sS'9a2e9e79-6c3d-48ae-b661-3729ce6ef326'
p182
g156
sS'07fbb88c-8499-4d43-94e4-c3234ae258fa'
p183
g147
ssg90
(dp184
S'37e3c252-8fd6-4717-8058-2072d6138c3f'
p185
(dp186
sS'590f12d9-048b-4408-9515-9e0daa4f249b'
p187
g181
sS'55ca6e3c-92eb-43ee-bab3-265cea2f6264'
p188
g150
sS'a7b82e09-29d1-49c1-8aa0-1647c741baf2'
p189
g111
sS'a1e04afe-fd79-4353-b0f5-eb3229771b8d'
p190
g164
ssg94
(dp191
S'efba248c-a60c-4693-a961-394feba25dc5'
p192
g186
ssg98
(dp193
S'a233a97a-e629-4755-a742-2ec4bc8ef4a7'
p194
g127
sssS'adj'
p195
g105
sb.