ccopy_reg
_reconstructor
p0
(cnetworkx.classes.graph
Graph
p1
c__builtin__
object
p2
Ntp3
Rp4
(dp5
S'node'
p6
(dp7
S'4ef5cd2a-d626-4c97-b327-5a69c85c21c6'
p8
(dp9
S'type'
p10
S'R'
p11
sS'label'
p12
S'CLOSET'
p13
ssS'd67bcdf0-a2ea-44cc-b248-bdf74925ed63'
p14
(dp15
g10
S'C'
p16
sg12
S'CORRIDOR'
p17
ssS'54856d94-4574-40ff-88e7-497262386523'
p18
(dp19
g10
S'R'
p20
sg12
S'CLASSROOM'
p21
ssS'dde16baa-158d-499d-b1ee-c3728fe324fb'
p22
(dp23
g10
S'R'
p24
sg12
S'BATHROOM'
p25
ssS'0e291d10-bdd3-4bcd-a49b-925f8bed564e'
p26
(dp27
g10
S'R'
p28
sg12
S'CLASSROOM'
p29
ssS'3d72fe54-8142-482d-8d65-c2fa47004251'
p30
(dp31
g10
S'C'
p32
sg12
S'WASHROOM'
p33
ssS'993b3731-e209-4bb3-81de-faee59a8a41c'
p34
(dp35
g10
S'E'
p36
sg12
S'STAIRS'
p37
ssS'f38847d1-e191-4c2c-9be1-43eb3241c82f'
p38
(dp39
g10
S'E'
p40
sg12
S'ENTRANCE'
p41
ssS'f54a3973-f6c5-4e07-8185-371370342001'
p42
(dp43
g10
S'E'
p44
sg12
S'ENTRANCE'
p45
ssS'432887ea-e533-44a0-9f32-850141466848'
p46
(dp47
g10
S'C'
p48
sg12
S'HALL'
p49
ssS'2a032a9a-9255-4d78-9b38-1ce749c71701'
p50
(dp51
g10
S'R'
p52
sg12
S'CLOSET'
p53
ssS'036b7b15-5e70-4d52-b527-61653d739815'
p54
(dp55
g10
S'R'
p56
sg12
S'CLASSROOM'
p57
ssS'941e0f52-9e15-40e7-88e4-7d55e4793041'
p58
(dp59
g10
S'E'
p60
sg12
S'ENTRANCE'
p61
ssS'7db88cde-6882-401a-851d-04d9665b439e'
p62
(dp63
g10
S'R'
p64
sg12
S'CLOSET'
p65
ssS'9199711e-a410-42f8-b4f7-cd664206402b'
p66
(dp67
g10
S'R'
p68
sg12
S'CLASSROOM'
p69
ssS'9718e4da-6f92-4990-83a0-6afa39ce2070'
p70
(dp71
g10
S'R'
p72
sg12
S'CONFERENCE'
p73
ssS'867862de-13f9-42d1-87ed-bff71a9cf8a6'
p74
(dp75
g10
S'R'
p76
sg12
S'LIBRARY'
p77
ssS'62d06ce8-5724-44e1-abe9-5a8691ad16ec'
p78
(dp79
g10
S'R'
p80
sg12
S'CLOSET'
p81
ssS'6109095e-b4ba-4c8b-8c63-0c12608d7db2'
p82
(dp83
g10
S'R'
p84
sg12
S'CLOSET'
p85
ssS'b7d12405-8bfc-46d9-bb70-fe2da64fa0d2'
p86
(dp87
g10
S'E'
p88
sg12
S'STAIRS'
p89
ssS'abc8d33d-d7c3-4424-8881-dfb2950acc7a'
p90
(dp91
g10
S'E'
p92
sg12
S'STAIRS'
p93
ssS'710b921f-968b-451a-9dfb-aebd42e210dd'
p94
(dp95
g10
S'C'
p96
sg12
S'CORRIDOR'
p97
ssS'78f5d2fa-9749-4eb1-aa3d-2290880b9edf'
p98
(dp99
g10
S'E'
p100
sg12
S'STAIRS'
p101
ssS'3c48e8e6-e51d-4e53-a287-bdb434585c8f'
p102
(dp103
g10
S'R'
p104
sg12
S'MEDIUM'
p105
ssS'd84884cb-4093-40f2-bb6d-2ce32a6f40e7'
p106
(dp107
g10
S'R'
p108
sg12
S'BIG ADMINISTRATIVE'
p109
ssS'73f772e8-be92-4b10-bfb9-83fdb61fff01'
p110
(dp111
g10
S'R'
p112
sg12
S'CLASSROOM'
p113
ssS'0894c2fa-e805-4913-88bd-e398359e1222'
p114
(dp115
g10
S'R'
p116
sg12
S'CLOSET'
p117
ssS'57642884-4711-4529-8e9e-b24714143b89'
p118
(dp119
g10
S'E'
p120
sg12
S'STAIRS'
p121
ssS'891f7946-c7cf-4356-8520-4eb728881761'
p122
(dp123
g10
S'C'
p124
sg12
S'CORRIDOR'
p125
ssS'a376008a-a8a2-451d-bab0-e77ae26f0871'
p126
(dp127
g10
S'E'
p128
sg12
S'STAIRS'
p129
ssS'5990bc75-3035-401d-80e5-3a7ced66f1de'
p130
(dp131
g10
S'R'
p132
sg12
S'BATHROOM'
p133
ssS'c1e833ed-d5d9-4447-a87a-4b2cdc1a435f'
p134
(dp135
g10
S'C'
p136
sg12
S'WASHROOM'
p137
sssS'graph'
p138
(dp139
sS'edge'
p140
(dp141
g8
(dp142
S'73f772e8-be92-4b10-bfb9-83fdb61fff01'
p143
(dp144
ssg14
(dp145
S'abc8d33d-d7c3-4424-8881-dfb2950acc7a'
p146
(dp147
sS'9718e4da-6f92-4990-83a0-6afa39ce2070'
p148
(dp149
sS'57642884-4711-4529-8e9e-b24714143b89'
p150
(dp151
sS'a376008a-a8a2-451d-bab0-e77ae26f0871'
p152
(dp153
sS'710b921f-968b-451a-9dfb-aebd42e210dd'
p154
(dp155
sS'c1e833ed-d5d9-4447-a87a-4b2cdc1a435f'
p156
(dp157
ssg18
(dp158
S'6109095e-b4ba-4c8b-8c63-0c12608d7db2'
p159
(dp160
sS'710b921f-968b-451a-9dfb-aebd42e210dd'
p161
(dp162
ssg22
(dp163
S'3c48e8e6-e51d-4e53-a287-bdb434585c8f'
p164
(dp165
ssg26
(dp166
S'710b921f-968b-451a-9dfb-aebd42e210dd'
p167
(dp168
sS'62d06ce8-5724-44e1-abe9-5a8691ad16ec'
p169
(dp170
ssg30
(dp171
S'891f7946-c7cf-4356-8520-4eb728881761'
p172
(dp173
ssg34
(dp174
S'891f7946-c7cf-4356-8520-4eb728881761'
p175
(dp176
ssg38
(dp177
S'432887ea-e533-44a0-9f32-850141466848'
p178
(dp179
ssg42
(dp180
S'710b921f-968b-451a-9dfb-aebd42e210dd'
p181
(dp182
ssg46
(dp183
S'3c48e8e6-e51d-4e53-a287-bdb434585c8f'
p184
(dp185
sS'710b921f-968b-451a-9dfb-aebd42e210dd'
p186
(dp187
sS'd84884cb-4093-40f2-bb6d-2ce32a6f40e7'
p188
(dp189
sS'f38847d1-e191-4c2c-9be1-43eb3241c82f'
p190
g179
ssg50
(dp191
S'036b7b15-5e70-4d52-b527-61653d739815'
p192
(dp193
ssg54
(dp194
S'710b921f-968b-451a-9dfb-aebd42e210dd'
p195
(dp196
sS'2a032a9a-9255-4d78-9b38-1ce749c71701'
p197
g193
ssg58
(dp198
S'710b921f-968b-451a-9dfb-aebd42e210dd'
p199
(dp200
ssg62
(dp201
S'9199711e-a410-42f8-b4f7-cd664206402b'
p202
(dp203
ssg66
(dp204
S'7db88cde-6882-401a-851d-04d9665b439e'
p205
g203
sS'710b921f-968b-451a-9dfb-aebd42e210dd'
p206
(dp207
ssg70
(dp208
S'710b921f-968b-451a-9dfb-aebd42e210dd'
p209
(dp210
sS'891f7946-c7cf-4356-8520-4eb728881761'
p211
(dp212
sS'd67bcdf0-a2ea-44cc-b248-bdf74925ed63'
p213
g149
ssg74
(dp214
S'710b921f-968b-451a-9dfb-aebd42e210dd'
p215
(dp216
sS'0894c2fa-e805-4913-88bd-e398359e1222'
p217
(dp218
ssg78
(dp219
S'0e291d10-bdd3-4bcd-a49b-925f8bed564e'
p220
g170
ssg82
(dp221
S'54856d94-4574-40ff-88e7-497262386523'
p222
g160
ssg86
(dp223
S'891f7946-c7cf-4356-8520-4eb728881761'
p224
(dp225
ssg90
(dp226
S'd67bcdf0-a2ea-44cc-b248-bdf74925ed63'
p227
g147
ssg94
(dp228
S'9199711e-a410-42f8-b4f7-cd664206402b'
p229
g207
sS'73f772e8-be92-4b10-bfb9-83fdb61fff01'
p230
(dp231
sS'9718e4da-6f92-4990-83a0-6afa39ce2070'
p232
g210
sS'867862de-13f9-42d1-87ed-bff71a9cf8a6'
p233
g216
sS'f54a3973-f6c5-4e07-8185-371370342001'
p234
g182
sS'd67bcdf0-a2ea-44cc-b248-bdf74925ed63'
p235
g155
sS'432887ea-e533-44a0-9f32-850141466848'
p236
g187
sS'54856d94-4574-40ff-88e7-497262386523'
p237
g162
sS'891f7946-c7cf-4356-8520-4eb728881761'
p238
(dp239
sS'036b7b15-5e70-4d52-b527-61653d739815'
p240
g196
sS'941e0f52-9e15-40e7-88e4-7d55e4793041'
p241
g200
sS'0e291d10-bdd3-4bcd-a49b-925f8bed564e'
p242
g168
ssg98
(dp243
S'891f7946-c7cf-4356-8520-4eb728881761'
p244
(dp245
ssg102
(dp246
S'432887ea-e533-44a0-9f32-850141466848'
p247
g185
sS'dde16baa-158d-499d-b1ee-c3728fe324fb'
p248
g165
ssg106
(dp249
S'432887ea-e533-44a0-9f32-850141466848'
p250
g189
sS'5990bc75-3035-401d-80e5-3a7ced66f1de'
p251
(dp252
ssg110
(dp253
S'710b921f-968b-451a-9dfb-aebd42e210dd'
p254
g231
sS'4ef5cd2a-d626-4c97-b327-5a69c85c21c6'
p255
g144
ssg114
(dp256
S'867862de-13f9-42d1-87ed-bff71a9cf8a6'
p257
g218
ssg118
(dp258
S'd67bcdf0-a2ea-44cc-b248-bdf74925ed63'
p259
g151
ssg122
(dp260
S'993b3731-e209-4bb3-81de-faee59a8a41c'
p261
g176
sS'9718e4da-6f92-4990-83a0-6afa39ce2070'
p262
g212
sS'b7d12405-8bfc-46d9-bb70-fe2da64fa0d2'
p263
g225
sS'710b921f-968b-451a-9dfb-aebd42e210dd'
p264
g239
sS'78f5d2fa-9749-4eb1-aa3d-2290880b9edf'
p265
g245
sS'3d72fe54-8142-482d-8d65-c2fa47004251'
p266
g173
ssg126
(dp267
S'd67bcdf0-a2ea-44cc-b248-bdf74925ed63'
p268
g153
ssg130
(dp269
S'd84884cb-4093-40f2-bb6d-2ce32a6f40e7'
p270
g252
ssg134
(dp271
S'd67bcdf0-a2ea-44cc-b248-bdf74925ed63'
p272
g157
sssS'adj'
p273
g141
sb.