ccopy_reg
_reconstructor
p0
(cnetworkx.classes.graph
Graph
p1
c__builtin__
object
p2
Ntp3
Rp4
(dp5
S'node'
p6
(dp7
S'792ee7c9-756b-4328-a84f-56f7d8a84b2c'
p8
(dp9
S'type'
p10
S'R'
p11
sS'label'
p12
S'BIG ADMINISTRATIVE'
p13
ssS'65dd3621-6547-4344-b821-43b69be9f4c4'
p14
(dp15
g10
S'C'
p16
sg12
S'LOBBY'
p17
ssS'225f251b-106a-402b-a711-65d6a4382860'
p18
(dp19
g10
S'E'
p20
sg12
S'ENTRANCE'
p21
ssS'752fc865-4d9e-4dfd-9dff-5dfbacd3bfcf'
p22
(dp23
g10
S'R'
p24
sg12
S'CLASSROOM'
p25
ssS'2a0219d5-1263-4b1e-833b-9fb1bea7bf82'
p26
(dp27
g10
S'R'
p28
sg12
S'CLOSET'
p29
ssS'b6971bc2-818b-4873-bd5d-de16797dee7f'
p30
(dp31
g10
S'C'
p32
sg12
S'CORRIDOR'
p33
ssS'5356b171-2c3d-4e37-9f6f-4cb83bd95f02'
p34
(dp35
g10
S'R'
p36
sg12
S'MEDIUM SERVICE'
p37
ssS'079a4b49-13d5-4dbc-ab30-8a18c368012a'
p38
(dp39
g10
S'R'
p40
sg12
S'MEDIUM ADMINISTRATIVE'
p41
ssS'f126168f-b746-4e18-8412-6d8786f7d588'
p42
(dp43
g10
S'R'
p44
sg12
S'GYM'
p45
ssS'd5c226b3-a3f2-4ea1-8a71-918132789d1a'
p46
(dp47
g10
S'C'
p48
sg12
S'HALL'
p49
ssS'c1969b8d-df86-41bf-a234-a2f41f1b134b'
p50
(dp51
g10
S'E'
p52
sg12
S'STAIRS'
p53
ssS'cfcda8ed-96cc-4351-bade-b110808cb96d'
p54
(dp55
g10
S'R'
p56
sg12
S'CLASSROOM'
p57
ssS'1ae1e58a-eb18-4c84-8156-a5f469869dee'
p58
(dp59
g10
S'R'
p60
sg12
S'CLASSROOM'
p61
ssS'3016889b-7775-44b0-bb6a-7221248ade09'
p62
(dp63
g10
S'R'
p64
sg12
S'CLASSROOM'
p65
ssS'f0fa0b84-c0b8-45d6-89b9-8733041303a4'
p66
(dp67
g10
S'C'
p68
sg12
S'CORRIDOR'
p69
ssS'c80f2e48-e379-48c4-9a91-b43bd916206d'
p70
(dp71
g10
S'E'
p72
sg12
S'STAIRS'
p73
ssS'604788cb-cefb-49cb-a92e-b1b5d3e31bff'
p74
(dp75
g10
S'C'
p76
sg12
S'WASHROOM'
p77
ssS'eb46e23d-63c5-4260-88ca-2db29f5eadc9'
p78
(dp79
g10
S'C'
p80
sg12
S'WASHROOM'
p81
ssS'0e7d5b70-f3e5-4141-9d6d-4dbd92f01256'
p82
(dp83
g10
S'R'
p84
sg12
S'MEDIUM ADMINISTRATIVE'
p85
ssS'af7918b6-3cb8-4d48-9267-c332374ed26a'
p86
(dp87
g10
S'R'
p88
sg12
S'CLASSROOM'
p89
ssS'f220b6ac-d220-4e6b-8124-f9d38f30dbb7'
p90
(dp91
g10
S'R'
p92
sg12
S'CLASSROOM'
p93
ssS'd37731be-5870-4690-b481-81ff38e984cc'
p94
(dp95
g10
S'C'
p96
sg12
S'CORRIDOR'
p97
ssS'0481f43c-c84d-4d2b-adc2-44429ff508ea'
p98
(dp99
g10
S'C'
p100
sg12
S'WASHROOM'
p101
ssS'295be338-559a-4e50-ad49-36f7f6953838'
p102
(dp103
g10
S'R'
p104
sg12
S'CLASSROOM'
p105
ssS'76372c27-e7c5-44d7-b1e8-19d8cf764e03'
p106
(dp107
g10
S'R'
p108
sg12
S'MEDIUM ADMINISTRATIVE'
p109
ssS'4eea313a-4f46-4c62-925b-3f4b654abba0'
p110
(dp111
g10
S'C'
p112
sg12
S'WASHROOM'
p113
ssS'056db688-8665-4ebd-846d-02b3fc658d4d'
p114
(dp115
g10
S'R'
p116
sg12
S'MEDIUM SERVICE'
p117
ssS'2af7fb50-3da9-49fc-9b13-b58e8b0cb5e5'
p118
(dp119
g10
S'R'
p120
sg12
S'CLASSROOM'
p121
ssS'da8023ac-824f-4467-8046-690df018cc81'
p122
(dp123
g10
S'C'
p124
sg12
S'CORRIDOR'
p125
ssS'429f8183-b47d-4ec5-be00-a5b64f09f61d'
p126
(dp127
g10
S'C'
p128
sg12
S'WASHROOM'
p129
sssS'graph'
p130
(dp131
sS'edge'
p132
(dp133
g8
(dp134
S'f0fa0b84-c0b8-45d6-89b9-8733041303a4'
p135
(dp136
ssg14
(dp137
S'079a4b49-13d5-4dbc-ab30-8a18c368012a'
p138
(dp139
sS'f0fa0b84-c0b8-45d6-89b9-8733041303a4'
p140
(dp141
sS'0e7d5b70-f3e5-4141-9d6d-4dbd92f01256'
p142
(dp143
ssg18
(dp144
S'd5c226b3-a3f2-4ea1-8a71-918132789d1a'
p145
(dp146
ssg22
(dp147
S'd37731be-5870-4690-b481-81ff38e984cc'
p148
(dp149
ssg26
(dp150
S'da8023ac-824f-4467-8046-690df018cc81'
p151
(dp152
ssg30
(dp153
S'd37731be-5870-4690-b481-81ff38e984cc'
p154
(dp155
sS'604788cb-cefb-49cb-a92e-b1b5d3e31bff'
p156
(dp157
sS'd5c226b3-a3f2-4ea1-8a71-918132789d1a'
p158
(dp159
sS'1ae1e58a-eb18-4c84-8156-a5f469869dee'
p160
(dp161
sS'f220b6ac-d220-4e6b-8124-f9d38f30dbb7'
p162
(dp163
sS'3016889b-7775-44b0-bb6a-7221248ade09'
p164
(dp165
sS'5356b171-2c3d-4e37-9f6f-4cb83bd95f02'
p166
(dp167
sS'af7918b6-3cb8-4d48-9267-c332374ed26a'
p168
(dp169
ssg34
(dp170
S'b6971bc2-818b-4873-bd5d-de16797dee7f'
p171
g167
ssg38
(dp172
S'65dd3621-6547-4344-b821-43b69be9f4c4'
p173
g139
ssg42
(dp174
S'f0fa0b84-c0b8-45d6-89b9-8733041303a4'
p175
(dp176
ssg46
(dp177
S'c80f2e48-e379-48c4-9a91-b43bd916206d'
p178
(dp179
sS'b6971bc2-818b-4873-bd5d-de16797dee7f'
p180
g159
sS'225f251b-106a-402b-a711-65d6a4382860'
p181
g146
sS'f0fa0b84-c0b8-45d6-89b9-8733041303a4'
p182
(dp183
ssg50
(dp184
S'd37731be-5870-4690-b481-81ff38e984cc'
p185
(dp186
ssg54
(dp187
S'd37731be-5870-4690-b481-81ff38e984cc'
p188
(dp189
ssg58
(dp190
S'b6971bc2-818b-4873-bd5d-de16797dee7f'
p191
g161
ssg62
(dp192
S'b6971bc2-818b-4873-bd5d-de16797dee7f'
p193
g165
ssg66
(dp194
S'792ee7c9-756b-4328-a84f-56f7d8a84b2c'
p195
g136
sS'f126168f-b746-4e18-8412-6d8786f7d588'
p196
g176
sS'76372c27-e7c5-44d7-b1e8-19d8cf764e03'
p197
(dp198
sS'056db688-8665-4ebd-846d-02b3fc658d4d'
p199
(dp200
sS'65dd3621-6547-4344-b821-43b69be9f4c4'
p201
g141
sS'eb46e23d-63c5-4260-88ca-2db29f5eadc9'
p202
(dp203
sS'0e7d5b70-f3e5-4141-9d6d-4dbd92f01256'
p204
(dp205
sS'0481f43c-c84d-4d2b-adc2-44429ff508ea'
p206
(dp207
sS'da8023ac-824f-4467-8046-690df018cc81'
p208
(dp209
sS'd5c226b3-a3f2-4ea1-8a71-918132789d1a'
p210
g183
ssg70
(dp211
S'd5c226b3-a3f2-4ea1-8a71-918132789d1a'
p212
g179
ssg74
(dp213
S'b6971bc2-818b-4873-bd5d-de16797dee7f'
p214
g157
ssg78
(dp215
S'f0fa0b84-c0b8-45d6-89b9-8733041303a4'
p216
g203
ssg82
(dp217
S'f0fa0b84-c0b8-45d6-89b9-8733041303a4'
p218
g205
sS'65dd3621-6547-4344-b821-43b69be9f4c4'
p219
g143
ssg86
(dp220
S'b6971bc2-818b-4873-bd5d-de16797dee7f'
p221
g169
ssg90
(dp222
S'b6971bc2-818b-4873-bd5d-de16797dee7f'
p223
g163
ssg94
(dp224
S'752fc865-4d9e-4dfd-9dff-5dfbacd3bfcf'
p225
g149
sS'295be338-559a-4e50-ad49-36f7f6953838'
p226
(dp227
sS'4eea313a-4f46-4c62-925b-3f4b654abba0'
p228
(dp229
sS'2af7fb50-3da9-49fc-9b13-b58e8b0cb5e5'
p230
(dp231
sS'c1969b8d-df86-41bf-a234-a2f41f1b134b'
p232
g186
sS'cfcda8ed-96cc-4351-bade-b110808cb96d'
p233
g189
sS'b6971bc2-818b-4873-bd5d-de16797dee7f'
p234
g155
ssg98
(dp235
S'f0fa0b84-c0b8-45d6-89b9-8733041303a4'
p236
g207
ssg102
(dp237
S'd37731be-5870-4690-b481-81ff38e984cc'
p238
g227
ssg106
(dp239
S'f0fa0b84-c0b8-45d6-89b9-8733041303a4'
p240
g198
ssg110
(dp241
S'd37731be-5870-4690-b481-81ff38e984cc'
p242
g229
ssg114
(dp243
S'f0fa0b84-c0b8-45d6-89b9-8733041303a4'
p244
g200
ssg118
(dp245
S'd37731be-5870-4690-b481-81ff38e984cc'
p246
g231
ssg122
(dp247
S'2a0219d5-1263-4b1e-833b-9fb1bea7bf82'
p248
g152
sS'f0fa0b84-c0b8-45d6-89b9-8733041303a4'
p249
g209
sS'429f8183-b47d-4ec5-be00-a5b64f09f61d'
p250
(dp251
ssg126
(dp252
S'da8023ac-824f-4467-8046-690df018cc81'
p253
g251
sssS'adj'
p254
g133
sb.