ccopy_reg
_reconstructor
p0
(cnetworkx.classes.graph
Graph
p1
c__builtin__
object
p2
Ntp3
Rp4
(dp5
S'node'
p6
(dp7
S'2c978de1-27ec-4e22-8b47-4bdd738cfe7b'
p8
(dp9
S'type'
p10
S'C'
p11
sS'label'
p12
S'CORRIDOR'
p13
ssS'97b33836-6aa9-40f7-9ac4-6adc63188978'
p14
(dp15
g10
S'C'
p16
sg12
S'WASHROOM'
p17
ssS'e5a0b9f5-02ea-43be-9493-8f5f18551b69'
p18
(dp19
g10
S'R'
p20
sg12
S'CLASSROOM'
p21
ssS'4c831bfb-5d59-458e-8082-96b20aaf9b44'
p22
(dp23
g10
S'C'
p24
sg12
S'WASHROOM'
p25
ssS'3cc7930d-1187-488d-852a-1ae267427df0'
p26
(dp27
g10
S'R'
p28
sg12
S'BIG ADMINISTRATIVE'
p29
ssS'79c2874e-971f-4297-abed-b58040b40ee5'
p30
(dp31
g10
S'R'
p32
sg12
S'LAB'
p33
ssS'99882a68-c4aa-4a24-8731-6c71d55a42cc'
p34
(dp35
g10
S'R'
p36
sg12
S'CLASSROOM'
p37
ssS'e733de9d-9b02-4e97-99d3-952544a63f60'
p38
(dp39
g10
S'R'
p40
sg12
S'CLOSET'
p41
ssS'8a125580-7b94-4881-baf3-a062e1b15026'
p42
(dp43
g10
S'E'
p44
sg12
S'ENTRANCE'
p45
ssS'514a06ab-5462-4708-875e-5a1502977f81'
p46
(dp47
g10
S'R'
p48
sg12
S'CLASSROOM'
p49
ssS'd6cb8d90-45e9-49a6-a342-0c797e61933c'
p50
(dp51
g10
S'R'
p52
sg12
S'CLASSROOM'
p53
ssS'df194360-164a-4776-89bd-508d31b86a45'
p54
(dp55
g10
S'C'
p56
sg12
S'WASHROOM'
p57
ssS'aebfaccd-8034-44d0-9256-8c8c6978633e'
p58
(dp59
g10
S'R'
p60
sg12
S'CLOSET'
p61
ssS'1c74b5a6-e5be-4cc8-9680-b80f4d987330'
p62
(dp63
g10
S'C'
p64
sg12
S'WASHROOM'
p65
ssS'bfe0b742-04ba-4380-8f67-a276183ae959'
p66
(dp67
g10
S'R'
p68
sg12
S'CLASSROOM'
p69
ssS'2589f221-0836-4230-8cdc-f463e5b3ab98'
p70
(dp71
g10
S'C'
p72
sg12
S'CORRIDOR'
p73
ssS'c9807f51-482b-4abd-acf1-ec68f1cfa49c'
p74
(dp75
g10
S'R'
p76
sg12
S'SMALL ADMINISTRATIVE'
p77
ssS'4f7c3118-d3e5-46cf-a114-3f5bd59e2ccd'
p78
(dp79
g10
S'R'
p80
sg12
S'GYM'
p81
ssS'7eaac08f-6217-4a6a-9d0e-949acadc75e0'
p82
(dp83
g10
S'C'
p84
sg12
S'CORRIDOR'
p85
ssS'dca24cfe-83d0-46cf-8c4f-898f431f7123'
p86
(dp87
g10
S'C'
p88
sg12
S'WASHROOM'
p89
ssS'd8569e55-4c17-481a-9907-f9ca311a5d8a'
p90
(dp91
g10
S'E'
p92
sg12
S'STAIRS'
p93
ssS'968f740a-9dec-4c94-9c0b-fae1ef3db307'
p94
(dp95
g10
S'E'
p96
sg12
S'ENTRANCE'
p97
ssS'57f99b18-a748-4cd9-acd5-fb023a7783d1'
p98
(dp99
g10
S'R'
p100
sg12
S'MEDIUM ADMINISTRATIVE'
p101
ssS'99054ae9-a72f-4065-969d-980ea77c40a7'
p102
(dp103
g10
S'R'
p104
sg12
S'CLASSROOM'
p105
ssS'55f821e6-e6c6-4a14-a91c-2f9a3c8c3399'
p106
(dp107
g10
S'R'
p108
sg12
S'MEDIUM ADMINISTRATIVE'
p109
ssS'a339c9fa-c106-4c9b-8105-b2dbd6d57696'
p110
(dp111
g10
S'R'
p112
sg12
S'CLASSROOM'
p113
ssS'f12cc364-7c5f-44fa-9bc4-255c96b285a6'
p114
(dp115
g10
S'E'
p116
sg12
S'STAIRS'
p117
ssS'64bea419-c9e0-436a-95a2-f2e46020c312'
p118
(dp119
g10
S'R'
p120
sg12
S'LAB'
p121
ssS'2d726416-61bc-4e6d-b22c-d2b5d41393cb'
p122
(dp123
g10
S'R'
p124
sg12
S'MEDIUM ADMINISTRATIVE'
p125
ssS'8f8e4315-b617-4c7d-92ce-142f4341c9e5'
p126
(dp127
g10
S'C'
p128
sg12
S'LOBBY'
p129
ssS'5f27352f-d41a-482a-9276-c05c666ed896'
p130
(dp131
g10
S'R'
p132
sg12
S'CLASSROOM'
p133
ssS'd638dffd-d751-4f4f-9b73-91c4cbaf2826'
p134
(dp135
g10
S'R'
p136
sg12
S'CLASSROOM'
p137
ssS'd1c2ad7a-6dbb-4bc9-91e4-4b992d6fbf2d'
p138
(dp139
g10
S'R'
p140
sg12
S'MEDIUM ADMINISTRATIVE'
p141
ssS'b79092e5-9a3d-4bd3-bac5-088ae23ca957'
p142
(dp143
g10
S'C'
p144
sg12
S'CORRIDOR'
p145
ssS'fce3f9a1-31d0-40d2-95c6-bf5b6b5e58cf'
p146
(dp147
g10
S'R'
p148
sg12
S'MEDIUM SERVICE'
p149
ssS'0e08d9bd-556c-4f81-8f07-d4738f20f742'
p150
(dp151
g10
S'R'
p152
sg12
S'CLASSROOM'
p153
ssS'9efdb581-b965-4a01-9823-93fda69e0a6e'
p154
(dp155
g10
S'R'
p156
sg12
S'LAB'
p157
ssS'728da166-af80-40ea-8f53-9287465ea374'
p158
(dp159
g10
S'C'
p160
sg12
S'CORRIDOR'
p161
ssS'e8ed3b53-8340-43a3-992e-2975bae44d6f'
p162
(dp163
g10
S'R'
p164
sg12
S'LIBRARY'
p165
ssS'6e467329-6d5b-4523-8454-193af31cf93d'
p166
(dp167
g10
S'R'
p168
sg12
S'CANTEEN'
p169
ssS'bc34953a-dba1-4a3e-aba7-c43df5f78de7'
p170
(dp171
g10
S'C'
p172
sg12
S'WASHROOM'
p173
ssS'57bad8e3-bb33-4e38-a625-70e7fbdc553e'
p174
(dp175
g10
S'R'
p176
sg12
S'MEDIUM SERVICE'
p177
sssS'graph'
p178
(dp179
sS'edge'
p180
(dp181
g8
(dp182
S'7eaac08f-6217-4a6a-9d0e-949acadc75e0'
p183
(dp184
sS'64bea419-c9e0-436a-95a2-f2e46020c312'
p185
(dp186
sS'2589f221-0836-4230-8cdc-f463e5b3ab98'
p187
(dp188
sS'2d726416-61bc-4e6d-b22c-d2b5d41393cb'
p189
(dp190
sS'79c2874e-971f-4297-abed-b58040b40ee5'
p191
(dp192
sS'4c831bfb-5d59-458e-8082-96b20aaf9b44'
p193
(dp194
sS'514a06ab-5462-4708-875e-5a1502977f81'
p195
(dp196
sS'57f99b18-a748-4cd9-acd5-fb023a7783d1'
p197
(dp198
sS'bc34953a-dba1-4a3e-aba7-c43df5f78de7'
p199
(dp200
sS'55f821e6-e6c6-4a14-a91c-2f9a3c8c3399'
p201
(dp202
ssg14
(dp203
S'728da166-af80-40ea-8f53-9287465ea374'
p204
(dp205
ssg18
(dp206
S'b79092e5-9a3d-4bd3-bac5-088ae23ca957'
p207
(dp208
ssg22
(dp209
S'2c978de1-27ec-4e22-8b47-4bdd738cfe7b'
p210
g194
ssg26
(dp211
S'b79092e5-9a3d-4bd3-bac5-088ae23ca957'
p212
(dp213
ssg30
(dp214
S'7eaac08f-6217-4a6a-9d0e-949acadc75e0'
p215
(dp216
sS'2c978de1-27ec-4e22-8b47-4bdd738cfe7b'
p217
g192
ssg34
(dp218
S'728da166-af80-40ea-8f53-9287465ea374'
p219
(dp220
ssg38
(dp221
S'8f8e4315-b617-4c7d-92ce-142f4341c9e5'
p222
(dp223
ssg42
(dp224
S'2589f221-0836-4230-8cdc-f463e5b3ab98'
p225
(dp226
ssg46
(dp227
S'2c978de1-27ec-4e22-8b47-4bdd738cfe7b'
p228
g196
ssg50
(dp229
S'7eaac08f-6217-4a6a-9d0e-949acadc75e0'
p230
(dp231
ssg54
(dp232
S'8f8e4315-b617-4c7d-92ce-142f4341c9e5'
p233
(dp234
ssg58
(dp235
S'b79092e5-9a3d-4bd3-bac5-088ae23ca957'
p236
(dp237
ssg62
(dp238
S'8f8e4315-b617-4c7d-92ce-142f4341c9e5'
p239
(dp240
ssg66
(dp241
S'b79092e5-9a3d-4bd3-bac5-088ae23ca957'
p242
(dp243
ssg70
(dp244
S'8a125580-7b94-4881-baf3-a062e1b15026'
p245
g226
sS'2c978de1-27ec-4e22-8b47-4bdd738cfe7b'
p246
g188
ssg74
(dp247
S'd1c2ad7a-6dbb-4bc9-91e4-4b992d6fbf2d'
p248
(dp249
sS'b79092e5-9a3d-4bd3-bac5-088ae23ca957'
p250
(dp251
ssg78
(dp252
S'8f8e4315-b617-4c7d-92ce-142f4341c9e5'
p253
(dp254
ssg82
(dp255
S'8f8e4315-b617-4c7d-92ce-142f4341c9e5'
p256
(dp257
sS'2c978de1-27ec-4e22-8b47-4bdd738cfe7b'
p258
g184
sS'd6cb8d90-45e9-49a6-a342-0c797e61933c'
p259
g231
sS'79c2874e-971f-4297-abed-b58040b40ee5'
p260
g216
sS'e8ed3b53-8340-43a3-992e-2975bae44d6f'
p261
(dp262
sS'fce3f9a1-31d0-40d2-95c6-bf5b6b5e58cf'
p263
(dp264
sS'0e08d9bd-556c-4f81-8f07-d4738f20f742'
p265
(dp266
sS'9efdb581-b965-4a01-9823-93fda69e0a6e'
p267
(dp268
ssg86
(dp269
S'728da166-af80-40ea-8f53-9287465ea374'
p270
(dp271
ssg90
(dp272
S'b79092e5-9a3d-4bd3-bac5-088ae23ca957'
p273
(dp274
ssg94
(dp275
S'8f8e4315-b617-4c7d-92ce-142f4341c9e5'
p276
(dp277
ssg98
(dp278
S'2c978de1-27ec-4e22-8b47-4bdd738cfe7b'
p279
g198
ssg102
(dp280
S'728da166-af80-40ea-8f53-9287465ea374'
p281
(dp282
ssg106
(dp283
S'2c978de1-27ec-4e22-8b47-4bdd738cfe7b'
p284
g202
ssg110
(dp285
S'728da166-af80-40ea-8f53-9287465ea374'
p286
(dp287
ssg114
(dp288
S'728da166-af80-40ea-8f53-9287465ea374'
p289
(dp290
ssg118
(dp291
S'2c978de1-27ec-4e22-8b47-4bdd738cfe7b'
p292
g186
ssg122
(dp293
S'2c978de1-27ec-4e22-8b47-4bdd738cfe7b'
p294
g190
ssg126
(dp295
S'1c74b5a6-e5be-4cc8-9680-b80f4d987330'
p296
g240
sS'df194360-164a-4776-89bd-508d31b86a45'
p297
g234
sS'7eaac08f-6217-4a6a-9d0e-949acadc75e0'
p298
g257
sS'e8ed3b53-8340-43a3-992e-2975bae44d6f'
p299
(dp300
sS'e733de9d-9b02-4e97-99d3-952544a63f60'
p301
g223
sS'968f740a-9dec-4c94-9c0b-fae1ef3db307'
p302
g277
sS'6e467329-6d5b-4523-8454-193af31cf93d'
p303
(dp304
sS'4f7c3118-d3e5-46cf-a114-3f5bd59e2ccd'
p305
g254
sS'b79092e5-9a3d-4bd3-bac5-088ae23ca957'
p306
(dp307
sS'57bad8e3-bb33-4e38-a625-70e7fbdc553e'
p308
(dp309
ssg130
(dp310
S'728da166-af80-40ea-8f53-9287465ea374'
p311
(dp312
ssg134
(dp313
S'728da166-af80-40ea-8f53-9287465ea374'
p314
(dp315
ssg138
(dp316
S'c9807f51-482b-4abd-acf1-ec68f1cfa49c'
p317
g249
ssg142
(dp318
S'e5a0b9f5-02ea-43be-9493-8f5f18551b69'
p319
g208
sS'bfe0b742-04ba-4380-8f67-a276183ae959'
p320
g243
sS'3cc7930d-1187-488d-852a-1ae267427df0'
p321
g213
sS'728da166-af80-40ea-8f53-9287465ea374'
p322
(dp323
sS'c9807f51-482b-4abd-acf1-ec68f1cfa49c'
p324
g251
sS'd8569e55-4c17-481a-9907-f9ca311a5d8a'
p325
g274
sS'8f8e4315-b617-4c7d-92ce-142f4341c9e5'
p326
g307
sS'aebfaccd-8034-44d0-9256-8c8c6978633e'
p327
g237
ssg146
(dp328
S'7eaac08f-6217-4a6a-9d0e-949acadc75e0'
p329
g264
ssg150
(dp330
S'7eaac08f-6217-4a6a-9d0e-949acadc75e0'
p331
g266
ssg154
(dp332
S'7eaac08f-6217-4a6a-9d0e-949acadc75e0'
p333
g268
ssg158
(dp334
S'a339c9fa-c106-4c9b-8105-b2dbd6d57696'
p335
g287
sS'97b33836-6aa9-40f7-9ac4-6adc63188978'
p336
g205
sS'f12cc364-7c5f-44fa-9bc4-255c96b285a6'
p337
g290
sS'd638dffd-d751-4f4f-9b73-91c4cbaf2826'
p338
g315
sS'99882a68-c4aa-4a24-8731-6c71d55a42cc'
p339
g220
sS'5f27352f-d41a-482a-9276-c05c666ed896'
p340
g312
sS'dca24cfe-83d0-46cf-8c4f-898f431f7123'
p341
g271
sS'b79092e5-9a3d-4bd3-bac5-088ae23ca957'
p342
g323
sS'99054ae9-a72f-4065-969d-980ea77c40a7'
p343
g282
ssg162
(dp344
S'7eaac08f-6217-4a6a-9d0e-949acadc75e0'
p345
g262
sS'8f8e4315-b617-4c7d-92ce-142f4341c9e5'
p346
g300
ssg166
(dp347
S'8f8e4315-b617-4c7d-92ce-142f4341c9e5'
p348
g304
ssg170
(dp349
S'2c978de1-27ec-4e22-8b47-4bdd738cfe7b'
p350
g200
ssg174
(dp351
S'8f8e4315-b617-4c7d-92ce-142f4341c9e5'
p352
g309
sssS'adj'
p353
g181
sb.