ccopy_reg
_reconstructor
p0
(cnetworkx.classes.graph
Graph
p1
c__builtin__
object
p2
Ntp3
Rp4
(dp5
S'node'
p6
(dp7
S'cc5cd3f5-6a48-47ce-8b89-a167f17f4d4c'
p8
(dp9
S'type'
p10
S'C'
p11
sS'label'
p12
S'WASHROOM'
p13
ssS'a93157a7-493d-44e2-a693-1f5586c4f276'
p14
(dp15
g10
S'E'
p16
sg12
S'ENTRANCE'
p17
ssS'aadf8285-4337-4f14-b54d-0b129aa561b1'
p18
(dp19
g10
S'R'
p20
sg12
S'CLASSROOM'
p21
ssS'dd8ca491-f970-429b-8f34-6b003d3a239c'
p22
(dp23
g10
S'R'
p24
sg12
S'CLASSROOM'
p25
ssS'6a1989d6-6eee-4d94-acf1-3701afdfbd3e'
p26
(dp27
g10
S'R'
p28
sg12
S'CLASSROOM'
p29
ssS'e2721d45-6f7f-471f-9c7f-e12505d7a310'
p30
(dp31
g10
S'R'
p32
sg12
S'CLOSET'
p33
ssS'99630c40-036f-48f8-9131-5b139a0fad32'
p34
(dp35
g10
S'C'
p36
sg12
S'WASHROOM'
p37
ssS'3bd71d73-f6bf-4a05-9f3a-338fc9ddeba1'
p38
(dp39
g10
S'R'
p40
sg12
S'CLASSROOM'
p41
ssS'08b873cd-1a24-4590-898b-3bb768d07e34'
p42
(dp43
g10
S'R'
p44
sg12
S'CLASSROOM'
p45
ssS'6b820b4e-0238-4db3-a1d8-cdd21dc2882a'
p46
(dp47
g10
S'R'
p48
sg12
S'MEDIUM SERVICE'
p49
ssS'8dc4e291-0d9b-4b8c-bd5d-c56e470e649e'
p50
(dp51
g10
S'R'
p52
sg12
S'CANTEEN'
p53
ssS'791f5971-dae8-4ba5-85b0-1f932afad6f4'
p54
(dp55
g10
S'R'
p56
sg12
S'CONFERENCE'
p57
ssS'b4090d5d-4404-41ce-bc65-d98d06910684'
p58
(dp59
g10
S'C'
p60
sg12
S'WASHROOM'
p61
ssS'd8548bf1-58e9-4f3a-9333-9af5e68f350b'
p62
(dp63
g10
S'R'
p64
sg12
S'MEDIUM ADMINISTRATIVE'
p65
ssS'221e8378-c27c-40f1-b2ce-2904cf9c4ae0'
p66
(dp67
g10
S'C'
p68
sg12
S'CORRIDOR'
p69
ssS'9ff1023a-50d4-4c84-9857-23795e43405f'
p70
(dp71
g10
S'C'
p72
sg12
S'CORRIDOR'
p73
ssS'cf4f0cbf-e6f9-4a09-9e76-a09362f00cea'
p74
(dp75
g10
S'C'
p76
sg12
S'CORRIDOR'
p77
ssS'9cf93a50-7f13-402c-a702-b1dc70e544f6'
p78
(dp79
g10
S'R'
p80
sg12
S'CLASSROOM'
p81
ssS'62e2f18e-0e38-4d73-8ccf-978390640753'
p82
(dp83
g10
S'C'
p84
sg12
S'HALL'
p85
ssS'1ae6adca-fe5d-4a43-8d64-99727cc2c42b'
p86
(dp87
g10
S'C'
p88
sg12
S'WASHROOM'
p89
ssS'62b2451d-103a-4ee1-a5fc-a217db06cf21'
p90
(dp91
g10
S'E'
p92
sg12
S'ENTRANCE'
p93
ssS'445f905f-0bbb-4897-9d6d-aab3b4f07094'
p94
(dp95
g10
S'C'
p96
sg12
S'CORRIDOR'
p97
ssS'6b4aae45-e0a4-4c1f-88c1-3df2b3abe2f3'
p98
(dp99
g10
S'R'
p100
sg12
S'CLASSROOM'
p101
ssS'5d162bb1-9145-44dc-b7b7-d50e9ef052d1'
p102
(dp103
g10
S'R'
p104
sg12
S'CLOSET'
p105
ssS'162095b9-c5d8-49d9-862c-f08e4203becc'
p106
(dp107
g10
S'C'
p108
sg12
S'WASHROOM'
p109
ssS'ca25cdfe-110c-459b-b5d8-8a86ac6e462d'
p110
(dp111
g10
S'R'
p112
sg12
S'CLASSROOM'
p113
ssS'8ca54d2f-7cce-4b9f-8c8d-ae0b43e485d5'
p114
(dp115
g10
S'C'
p116
sg12
S'WASHROOM'
p117
ssS'0be807ab-6195-42a8-9083-30016bc343bd'
p118
(dp119
g10
S'R'
p120
sg12
S'GYM'
p121
sssS'graph'
p122
(dp123
sS'edge'
p124
(dp125
g8
(dp126
S'9ff1023a-50d4-4c84-9857-23795e43405f'
p127
(dp128
ssg14
(dp129
S'445f905f-0bbb-4897-9d6d-aab3b4f07094'
p130
(dp131
ssg18
(dp132
S'221e8378-c27c-40f1-b2ce-2904cf9c4ae0'
p133
(dp134
ssg22
(dp135
S'cf4f0cbf-e6f9-4a09-9e76-a09362f00cea'
p136
(dp137
ssg26
(dp138
S'cf4f0cbf-e6f9-4a09-9e76-a09362f00cea'
p139
(dp140
ssg30
(dp141
S'445f905f-0bbb-4897-9d6d-aab3b4f07094'
p142
(dp143
ssg34
(dp144
S'9ff1023a-50d4-4c84-9857-23795e43405f'
p145
(dp146
ssg38
(dp147
S'221e8378-c27c-40f1-b2ce-2904cf9c4ae0'
p148
(dp149
ssg42
(dp150
S'cf4f0cbf-e6f9-4a09-9e76-a09362f00cea'
p151
(dp152
ssg46
(dp153
S'445f905f-0bbb-4897-9d6d-aab3b4f07094'
p154
(dp155
ssg50
(dp156
S'445f905f-0bbb-4897-9d6d-aab3b4f07094'
p157
(dp158
ssg54
(dp159
S'221e8378-c27c-40f1-b2ce-2904cf9c4ae0'
p160
(dp161
ssg58
(dp162
S'445f905f-0bbb-4897-9d6d-aab3b4f07094'
p163
(dp164
ssg62
(dp165
S'9ff1023a-50d4-4c84-9857-23795e43405f'
p166
(dp167
ssg66
(dp168
S'3bd71d73-f6bf-4a05-9f3a-338fc9ddeba1'
p169
g149
sS'445f905f-0bbb-4897-9d6d-aab3b4f07094'
p170
(dp171
sS'791f5971-dae8-4ba5-85b0-1f932afad6f4'
p172
g161
sS'cf4f0cbf-e6f9-4a09-9e76-a09362f00cea'
p173
(dp174
sS'aadf8285-4337-4f14-b54d-0b129aa561b1'
p175
g134
ssg70
(dp176
S'cc5cd3f5-6a48-47ce-8b89-a167f17f4d4c'
p177
g128
sS'cf4f0cbf-e6f9-4a09-9e76-a09362f00cea'
p178
(dp179
sS'1ae6adca-fe5d-4a43-8d64-99727cc2c42b'
p180
(dp181
sS'd8548bf1-58e9-4f3a-9333-9af5e68f350b'
p182
g167
sS'99630c40-036f-48f8-9131-5b139a0fad32'
p183
g146
sS'62e2f18e-0e38-4d73-8ccf-978390640753'
p184
(dp185
sS'0be807ab-6195-42a8-9083-30016bc343bd'
p186
(dp187
ssg74
(dp188
S'ca25cdfe-110c-459b-b5d8-8a86ac6e462d'
p189
(dp190
sS'9cf93a50-7f13-402c-a702-b1dc70e544f6'
p191
(dp192
sS'dd8ca491-f970-429b-8f34-6b003d3a239c'
p193
g137
sS'6a1989d6-6eee-4d94-acf1-3701afdfbd3e'
p194
g140
sS'6b4aae45-e0a4-4c1f-88c1-3df2b3abe2f3'
p195
(dp196
sS'162095b9-c5d8-49d9-862c-f08e4203becc'
p197
(dp198
sS'221e8378-c27c-40f1-b2ce-2904cf9c4ae0'
p199
g174
sS'08b873cd-1a24-4590-898b-3bb768d07e34'
p200
g152
sS'9ff1023a-50d4-4c84-9857-23795e43405f'
p201
g179
ssg78
(dp202
S'cf4f0cbf-e6f9-4a09-9e76-a09362f00cea'
p203
g192
ssg82
(dp204
S'9ff1023a-50d4-4c84-9857-23795e43405f'
p205
g185
ssg86
(dp206
S'9ff1023a-50d4-4c84-9857-23795e43405f'
p207
g181
ssg90
(dp208
S'0be807ab-6195-42a8-9083-30016bc343bd'
p209
(dp210
ssg94
(dp211
S'a93157a7-493d-44e2-a693-1f5586c4f276'
p212
g131
sS'8dc4e291-0d9b-4b8c-bd5d-c56e470e649e'
p213
g158
sS'e2721d45-6f7f-471f-9c7f-e12505d7a310'
p214
g143
sS'b4090d5d-4404-41ce-bc65-d98d06910684'
p215
g164
sS'5d162bb1-9145-44dc-b7b7-d50e9ef052d1'
p216
(dp217
sS'221e8378-c27c-40f1-b2ce-2904cf9c4ae0'
p218
g171
sS'6b820b4e-0238-4db3-a1d8-cdd21dc2882a'
p219
g155
sS'8ca54d2f-7cce-4b9f-8c8d-ae0b43e485d5'
p220
(dp221
sS'0be807ab-6195-42a8-9083-30016bc343bd'
p222
(dp223
ssg98
(dp224
S'cf4f0cbf-e6f9-4a09-9e76-a09362f00cea'
p225
g196
ssg102
(dp226
S'445f905f-0bbb-4897-9d6d-aab3b4f07094'
p227
g217
ssg106
(dp228
S'cf4f0cbf-e6f9-4a09-9e76-a09362f00cea'
p229
g198
ssg110
(dp230
S'cf4f0cbf-e6f9-4a09-9e76-a09362f00cea'
p231
g190
ssg114
(dp232
S'445f905f-0bbb-4897-9d6d-aab3b4f07094'
p233
g221
ssg118
(dp234
S'62b2451d-103a-4ee1-a5fc-a217db06cf21'
p235
g210
sS'9ff1023a-50d4-4c84-9857-23795e43405f'
p236
g187
sS'445f905f-0bbb-4897-9d6d-aab3b4f07094'
p237
g223
sssS'adj'
p238
g125
sb.