ccopy_reg
_reconstructor
p0
(cnetworkx.classes.graph
Graph
p1
c__builtin__
object
p2
Ntp3
Rp4
(dp5
S'node'
p6
(dp7
S'd5b0253f-13a7-4bd4-a03a-3b6bfbf79ea8'
p8
(dp9
S'type'
p10
S'R'
p11
sS'label'
p12
S'CLOSET'
p13
ssS'4e1b843a-a6f9-4424-9425-84bf40837115'
p14
(dp15
g10
S'E'
p16
sg12
S'STAIRS'
p17
ssS'44bfa274-9344-4b8a-8bd1-327e18f1fbf1'
p18
(dp19
g10
S'C'
p20
sg12
S'CORRIDOR'
p21
ssS'5f889932-2726-4d3a-a49c-239f02bafb35'
p22
(dp23
g10
S'C'
p24
sg12
S'WASHROOM'
p25
ssS'9c155b1e-c389-43b8-b6ee-a693f35b35ef'
p26
(dp27
g10
S'R'
p28
sg12
S'LIBRARY'
p29
ssS'ff208d00-7d40-4447-a816-98cd3996d382'
p30
(dp31
g10
S'R'
p32
sg12
S'CLASSROOM'
p33
ssS'fe6efacb-233c-435d-aeb8-bafee63e54bf'
p34
(dp35
g10
S'R'
p36
sg12
S'CLASSROOM'
p37
ssS'534690f7-315f-4c53-a08c-e676dde4c9fc'
p38
(dp39
g10
S'R'
p40
sg12
S'CLOSET'
p41
ssS'91564d44-c5ea-405f-aa9b-fee922ad7ecc'
p42
(dp43
g10
S'R'
p44
sg12
S'CLOSET'
p45
ssS'4a219b76-d8b1-4058-99ef-bce24d4ac609'
p46
(dp47
g10
S'R'
p48
sg12
S'CLASSROOM'
p49
ssS'd876e66c-de20-4dbc-906c-ed08dc22c6d4'
p50
(dp51
g10
S'R'
p52
sg12
S'CLASSROOM'
p53
ssS'53cf57c0-703d-458f-bb63-e29855758f6f'
p54
(dp55
g10
S'R'
p56
sg12
S'CLASSROOM'
p57
ssS'919b6985-f1b0-4b60-855a-750ffeb7273b'
p58
(dp59
g10
S'C'
p60
sg12
S'CORRIDOR'
p61
ssS'f4904ec4-e8dd-4c20-ba54-d7a14a3c9f5b'
p62
(dp63
g10
S'R'
p64
sg12
S'CLOSET'
p65
ssS'61134256-8252-41ee-9035-1436fdd5b61e'
p66
(dp67
g10
S'R'
p68
sg12
S'CONFERENCE'
p69
ssS'f3fe752a-24a5-4de5-b5b3-dddda367473c'
p70
(dp71
g10
S'C'
p72
sg12
S'WASHROOM'
p73
ssS'5127e131-61b8-487f-8abb-f6741fa89ee0'
p74
(dp75
g10
S'R'
p76
sg12
S'CLOSET'
p77
ssS'879872ac-685a-4982-a8af-d6f601c7d609'
p78
(dp79
g10
S'E'
p80
sg12
S'ENTRANCE'
p81
ssS'5b4810f9-4994-4009-af68-58da5924084a'
p82
(dp83
g10
S'R'
p84
sg12
S'CLOSET'
p85
ssS'dca0ffea-0536-4a10-afea-069fec452e1c'
p86
(dp87
g10
S'R'
p88
sg12
S'CLASSROOM'
p89
ssS'4d455aef-798d-4456-9376-af56f9897b98'
p90
(dp91
g10
S'R'
p92
sg12
S'CLOSET'
p93
ssS'32dc7836-8b38-4838-8fe9-8597f8278664'
p94
(dp95
g10
S'E'
p96
sg12
S'STAIRS'
p97
ssS'2587af1d-bfda-4522-a407-21fc7d51ce21'
p98
(dp99
g10
S'E'
p100
sg12
S'STAIRS'
p101
ssS'514b1a30-3208-49a7-abff-01a59dbf9d0a'
p102
(dp103
g10
S'R'
p104
sg12
S'CLOSET'
p105
ssS'28c0c62c-1f02-4360-b8a6-1d916eb20809'
p106
(dp107
g10
S'C'
p108
sg12
S'CORRIDOR'
p109
sssS'graph'
p110
(dp111
sS'edge'
p112
(dp113
g8
(dp114
S'919b6985-f1b0-4b60-855a-750ffeb7273b'
p115
(dp116
ssg14
(dp117
S'919b6985-f1b0-4b60-855a-750ffeb7273b'
p118
(dp119
ssg18
(dp120
S'919b6985-f1b0-4b60-855a-750ffeb7273b'
p121
(dp122
sS'9c155b1e-c389-43b8-b6ee-a693f35b35ef'
p123
(dp124
ssg22
(dp125
S'28c0c62c-1f02-4360-b8a6-1d916eb20809'
p126
(dp127
ssg26
(dp128
S'44bfa274-9344-4b8a-8bd1-327e18f1fbf1'
p129
g124
ssg30
(dp130
S'5b4810f9-4994-4009-af68-58da5924084a'
p131
(dp132
sS'919b6985-f1b0-4b60-855a-750ffeb7273b'
p133
(dp134
ssg34
(dp135
S'4d455aef-798d-4456-9376-af56f9897b98'
p136
(dp137
sS'919b6985-f1b0-4b60-855a-750ffeb7273b'
p138
(dp139
ssg38
(dp140
S'28c0c62c-1f02-4360-b8a6-1d916eb20809'
p141
(dp142
ssg42
(dp143
S'53cf57c0-703d-458f-bb63-e29855758f6f'
p144
(dp145
ssg46
(dp146
S'919b6985-f1b0-4b60-855a-750ffeb7273b'
p147
(dp148
sS'f4904ec4-e8dd-4c20-ba54-d7a14a3c9f5b'
p149
(dp150
ssg50
(dp151
S'919b6985-f1b0-4b60-855a-750ffeb7273b'
p152
(dp153
sS'514b1a30-3208-49a7-abff-01a59dbf9d0a'
p154
(dp155
ssg54
(dp156
S'91564d44-c5ea-405f-aa9b-fee922ad7ecc'
p157
g145
sS'919b6985-f1b0-4b60-855a-750ffeb7273b'
p158
(dp159
ssg58
(dp160
S'53cf57c0-703d-458f-bb63-e29855758f6f'
p161
g159
sS'd5b0253f-13a7-4bd4-a03a-3b6bfbf79ea8'
p162
g116
sS'f3fe752a-24a5-4de5-b5b3-dddda367473c'
p163
(dp164
sS'2587af1d-bfda-4522-a407-21fc7d51ce21'
p165
(dp166
sS'4a219b76-d8b1-4058-99ef-bce24d4ac609'
p167
g148
sS'44bfa274-9344-4b8a-8bd1-327e18f1fbf1'
p168
g122
sS'32dc7836-8b38-4838-8fe9-8597f8278664'
p169
(dp170
sS'4e1b843a-a6f9-4424-9425-84bf40837115'
p171
g119
sS'd876e66c-de20-4dbc-906c-ed08dc22c6d4'
p172
g153
sS'ff208d00-7d40-4447-a816-98cd3996d382'
p173
g134
sS'28c0c62c-1f02-4360-b8a6-1d916eb20809'
p174
(dp175
sS'dca0ffea-0536-4a10-afea-069fec452e1c'
p176
(dp177
sS'fe6efacb-233c-435d-aeb8-bafee63e54bf'
p178
g139
ssg62
(dp179
S'4a219b76-d8b1-4058-99ef-bce24d4ac609'
p180
g150
ssg66
(dp181
S'879872ac-685a-4982-a8af-d6f601c7d609'
p182
(dp183
sS'28c0c62c-1f02-4360-b8a6-1d916eb20809'
p184
(dp185
ssg70
(dp186
S'919b6985-f1b0-4b60-855a-750ffeb7273b'
p187
g164
ssg74
(dp188
S'dca0ffea-0536-4a10-afea-069fec452e1c'
p189
(dp190
ssg78
(dp191
S'61134256-8252-41ee-9035-1436fdd5b61e'
p192
g183
ssg82
(dp193
S'ff208d00-7d40-4447-a816-98cd3996d382'
p194
g132
ssg86
(dp195
S'919b6985-f1b0-4b60-855a-750ffeb7273b'
p196
g177
sS'5127e131-61b8-487f-8abb-f6741fa89ee0'
p197
g190
ssg90
(dp198
S'fe6efacb-233c-435d-aeb8-bafee63e54bf'
p199
g137
ssg94
(dp200
S'919b6985-f1b0-4b60-855a-750ffeb7273b'
p201
g170
ssg98
(dp202
S'919b6985-f1b0-4b60-855a-750ffeb7273b'
p203
g166
ssg102
(dp204
S'd876e66c-de20-4dbc-906c-ed08dc22c6d4'
p205
g155
ssg106
(dp206
S'534690f7-315f-4c53-a08c-e676dde4c9fc'
p207
g142
sS'919b6985-f1b0-4b60-855a-750ffeb7273b'
p208
g175
sS'61134256-8252-41ee-9035-1436fdd5b61e'
p209
g185
sS'5f889932-2726-4d3a-a49c-239f02bafb35'
p210
g127
sssS'adj'
p211
g113
sb.