ccopy_reg
_reconstructor
p0
(cnetworkx.classes.graph
Graph
p1
c__builtin__
object
p2
Ntp3
Rp4
(dp5
S'node'
p6
(dp7
S'62920a5d-856c-4667-94f1-292c27359845'
p8
(dp9
S'type'
p10
S'R'
p11
sS'label'
p12
S'GYM'
p13
ssS'b7788679-b405-46dc-a16b-4c5bf34ee019'
p14
(dp15
g10
S'C'
p16
sg12
S'WASHROOM'
p17
ssS'f30d197c-ec0c-44c0-b942-bde513da59ea'
p18
(dp19
g10
S'R'
p20
sg12
S'CLOSET'
p21
ssS'875ec875-4f19-4f5c-8352-3ef496f9a6ab'
p22
(dp23
g10
S'E'
p24
sg12
S'STAIRS'
p25
ssS'81ed5c31-0651-4c6e-8c00-fd9a6fd55dce'
p26
(dp27
g10
S'R'
p28
sg12
S'CONFERENCE'
p29
ssS'1734847b-a590-4100-b168-04584273591f'
p30
(dp31
g10
S'C'
p32
sg12
S'CORRIDOR'
p33
ssS'9ea272e0-a562-4d66-9ed5-2cfa68e823cf'
p34
(dp35
g10
S'R'
p36
sg12
S'MEDIUM'
p37
ssS'bc3a79d0-3bc8-40bd-9b79-3b241704e5cc'
p38
(dp39
g10
S'C'
p40
sg12
S'CORRIDOR'
p41
ssS'f01191f1-914c-486d-9fb4-5fce5bcf27be'
p42
(dp43
g10
S'R'
p44
sg12
S'CLASSROOM'
p45
ssS'da79a826-e4ec-4d17-ac40-5c062b764bc8'
p46
(dp47
g10
S'R'
p48
sg12
S'SMALL ADMINISTRATIVE'
p49
ssS'2a6a0f44-ce8c-4052-bcc7-b85bdbed0359'
p50
(dp51
g10
S'R'
p52
sg12
S'CLOSET'
p53
ssS'7b8d04ca-d2cd-4a20-a3d8-6902e95bb4fe'
p54
(dp55
g10
S'E'
p56
sg12
S'STAIRS'
p57
ssS'62fdd0e9-b791-46da-b30e-c5b41f078218'
p58
(dp59
g10
S'R'
p60
sg12
S'MEDIUM SERVICE'
p61
ssS'd6a80668-d078-4592-acd1-291c3f26a13b'
p62
(dp63
g10
S'C'
p64
sg12
S'LOBBY'
p65
ssS'6cf32c47-94fd-4c2c-80d5-217dc4a8bdaf'
p66
(dp67
g10
S'R'
p68
sg12
S'CLOSET'
p69
ssS'e3bb5e42-533d-4a59-a0b9-4ef74cde165d'
p70
(dp71
g10
S'R'
p72
sg12
S'BATHROOM'
p73
ssS'e52bad86-925a-47db-b74c-3dc17373214c'
p74
(dp75
g10
S'R'
p76
sg12
S'BATHROOM'
p77
ssS'1fd0c437-0c63-4890-bbf0-9faeca85b887'
p78
(dp79
g10
S'E'
p80
sg12
S'ENTRANCE'
p81
ssS'43688d08-5b9d-4996-b822-bcd67b3dab46'
p82
(dp83
g10
S'R'
p84
sg12
S'CLOSET'
p85
ssS'739c96c8-03f3-4024-93e9-c43db42ee85a'
p86
(dp87
g10
S'R'
p88
sg12
S'CLASSROOM'
p89
ssS'7b30e67e-4800-42a8-ada7-c17c2f2740ed'
p90
(dp91
g10
S'R'
p92
sg12
S'MEDIUM SERVICE'
p93
ssS'01cdc878-4be0-43c3-82ed-cf73f9a7fb02'
p94
(dp95
g10
S'R'
p96
sg12
S'CLASSROOM'
p97
ssS'3b2fd420-b791-43f2-b44a-77170be27cbe'
p98
(dp99
g10
S'R'
p100
sg12
S'CLOSET'
p101
ssS'0e7e4dd0-7709-47ff-9bd2-30882ed9193b'
p102
(dp103
g10
S'R'
p104
sg12
S'CLOSET'
p105
ssS'e183dca8-208b-4851-9aa4-798a702931c2'
p106
(dp107
g10
S'E'
p108
sg12
S'STAIRS'
p109
ssS'c96854b9-454f-4ec1-9b84-1cf9edcaac53'
p110
(dp111
g10
S'R'
p112
sg12
S'MEDIUM SERVICE'
p113
ssS'602ba371-5053-4441-b8b8-dfc180d038b5'
p114
(dp115
g10
S'R'
p116
sg12
S'CLOSET'
p117
ssS'5423e089-ed05-483e-89e1-675ab7732006'
p118
(dp119
g10
S'C'
p120
sg12
S'WASHROOM'
p121
ssS'2778ccf0-c2e3-4598-98a1-0110e4d0e0b1'
p122
(dp123
g10
S'C'
p124
sg12
S'CORRIDOR'
p125
ssS'6e04659d-6cdc-4661-bee0-1aa1308a34ad'
p126
(dp127
g10
S'R'
p128
sg12
S'MEDIUM ADMINISTRATIVE'
p129
ssS'dc12bc59-5d06-4aa5-89fb-96347d4b9635'
p130
(dp131
g10
S'R'
p132
sg12
S'CLOSET'
p133
ssS'3675e093-c098-4338-80ce-e31969798202'
p134
(dp135
g10
S'R'
p136
sg12
S'CLASSROOM'
p137
ssS'981e0bfb-7622-49c1-8af2-c0a643e7f675'
p138
(dp139
g10
S'R'
p140
sg12
S'MEDIUM SERVICE'
p141
ssS'1f141190-aa2e-41ca-a013-8d66610d02a1'
p142
(dp143
g10
S'E'
p144
sg12
S'ENTRANCE'
p145
ssS'b1a92b7c-ad5a-43d7-b0de-515ef7de61ea'
p146
(dp147
g10
S'R'
p148
sg12
S'BATHROOM'
p149
ssS'5072bbf1-6485-481a-a898-046fd329c6b9'
p150
(dp151
g10
S'R'
p152
sg12
S'MEDIUM SERVICE'
p153
sssS'graph'
p154
(dp155
sS'edge'
p156
(dp157
g8
(dp158
S'd6a80668-d078-4592-acd1-291c3f26a13b'
p159
(dp160
sS'1734847b-a590-4100-b168-04584273591f'
p161
(dp162
sS'bc3a79d0-3bc8-40bd-9b79-3b241704e5cc'
p163
(dp164
ssg14
(dp165
S'2778ccf0-c2e3-4598-98a1-0110e4d0e0b1'
p166
(dp167
ssg18
(dp168
S'01cdc878-4be0-43c3-82ed-cf73f9a7fb02'
p169
(dp170
ssg22
(dp171
S'2778ccf0-c2e3-4598-98a1-0110e4d0e0b1'
p172
(dp173
ssg26
(dp174
S'd6a80668-d078-4592-acd1-291c3f26a13b'
p175
(dp176
sS'2778ccf0-c2e3-4598-98a1-0110e4d0e0b1'
p177
(dp178
ssg30
(dp179
S'62920a5d-856c-4667-94f1-292c27359845'
p180
g162
sS'7b30e67e-4800-42a8-ada7-c17c2f2740ed'
p181
(dp182
sS'c96854b9-454f-4ec1-9b84-1cf9edcaac53'
p183
(dp184
sS'1fd0c437-0c63-4890-bbf0-9faeca85b887'
p185
(dp186
ssg34
(dp187
S'e3bb5e42-533d-4a59-a0b9-4ef74cde165d'
p188
(dp189
sS'2778ccf0-c2e3-4598-98a1-0110e4d0e0b1'
p190
(dp191
ssg38
(dp192
S'62920a5d-856c-4667-94f1-292c27359845'
p193
g164
sS'2778ccf0-c2e3-4598-98a1-0110e4d0e0b1'
p194
(dp195
sS'981e0bfb-7622-49c1-8af2-c0a643e7f675'
p196
(dp197
sS'6cf32c47-94fd-4c2c-80d5-217dc4a8bdaf'
p198
(dp199
ssg42
(dp200
S'2a6a0f44-ce8c-4052-bcc7-b85bdbed0359'
p201
(dp202
sS'2778ccf0-c2e3-4598-98a1-0110e4d0e0b1'
p203
(dp204
ssg46
(dp205
S'2778ccf0-c2e3-4598-98a1-0110e4d0e0b1'
p206
(dp207
sS'6e04659d-6cdc-4661-bee0-1aa1308a34ad'
p208
(dp209
sS'3b2fd420-b791-43f2-b44a-77170be27cbe'
p210
(dp211
ssg50
(dp212
S'f01191f1-914c-486d-9fb4-5fce5bcf27be'
p213
g202
ssg54
(dp214
S'2778ccf0-c2e3-4598-98a1-0110e4d0e0b1'
p215
(dp216
ssg58
(dp217
S'6e04659d-6cdc-4661-bee0-1aa1308a34ad'
p218
(dp219
sS'5072bbf1-6485-481a-a898-046fd329c6b9'
p220
(dp221
ssg62
(dp222
S'81ed5c31-0651-4c6e-8c00-fd9a6fd55dce'
p223
g176
sS'2778ccf0-c2e3-4598-98a1-0110e4d0e0b1'
p224
(dp225
sS'1f141190-aa2e-41ca-a013-8d66610d02a1'
p226
(dp227
sS'62920a5d-856c-4667-94f1-292c27359845'
p228
g160
ssg66
(dp229
S'bc3a79d0-3bc8-40bd-9b79-3b241704e5cc'
p230
g199
ssg70
(dp231
S'9ea272e0-a562-4d66-9ed5-2cfa68e823cf'
p232
g189
ssg74
(dp233
S'981e0bfb-7622-49c1-8af2-c0a643e7f675'
p234
(dp235
ssg78
(dp236
S'1734847b-a590-4100-b168-04584273591f'
p237
g186
ssg82
(dp238
S'2778ccf0-c2e3-4598-98a1-0110e4d0e0b1'
p239
(dp240
ssg86
(dp241
S'2778ccf0-c2e3-4598-98a1-0110e4d0e0b1'
p242
(dp243
sS'dc12bc59-5d06-4aa5-89fb-96347d4b9635'
p244
(dp245
ssg90
(dp246
S'b1a92b7c-ad5a-43d7-b0de-515ef7de61ea'
p247
(dp248
sS'1734847b-a590-4100-b168-04584273591f'
p249
g182
ssg94
(dp250
S'2778ccf0-c2e3-4598-98a1-0110e4d0e0b1'
p251
(dp252
sS'f30d197c-ec0c-44c0-b942-bde513da59ea'
p253
g170
ssg98
(dp254
S'da79a826-e4ec-4d17-ac40-5c062b764bc8'
p255
g211
ssg102
(dp256
S'2778ccf0-c2e3-4598-98a1-0110e4d0e0b1'
p257
(dp258
ssg106
(dp259
S'2778ccf0-c2e3-4598-98a1-0110e4d0e0b1'
p260
(dp261
ssg110
(dp262
S'1734847b-a590-4100-b168-04584273591f'
p263
g184
ssg114
(dp264
S'3675e093-c098-4338-80ce-e31969798202'
p265
(dp266
ssg118
(dp267
S'2778ccf0-c2e3-4598-98a1-0110e4d0e0b1'
p268
(dp269
ssg122
(dp270
S'5072bbf1-6485-481a-a898-046fd329c6b9'
p271
(dp272
sS'b7788679-b405-46dc-a16b-4c5bf34ee019'
p273
g167
sS'739c96c8-03f3-4024-93e9-c43db42ee85a'
p274
g243
sS'3675e093-c098-4338-80ce-e31969798202'
p275
(dp276
sS'7b8d04ca-d2cd-4a20-a3d8-6902e95bb4fe'
p277
g216
sS'875ec875-4f19-4f5c-8352-3ef496f9a6ab'
p278
g173
sS'81ed5c31-0651-4c6e-8c00-fd9a6fd55dce'
p279
g178
sS'43688d08-5b9d-4996-b822-bcd67b3dab46'
p280
g240
sS'e183dca8-208b-4851-9aa4-798a702931c2'
p281
g261
sS'd6a80668-d078-4592-acd1-291c3f26a13b'
p282
g225
sS'01cdc878-4be0-43c3-82ed-cf73f9a7fb02'
p283
g252
sS'9ea272e0-a562-4d66-9ed5-2cfa68e823cf'
p284
g191
sS'bc3a79d0-3bc8-40bd-9b79-3b241704e5cc'
p285
g195
sS'0e7e4dd0-7709-47ff-9bd2-30882ed9193b'
p286
g258
sS'da79a826-e4ec-4d17-ac40-5c062b764bc8'
p287
g207
sS'f01191f1-914c-486d-9fb4-5fce5bcf27be'
p288
g204
sS'5423e089-ed05-483e-89e1-675ab7732006'
p289
g269
ssg126
(dp290
S'da79a826-e4ec-4d17-ac40-5c062b764bc8'
p291
g209
sS'62fdd0e9-b791-46da-b30e-c5b41f078218'
p292
g219
ssg130
(dp293
S'739c96c8-03f3-4024-93e9-c43db42ee85a'
p294
g245
ssg134
(dp295
S'2778ccf0-c2e3-4598-98a1-0110e4d0e0b1'
p296
g276
sS'602ba371-5053-4441-b8b8-dfc180d038b5'
p297
g266
ssg138
(dp298
S'bc3a79d0-3bc8-40bd-9b79-3b241704e5cc'
p299
g197
sS'e52bad86-925a-47db-b74c-3dc17373214c'
p300
g235
ssg142
(dp301
S'd6a80668-d078-4592-acd1-291c3f26a13b'
p302
g227
ssg146
(dp303
S'7b30e67e-4800-42a8-ada7-c17c2f2740ed'
p304
g248
ssg150
(dp305
S'2778ccf0-c2e3-4598-98a1-0110e4d0e0b1'
p306
g272
sS'62fdd0e9-b791-46da-b30e-c5b41f078218'
p307
g221
sssS'adj'
p308
g157
sb.