ccopy_reg
_reconstructor
p0
(cnetworkx.classes.graph
Graph
p1
c__builtin__
object
p2
Ntp3
Rp4
(dp5
S'node'
p6
(dp7
S'141d3417-a764-4252-a325-15d516af6f70'
p8
(dp9
S'type'
p10
S'C'
p11
sS'label'
p12
S'CORRIDOR'
p13
ssS'b43869a7-b200-4976-9cef-b0c1852ea5f6'
p14
(dp15
g10
S'R'
p16
sg12
S'MEDIUM'
p17
ssS'8b9ceed2-d90a-4e88-a982-6b2aa9c6d372'
p18
(dp19
g10
S'R'
p20
sg12
S'MEDIUM'
p21
ssS'30595e63-ef7c-433d-9b5c-dad88e2cb26a'
p22
(dp23
g10
S'R'
p24
sg12
S'CLOSET'
p25
ssS'b63f0abc-e559-464d-975b-bb007d6131df'
p26
(dp27
g10
S'C'
p28
sg12
S'HALL'
p29
ssS'ead233d1-9efb-44f9-88e2-5553aa941275'
p30
(dp31
g10
S'R'
p32
sg12
S'BIG ADMINISTRATIVE'
p33
ssS'aeb1a97f-52bd-410c-a106-8a34a340d32d'
p34
(dp35
g10
S'R'
p36
sg12
S'CLASSROOM'
p37
ssS'17358048-b822-4071-adc5-bff56d695389'
p38
(dp39
g10
S'R'
p40
sg12
S'MEDIUM ADMINISTRATIVE'
p41
ssS'c11cabb9-518c-454e-92e9-46144429b0a2'
p42
(dp43
g10
S'R'
p44
sg12
S'CLOSET'
p45
ssS'fc853279-89d4-4175-b7fb-9301eee9e500'
p46
(dp47
g10
S'R'
p48
sg12
S'CLASSROOM'
p49
ssS'7a1087d6-a74e-40be-add5-000418677067'
p50
(dp51
g10
S'R'
p52
sg12
S'CLOSET'
p53
ssS'8e8e9ec5-53e0-4f23-92ba-378870390af5'
p54
(dp55
g10
S'C'
p56
sg12
S'CORRIDOR'
p57
ssS'7a55e85e-5bf7-4823-aba6-548577102fc7'
p58
(dp59
g10
S'R'
p60
sg12
S'CLOSET'
p61
ssS'73c1036a-a216-4193-94e4-ab0f55faa37d'
p62
(dp63
g10
S'C'
p64
sg12
S'HALL'
p65
ssS'53c05fa2-c5a1-44d9-8e1d-92e0d17f52cb'
p66
(dp67
g10
S'R'
p68
sg12
S'BATHROOM'
p69
ssS'8301a0b5-0398-47a1-a331-fa9a35aeb5f8'
p70
(dp71
g10
S'E'
p72
sg12
S'ENTRANCE'
p73
ssS'5ab94089-7913-40db-92fa-aa6aac9541a1'
p74
(dp75
g10
S'R'
p76
sg12
S'MEDIUM'
p77
ssS'6fd3f441-f548-4724-9552-f6b7eed1812b'
p78
(dp79
g10
S'R'
p80
sg12
S'MEDIUM'
p81
ssS'910ccc9a-69bd-440b-b610-57864d5c980b'
p82
(dp83
g10
S'R'
p84
sg12
S'SMALL'
p85
ssS'94483588-7dbf-4b49-a171-254727fb5384'
p86
(dp87
g10
S'R'
p88
sg12
S'MEDIUM'
p89
ssS'c72dc750-9283-47a3-9d72-f04946e50492'
p90
(dp91
g10
S'R'
p92
sg12
S'CLOSET'
p93
ssS'fbf339d6-e986-4c7d-adf0-4393a822687f'
p94
(dp95
g10
S'R'
p96
sg12
S'SMALL ADMINISTRATIVE'
p97
ssS'5aa12a2b-aa1f-47a6-ba73-d98620eceac5'
p98
(dp99
g10
S'R'
p100
sg12
S'SMALL ADMINISTRATIVE'
p101
ssS'68760bcd-c4cf-43ed-9cff-2f1069a17773'
p102
(dp103
g10
S'R'
p104
sg12
S'CLOSET'
p105
ssS'26a4ac08-ab5a-40a3-b551-8295ce3bd74f'
p106
(dp107
g10
S'R'
p108
sg12
S'KITCHEN'
p109
ssS'2e131359-225e-47f9-ab43-be01a90b66f4'
p110
(dp111
g10
S'R'
p112
sg12
S'CLOSET'
p113
ssS'98a31d11-6832-40ae-aadc-335ecd6e2eab'
p114
(dp115
g10
S'R'
p116
sg12
S'CLASSROOM'
p117
ssS'70103d76-63d7-4a85-a228-5f7aa13151d6'
p118
(dp119
g10
S'R'
p120
sg12
S'SMALL ADMINISTRATIVE'
p121
ssS'6eab60a3-9d31-426b-8905-08578f915f54'
p122
(dp123
g10
S'R'
p124
sg12
S'CLASSROOM'
p125
ssS'6d230a53-8c34-4e8f-93a0-4b3ffcce1b71'
p126
(dp127
g10
S'R'
p128
sg12
S'CLOSET'
p129
ssS'e1f9ece2-aa55-47a8-accd-6e6d2de17444'
p130
(dp131
g10
S'C'
p132
sg12
S'CORRIDOR'
p133
ssS'4ff0c4e1-1a63-4f41-85cf-c121845583a6'
p134
(dp135
g10
S'C'
p136
sg12
S'WASHROOM'
p137
ssS'b4531e4f-4eb3-4fd3-8974-1c7b76ceb1c7'
p138
(dp139
g10
S'R'
p140
sg12
S'CLOSET'
p141
ssS'00121830-5632-4793-adbd-b07ae48fab5d'
p142
(dp143
g10
S'R'
p144
sg12
S'LAB'
p145
ssS'85a7d2a8-d16e-4bbe-a7d1-1562f360c792'
p146
(dp147
g10
S'R'
p148
sg12
S'CLOSET'
p149
ssS'37a4c445-90bf-4b66-913a-5e1feaef068e'
p150
(dp151
g10
S'R'
p152
sg12
S'CLOSET'
p153
ssS'7f6d5d1c-e193-4056-bf81-f84e6c4b8175'
p154
(dp155
g10
S'R'
p156
sg12
S'SMALL ADMINISTRATIVE'
p157
ssS'7aff74e4-9e03-49c2-8797-4185ae0a3fb4'
p158
(dp159
g10
S'C'
p160
sg12
S'WASHROOM'
p161
ssS'c521771c-1813-43af-886b-3f8584afd7c2'
p162
(dp163
g10
S'R'
p164
sg12
S'MEDIUM ADMINISTRATIVE'
p165
ssS'035790f7-a372-4f3b-aa37-fcd3faaa8083'
p166
(dp167
g10
S'C'
p168
sg12
S'WASHROOM'
p169
ssS'133240fc-fece-4390-9aea-7966b8aa755b'
p170
(dp171
g10
S'R'
p172
sg12
S'SMALL'
p173
ssS'52b87659-30b8-4e6e-83f5-33f18cb8b96c'
p174
(dp175
g10
S'C'
p176
sg12
S'HALL'
p177
ssS'363e5e21-8307-47e2-a7e4-bbe40a906180'
p178
(dp179
g10
S'R'
p180
sg12
S'SMALL ADMINISTRATIVE'
p181
ssS'73586fb6-b410-4829-8d89-8233a045cd37'
p182
(dp183
g10
S'R'
p184
sg12
S'MEDIUM'
p185
ssS'349d6cee-43d8-49cd-a525-f03b8b4222d7'
p186
(dp187
g10
S'R'
p188
sg12
S'CLOSET'
p189
ssS'cb7b0df0-5589-4f06-ab9f-debdc3b81806'
p190
(dp191
g10
S'C'
p192
sg12
S'HALL'
p193
ssS'464ea81a-facb-4141-90e4-3bdef8d6d102'
p194
(dp195
g10
S'R'
p196
sg12
S'BATHROOM'
p197
ssS'6ae44ab2-dc4c-4412-8511-c7f6a0bf5fed'
p198
(dp199
g10
S'C'
p200
sg12
S'CORRIDOR'
p201
ssS'e1a73729-2391-4b5a-8c68-573dea9334ea'
p202
(dp203
g10
S'R'
p204
sg12
S'LAB'
p205
ssS'ba83e3fe-759d-405a-98f9-689a8a7529eb'
p206
(dp207
g10
S'R'
p208
sg12
S'BATHROOM'
p209
ssS'64d11819-85a7-45b1-8daa-19975256b846'
p210
(dp211
g10
S'R'
p212
sg12
S'MEDIUM SERVICE'
p213
ssS'4a1bcb6e-9fe3-4162-8c4a-d94fadabc556'
p214
(dp215
g10
S'C'
p216
sg12
S'WASHROOM'
p217
ssS'7a8d4909-dc39-40c4-b44c-7179762c0683'
p218
(dp219
g10
S'R'
p220
sg12
S'LAB'
p221
ssS'5b10eefc-5294-43d6-b5c4-91217835391a'
p222
(dp223
g10
S'R'
p224
sg12
S'MEDIUM'
p225
ssS'63681925-3be4-471a-9f81-d628589c0ebe'
p226
(dp227
g10
S'C'
p228
sg12
S'WASHROOM'
p229
ssS'4ad132e2-e02a-4096-b52e-93895c5454fe'
p230
(dp231
g10
S'C'
p232
sg12
S'HALL'
p233
ssS'a1fa133d-1328-4b05-8a40-a73afe805fe9'
p234
(dp235
g10
S'R'
p236
sg12
S'SMALL ADMINISTRATIVE'
p237
ssS'6eaf9961-8b36-4a85-93bd-6819ae6788ac'
p238
(dp239
g10
S'C'
p240
sg12
S'LOBBY'
p241
ssS'70e9fba7-7113-420c-84c7-651a1ce19235'
p242
(dp243
g10
S'R'
p244
sg12
S'MEDIUM SERVICE'
p245
ssS'0b6733fa-68bb-4e06-b946-8e15b0208ede'
p246
(dp247
g10
S'R'
p248
sg12
S'CLASSROOM'
p249
ssS'887cb527-1125-48fc-bdbe-8a4ec42898aa'
p250
(dp251
g10
S'R'
p252
sg12
S'GYM'
p253
ssS'3cc0404b-0755-44da-a33b-f060a785bf28'
p254
(dp255
g10
S'R'
p256
sg12
S'CLOSET'
p257
ssS'c94f8c99-1003-4e97-9dc7-15ea9f8dee3e'
p258
(dp259
g10
S'R'
p260
sg12
S'LIBRARY'
p261
ssS'bdbdb9d6-4d20-4303-bed6-ef1de00e0b1e'
p262
(dp263
g10
S'R'
p264
sg12
S'MEDIUM'
p265
ssS'830d1f68-b38c-4ccd-92b3-2a18088c8469'
p266
(dp267
g10
S'R'
p268
sg12
S'CLOSET'
p269
ssS'b825d477-3ed2-47ee-8f2f-7c9dfee20ad7'
p270
(dp271
g10
S'R'
p272
sg12
S'SMALL ADMINISTRATIVE'
p273
ssS'a14b7ab5-1f07-44b1-9a02-a14bff438694'
p274
(dp275
g10
S'C'
p276
sg12
S'WASHROOM'
p277
ssS'003fc845-de7d-4b29-9a80-e1711bcdd11c'
p278
(dp279
g10
S'R'
p280
sg12
S'CANTEEN'
p281
ssS'1362ddc3-ac3b-4ba4-85c2-6830d1da20e3'
p282
(dp283
g10
S'R'
p284
sg12
S'BATHROOM'
p285
ssS'c51c688e-e42e-4ed2-8971-0e9c6d193205'
p286
(dp287
g10
S'C'
p288
sg12
S'CORRIDOR'
p289
ssS'ce180bf9-3806-40fc-bb24-3ec6e122bc41'
p290
(dp291
g10
S'C'
p292
sg12
S'CORRIDOR'
p293
ssS'0ccacd3d-f71f-46f5-b8f5-58aa3356db7c'
p294
(dp295
g10
S'E'
p296
sg12
S'ENTRANCE'
p297
ssS'4e4a0c56-8d77-4147-abb9-8c15234b0198'
p298
(dp299
g10
S'R'
p300
sg12
S'MEDIUM'
p301
ssS'd41d0086-0fe2-4848-91c4-6c05cf67dc68'
p302
(dp303
g10
S'R'
p304
sg12
S'LAB'
p305
ssS'c1d7d2c8-610b-4f77-bf04-7af2cbd5fdb2'
p306
(dp307
g10
S'R'
p308
sg12
S'CLASSROOM'
p309
ssS'fc0b7fb2-4db9-4c9c-8391-ed18bd03c948'
p310
(dp311
g10
S'R'
p312
sg12
S'MEDIUM'
p313
ssS'757a8a63-5128-48fe-92ee-1a7d092c89d5'
p314
(dp315
g10
S'R'
p316
sg12
S'MEDIUM SERVICE'
p317
ssS'3fafd09c-0eb5-4c72-9c9b-2070833e84a2'
p318
(dp319
g10
S'E'
p320
sg12
S'ENTRANCE'
p321
ssS'ddce61b2-5c71-4dde-935c-a230ca49a9b8'
p322
(dp323
g10
S'C'
p324
sg12
S'CORRIDOR'
p325
ssS'7d693077-957a-439d-bc5f-52f64b053a1b'
p326
(dp327
g10
S'R'
p328
sg12
S'MEDIUM'
p329
ssS'4827cc9c-9d99-4c7b-82e5-c1988f1e5d72'
p330
(dp331
g10
S'R'
p332
sg12
S'MEDIUM'
p333
ssS'dcfe247c-582e-446e-9e96-1e8922015da9'
p334
(dp335
g10
S'R'
p336
sg12
S'LAB'
p337
ssS'c793f88b-25c6-4b5f-abf6-593d70bb3d10'
p338
(dp339
g10
S'R'
p340
sg12
S'BATHROOM'
p341
ssS'e0fcc15e-031e-440a-97df-68a24dcc4778'
p342
(dp343
g10
S'R'
p344
sg12
S'CLOSET'
p345
ssS'38b625e3-ba6c-4e85-8192-f1babd638302'
p346
(dp347
g10
S'R'
p348
sg12
S'CLOSET'
p349
ssS'f743730a-407f-4496-9a5b-6f047325347e'
p350
(dp351
g10
S'R'
p352
sg12
S'SMALL'
p353
ssS'ff9a228f-2b1d-479f-ab40-403be068aad2'
p354
(dp355
g10
S'R'
p356
sg12
S'MEDIUM SERVICE'
p357
ssS'0e7a9b74-b22f-4e74-8cf0-7ddba93310f2'
p358
(dp359
g10
S'R'
p360
sg12
S'MEDIUM'
p361
ssS'e41d3040-fc6c-4525-a9e9-90b1efdfe452'
p362
(dp363
g10
S'R'
p364
sg12
S'MEDIUM'
p365
ssS'b8eee8fc-4d21-44e6-8f45-c65771d0d51a'
p366
(dp367
g10
S'C'
p368
sg12
S'CORRIDOR'
p369
ssS'c8e71ad8-9d23-492f-815e-f3346e4584d9'
p370
(dp371
g10
S'E'
p372
sg12
S'ENTRANCE'
p373
ssS'06d2c1f2-b1e7-4dbb-a183-a1922f712f14'
p374
(dp375
g10
S'R'
p376
sg12
S'LAB'
p377
ssS'cf33ce3d-4d9e-49d6-afd5-38475766f09a'
p378
(dp379
g10
S'R'
p380
sg12
S'SMALL'
p381
ssS'3f740e63-f147-49e0-9d65-aec2e88373e8'
p382
(dp383
g10
S'R'
p384
sg12
S'CLOSET'
p385
ssS'45882272-2050-4f54-8798-ecb546e80ed7'
p386
(dp387
g10
S'R'
p388
sg12
S'MEDIUM'
p389
ssS'432558b3-0f40-4bd2-bb27-4b45fa620ecf'
p390
(dp391
g10
S'R'
p392
sg12
S'CLOSET'
p393
ssS'2a5edf4b-e804-4a1e-bf1d-4aef1f40713a'
p394
(dp395
g10
S'R'
p396
sg12
S'SMALL ADMINISTRATIVE'
p397
ssS'0c2dc0af-95ae-4c31-beef-267afc44c13d'
p398
(dp399
g10
S'R'
p400
sg12
S'CLOSET'
p401
ssS'29b61891-8d7a-4cef-af0e-29ff642bdc94'
p402
(dp403
g10
S'R'
p404
sg12
S'MEDIUM'
p405
ssS'7f089ec3-23c7-4a3c-afd6-edeeb615bb07'
p406
(dp407
g10
S'C'
p408
sg12
S'HALL'
p409
ssS'86334563-5c4b-492a-a308-ff3bae182b61'
p410
(dp411
g10
S'R'
p412
sg12
S'MEDIUM'
p413
ssS'c574e48e-ade8-47a6-bcb3-87b5dd10885a'
p414
(dp415
g10
S'R'
p416
sg12
S'MEDIUM ADMINISTRATIVE'
p417
ssS'b2d52810-cc14-45b1-b44f-188172f8a970'
p418
(dp419
g10
S'R'
p420
sg12
S'SMALL'
p421
ssS'd8b163df-7720-47d2-a2a6-3196c49a0da0'
p422
(dp423
g10
S'C'
p424
sg12
S'LOBBY'
p425
ssS'c0e72a7e-4ed1-4805-ab8a-d598e505cb3b'
p426
(dp427
g10
S'R'
p428
sg12
S'CLASSROOM'
p429
sssS'graph'
p430
(dp431
sS'edge'
p432
(dp433
g8
(dp434
S'dcfe247c-582e-446e-9e96-1e8922015da9'
p435
(dp436
sS'85a7d2a8-d16e-4bbe-a7d1-1562f360c792'
p437
(dp438
sS'887cb527-1125-48fc-bdbe-8a4ec42898aa'
p439
(dp440
sS'fc0b7fb2-4db9-4c9c-8391-ed18bd03c948'
p441
(dp442
sS'29b61891-8d7a-4cef-af0e-29ff642bdc94'
p443
(dp444
sS'ba83e3fe-759d-405a-98f9-689a8a7529eb'
p445
(dp446
sS'7a8d4909-dc39-40c4-b44c-7179762c0683'
p447
(dp448
ssg14
(dp449
S'94483588-7dbf-4b49-a171-254727fb5384'
p450
(dp451
sS'45882272-2050-4f54-8798-ecb546e80ed7'
p452
(dp453
ssg18
(dp454
S'b8eee8fc-4d21-44e6-8f45-c65771d0d51a'
p455
(dp456
ssg22
(dp457
S'0e7a9b74-b22f-4e74-8cf0-7ddba93310f2'
p458
(dp459
ssg26
(dp460
S'c521771c-1813-43af-886b-3f8584afd7c2'
p461
(dp462
sS'6fd3f441-f548-4724-9552-f6b7eed1812b'
p463
(dp464
sS'e1f9ece2-aa55-47a8-accd-6e6d2de17444'
p465
(dp466
sS'e41d3040-fc6c-4525-a9e9-90b1efdfe452'
p467
(dp468
sS'c574e48e-ade8-47a6-bcb3-87b5dd10885a'
p469
(dp470
sS'd8b163df-7720-47d2-a2a6-3196c49a0da0'
p471
(dp472
sS'cb7b0df0-5589-4f06-ab9f-debdc3b81806'
p473
(dp474
ssg30
(dp475
S'b825d477-3ed2-47ee-8f2f-7c9dfee20ad7'
p476
(dp477
sS'363e5e21-8307-47e2-a7e4-bbe40a906180'
p478
(dp479
sS'17358048-b822-4071-adc5-bff56d695389'
p480
(dp481
sS'cb7b0df0-5589-4f06-ab9f-debdc3b81806'
p482
(dp483
sS'fbf339d6-e986-4c7d-adf0-4393a822687f'
p484
(dp485
ssg34
(dp486
S'ce180bf9-3806-40fc-bb24-3ec6e122bc41'
p487
(dp488
sS'910ccc9a-69bd-440b-b610-57864d5c980b'
p489
(dp490
ssg38
(dp491
S'cb7b0df0-5589-4f06-ab9f-debdc3b81806'
p492
(dp493
sS'c94f8c99-1003-4e97-9dc7-15ea9f8dee3e'
p494
(dp495
sS'ead233d1-9efb-44f9-88e2-5553aa941275'
p496
g481
ssg42
(dp497
S'fc0b7fb2-4db9-4c9c-8391-ed18bd03c948'
p498
(dp499
sS'7a8d4909-dc39-40c4-b44c-7179762c0683'
p500
(dp501
ssg46
(dp502
S'7a1087d6-a74e-40be-add5-000418677067'
p503
(dp504
sS'ddce61b2-5c71-4dde-935c-a230ca49a9b8'
p505
(dp506
ssg50
(dp507
S'98a31d11-6832-40ae-aadc-335ecd6e2eab'
p508
(dp509
sS'fc853279-89d4-4175-b7fb-9301eee9e500'
p510
g504
ssg54
(dp511
S'5b10eefc-5294-43d6-b5c4-91217835391a'
p512
(dp513
sS'b8eee8fc-4d21-44e6-8f45-c65771d0d51a'
p514
(dp515
sS'38b625e3-ba6c-4e85-8192-f1babd638302'
p516
(dp517
ssg58
(dp518
sg62
(dp519
S'53c05fa2-c5a1-44d9-8e1d-92e0d17f52cb'
p520
(dp521
sS'6ae44ab2-dc4c-4412-8511-c7f6a0bf5fed'
p522
(dp523
ssg66
(dp524
S'73c1036a-a216-4193-94e4-ab0f55faa37d'
p525
g521
ssg70
(dp526
S'b8eee8fc-4d21-44e6-8f45-c65771d0d51a'
p527
(dp528
ssg74
(dp529
S'86334563-5c4b-492a-a308-ff3bae182b61'
p530
(dp531
sS'0e7a9b74-b22f-4e74-8cf0-7ddba93310f2'
p532
(dp533
sS'52b87659-30b8-4e6e-83f5-33f18cb8b96c'
p534
(dp535
sS'757a8a63-5128-48fe-92ee-1a7d092c89d5'
p536
(dp537
sS'73586fb6-b410-4829-8d89-8233a045cd37'
p538
(dp539
sS'b8eee8fc-4d21-44e6-8f45-c65771d0d51a'
p540
(dp541
ssg78
(dp542
S'b63f0abc-e559-464d-975b-bb007d6131df'
p543
g464
sS'f743730a-407f-4496-9a5b-6f047325347e'
p544
(dp545
sS'b2d52810-cc14-45b1-b44f-188172f8a970'
p546
(dp547
sS'133240fc-fece-4390-9aea-7966b8aa755b'
p548
(dp549
ssg82
(dp550
S'aeb1a97f-52bd-410c-a106-8a34a340d32d'
p551
g490
sS'ce180bf9-3806-40fc-bb24-3ec6e122bc41'
p552
(dp553
ssg86
(dp554
S'd8b163df-7720-47d2-a2a6-3196c49a0da0'
p555
(dp556
sS'b43869a7-b200-4976-9cef-b0c1852ea5f6'
p557
g451
sS'1362ddc3-ac3b-4ba4-85c2-6830d1da20e3'
p558
(dp559
ssg90
(dp560
S'52b87659-30b8-4e6e-83f5-33f18cb8b96c'
p561
(dp562
ssg94
(dp563
S'ead233d1-9efb-44f9-88e2-5553aa941275'
p564
g485
ssg98
(dp565
S'c521771c-1813-43af-886b-3f8584afd7c2'
p566
(dp567
ssg102
(dp568
S'85a7d2a8-d16e-4bbe-a7d1-1562f360c792'
p569
(dp570
sS'887cb527-1125-48fc-bdbe-8a4ec42898aa'
p571
(dp572
ssg106
(dp573
S'6ae44ab2-dc4c-4412-8511-c7f6a0bf5fed'
p574
(dp575
sS'830d1f68-b38c-4ccd-92b3-2a18088c8469'
p576
(dp577
ssg110
(dp578
S'86334563-5c4b-492a-a308-ff3bae182b61'
p579
(dp580
ssg114
(dp581
S'7a1087d6-a74e-40be-add5-000418677067'
p582
g509
sS'ddce61b2-5c71-4dde-935c-a230ca49a9b8'
p583
(dp584
ssg118
(dp585
S'c521771c-1813-43af-886b-3f8584afd7c2'
p586
(dp587
ssg122
(dp588
S'c51c688e-e42e-4ed2-8971-0e9c6d193205'
p589
(dp590
sS'c0e72a7e-4ed1-4805-ab8a-d598e505cb3b'
p591
(dp592
sS'e0fcc15e-031e-440a-97df-68a24dcc4778'
p593
(dp594
ssg126
(dp595
S'0e7a9b74-b22f-4e74-8cf0-7ddba93310f2'
p596
(dp597
ssg130
(dp598
S'b63f0abc-e559-464d-975b-bb007d6131df'
p599
g466
sS'a14b7ab5-1f07-44b1-9a02-a14bff438694'
p600
(dp601
sS'06d2c1f2-b1e7-4dbb-a183-a1922f712f14'
p602
(dp603
sS'52b87659-30b8-4e6e-83f5-33f18cb8b96c'
p604
(dp605
ssg134
(dp606
S'432558b3-0f40-4bd2-bb27-4b45fa620ecf'
p607
(dp608
ssg138
(dp609
S'003fc845-de7d-4b29-9a80-e1711bcdd11c'
p610
(dp611
ssg142
(dp612
S'd41d0086-0fe2-4848-91c4-6c05cf67dc68'
p613
(dp614
sS'ddce61b2-5c71-4dde-935c-a230ca49a9b8'
p615
(dp616
ssg146
(dp617
S'68760bcd-c4cf-43ed-9cff-2f1069a17773'
p618
g570
sS'141d3417-a764-4252-a325-15d516af6f70'
p619
g438
ssg150
(dp620
S'dcfe247c-582e-446e-9e96-1e8922015da9'
p621
(dp622
sS'4ad132e2-e02a-4096-b52e-93895c5454fe'
p623
(dp624
ssg154
(dp625
S'6ae44ab2-dc4c-4412-8511-c7f6a0bf5fed'
p626
(dp627
ssg158
(dp628
S'38b625e3-ba6c-4e85-8192-f1babd638302'
p629
(dp630
ssg162
(dp631
S'70103d76-63d7-4a85-a228-5f7aa13151d6'
p632
g587
sS'5aa12a2b-aa1f-47a6-ba73-d98620eceac5'
p633
g567
sS'b63f0abc-e559-464d-975b-bb007d6131df'
p634
g462
sS'2a5edf4b-e804-4a1e-bf1d-4aef1f40713a'
p635
(dp636
ssg166
(dp637
S'4ad132e2-e02a-4096-b52e-93895c5454fe'
p638
(dp639
ssg170
(dp640
S'6fd3f441-f548-4724-9552-f6b7eed1812b'
p641
g549
ssg174
(dp642
S'5ab94089-7913-40db-92fa-aa6aac9541a1'
p643
g535
sS'e1f9ece2-aa55-47a8-accd-6e6d2de17444'
p644
g605
sS'c72dc750-9283-47a3-9d72-f04946e50492'
p645
g562
sS'c51c688e-e42e-4ed2-8971-0e9c6d193205'
p646
(dp647
sS'63681925-3be4-471a-9f81-d628589c0ebe'
p648
(dp649
sS'ddce61b2-5c71-4dde-935c-a230ca49a9b8'
p650
(dp651
ssg178
(dp652
S'ead233d1-9efb-44f9-88e2-5553aa941275'
p653
g479
ssg182
(dp654
S'5ab94089-7913-40db-92fa-aa6aac9541a1'
p655
g539
sS'ce180bf9-3806-40fc-bb24-3ec6e122bc41'
p656
(dp657
ssg186
(dp658
S'bdbdb9d6-4d20-4303-bed6-ef1de00e0b1e'
p659
(dp660
ssg190
(dp661
S'17358048-b822-4071-adc5-bff56d695389'
p662
g493
sS'7d693077-957a-439d-bc5f-52f64b053a1b'
p663
(dp664
sS'b63f0abc-e559-464d-975b-bb007d6131df'
p665
g474
sS'003fc845-de7d-4b29-9a80-e1711bcdd11c'
p666
(dp667
sS'c94f8c99-1003-4e97-9dc7-15ea9f8dee3e'
p668
(dp669
sS'bdbdb9d6-4d20-4303-bed6-ef1de00e0b1e'
p670
(dp671
sS'ead233d1-9efb-44f9-88e2-5553aa941275'
p672
g483
ssg194
(dp673
S'7f089ec3-23c7-4a3c-afd6-edeeb615bb07'
p674
(dp675
ssg198
(dp676
S'7f089ec3-23c7-4a3c-afd6-edeeb615bb07'
p677
(dp678
sS'26a4ac08-ab5a-40a3-b551-8295ce3bd74f'
p679
g575
sS'a1fa133d-1328-4b05-8a40-a73afe805fe9'
p680
(dp681
sS'64d11819-85a7-45b1-8daa-19975256b846'
p682
(dp683
sS'73c1036a-a216-4193-94e4-ab0f55faa37d'
p684
g523
sS'7f6d5d1c-e193-4056-bf81-f84e6c4b8175'
p685
g627
sS'b8eee8fc-4d21-44e6-8f45-c65771d0d51a'
p686
(dp687
ssg202
(dp688
S'd41d0086-0fe2-4848-91c4-6c05cf67dc68'
p689
(dp690
sS'3cc0404b-0755-44da-a33b-f060a785bf28'
p691
(dp692
sS'ce180bf9-3806-40fc-bb24-3ec6e122bc41'
p693
(dp694
ssg206
(dp695
S'141d3417-a764-4252-a325-15d516af6f70'
p696
g446
ssg210
(dp697
S'6ae44ab2-dc4c-4412-8511-c7f6a0bf5fed'
p698
g683
ssg214
(dp699
S'4ad132e2-e02a-4096-b52e-93895c5454fe'
p700
(dp701
ssg218
(dp702
S'3f740e63-f147-49e0-9d65-aec2e88373e8'
p703
(dp704
sS'c11cabb9-518c-454e-92e9-46144429b0a2'
p705
g501
sS'141d3417-a764-4252-a325-15d516af6f70'
p706
g448
ssg222
(dp707
S'b8eee8fc-4d21-44e6-8f45-c65771d0d51a'
p708
(dp709
sS'8e8e9ec5-53e0-4f23-92ba-378870390af5'
p710
g513
ssg226
(dp711
S'52b87659-30b8-4e6e-83f5-33f18cb8b96c'
p712
g649
ssg230
(dp713
S'035790f7-a372-4f3b-aa37-fcd3faaa8083'
p714
g639
sS'45882272-2050-4f54-8798-ecb546e80ed7'
p715
(dp716
sS'887cb527-1125-48fc-bdbe-8a4ec42898aa'
p717
(dp718
sS'4a1bcb6e-9fe3-4162-8c4a-d94fadabc556'
p719
g701
sS'd8b163df-7720-47d2-a2a6-3196c49a0da0'
p720
(dp721
sS'b8eee8fc-4d21-44e6-8f45-c65771d0d51a'
p722
(dp723
sS'37a4c445-90bf-4b66-913a-5e1feaef068e'
p724
g624
ssg234
(dp725
S'6ae44ab2-dc4c-4412-8511-c7f6a0bf5fed'
p726
g681
ssg238
(dp727
S'c51c688e-e42e-4ed2-8971-0e9c6d193205'
p728
(dp729
ssg242
(dp730
S'c51c688e-e42e-4ed2-8971-0e9c6d193205'
p731
(dp732
sS'4827cc9c-9d99-4c7b-82e5-c1988f1e5d72'
p733
(dp734
ssg246
(dp735
S'ddce61b2-5c71-4dde-935c-a230ca49a9b8'
p736
(dp737
ssg250
(dp738
S'4ad132e2-e02a-4096-b52e-93895c5454fe'
p739
g718
sS'68760bcd-c4cf-43ed-9cff-2f1069a17773'
p740
g572
sS'141d3417-a764-4252-a325-15d516af6f70'
p741
g440
ssg254
(dp742
S'e1a73729-2391-4b5a-8c68-573dea9334ea'
p743
g692
ssg258
(dp744
S'17358048-b822-4071-adc5-bff56d695389'
p745
g495
sS'cb7b0df0-5589-4f06-ab9f-debdc3b81806'
p746
g669
sS'cf33ce3d-4d9e-49d6-afd5-38475766f09a'
p747
(dp748
ssg262
(dp749
S'349d6cee-43d8-49cd-a525-f03b8b4222d7'
p750
g660
sS'7d693077-957a-439d-bc5f-52f64b053a1b'
p751
(dp752
sS'cb7b0df0-5589-4f06-ab9f-debdc3b81806'
p753
g671
ssg266
(dp754
S'26a4ac08-ab5a-40a3-b551-8295ce3bd74f'
p755
g577
ssg270
(dp756
S'ead233d1-9efb-44f9-88e2-5553aa941275'
p757
g477
ssg274
(dp758
S'e1f9ece2-aa55-47a8-accd-6e6d2de17444'
p759
g601
ssg278
(dp760
S'4e4a0c56-8d77-4147-abb9-8c15234b0198'
p761
(dp762
sS'cb7b0df0-5589-4f06-ab9f-debdc3b81806'
p763
g667
sS'b4531e4f-4eb3-4fd3-8974-1c7b76ceb1c7'
p764
g611
ssg282
(dp765
S'94483588-7dbf-4b49-a171-254727fb5384'
p766
g559
ssg286
(dp767
S'0ccacd3d-f71f-46f5-b8f5-58aa3356db7c'
p768
(dp769
sS'4e4a0c56-8d77-4147-abb9-8c15234b0198'
p770
(dp771
sS'70e9fba7-7113-420c-84c7-651a1ce19235'
p772
g732
sS'c1d7d2c8-610b-4f77-bf04-7af2cbd5fdb2'
p773
(dp774
sS'52b87659-30b8-4e6e-83f5-33f18cb8b96c'
p775
g647
sS'6eaf9961-8b36-4a85-93bd-6819ae6788ac'
p776
g729
sS'6eab60a3-9d31-426b-8905-08578f915f54'
p777
g590
sS'c0e72a7e-4ed1-4805-ab8a-d598e505cb3b'
p778
(dp779
sS'4827cc9c-9d99-4c7b-82e5-c1988f1e5d72'
p780
(dp781
ssg290
(dp782
S'aeb1a97f-52bd-410c-a106-8a34a340d32d'
p783
g488
sS'86334563-5c4b-492a-a308-ff3bae182b61'
p784
(dp785
sS'910ccc9a-69bd-440b-b610-57864d5c980b'
p786
g553
sS'e1a73729-2391-4b5a-8c68-573dea9334ea'
p787
g694
sS'73586fb6-b410-4829-8d89-8233a045cd37'
p788
g657
sS'b8eee8fc-4d21-44e6-8f45-c65771d0d51a'
p789
(dp790
sS'ddce61b2-5c71-4dde-935c-a230ca49a9b8'
p791
(dp792
ssg294
(dp793
S'c51c688e-e42e-4ed2-8971-0e9c6d193205'
p794
g769
ssg298
(dp795
S'c51c688e-e42e-4ed2-8971-0e9c6d193205'
p796
g771
sS'003fc845-de7d-4b29-9a80-e1711bcdd11c'
p797
g762
sS'4827cc9c-9d99-4c7b-82e5-c1988f1e5d72'
p798
(dp799
ssg302
(dp800
S'00121830-5632-4793-adbd-b07ae48fab5d'
p801
g614
sS'e1a73729-2391-4b5a-8c68-573dea9334ea'
p802
g690
ssg306
(dp803
S'c51c688e-e42e-4ed2-8971-0e9c6d193205'
p804
g774
sS'e0fcc15e-031e-440a-97df-68a24dcc4778'
p805
(dp806
ssg310
(dp807
S'c11cabb9-518c-454e-92e9-46144429b0a2'
p808
g499
sS'141d3417-a764-4252-a325-15d516af6f70'
p809
g442
ssg314
(dp810
S'5ab94089-7913-40db-92fa-aa6aac9541a1'
p811
g537
sS'86334563-5c4b-492a-a308-ff3bae182b61'
p812
(dp813
ssg318
(dp814
S'ddce61b2-5c71-4dde-935c-a230ca49a9b8'
p815
(dp816
ssg322
(dp817
S'ce180bf9-3806-40fc-bb24-3ec6e122bc41'
p818
g792
sS'fc853279-89d4-4175-b7fb-9301eee9e500'
p819
g506
sS'0b6733fa-68bb-4e06-b946-8e15b0208ede'
p820
g737
sS'52b87659-30b8-4e6e-83f5-33f18cb8b96c'
p821
g651
sS'98a31d11-6832-40ae-aadc-335ecd6e2eab'
p822
g584
sS'3fafd09c-0eb5-4c72-9c9b-2070833e84a2'
p823
g816
sS'00121830-5632-4793-adbd-b07ae48fab5d'
p824
g616
ssg326
(dp825
S'bdbdb9d6-4d20-4303-bed6-ef1de00e0b1e'
p826
g752
sS'cb7b0df0-5589-4f06-ab9f-debdc3b81806'
p827
g664
ssg330
(dp828
S'4e4a0c56-8d77-4147-abb9-8c15234b0198'
p829
g799
sS'c51c688e-e42e-4ed2-8971-0e9c6d193205'
p830
g781
sS'70e9fba7-7113-420c-84c7-651a1ce19235'
p831
g734
ssg334
(dp832
S'141d3417-a764-4252-a325-15d516af6f70'
p833
g436
sS'3f740e63-f147-49e0-9d65-aec2e88373e8'
p834
(dp835
sS'37a4c445-90bf-4b66-913a-5e1feaef068e'
p836
g622
ssg338
(dp837
sg342
(dp838
S'c1d7d2c8-610b-4f77-bf04-7af2cbd5fdb2'
p839
g806
sS'6eab60a3-9d31-426b-8905-08578f915f54'
p840
g594
ssg346
(dp841
S'b8eee8fc-4d21-44e6-8f45-c65771d0d51a'
p842
(dp843
sS'7aff74e4-9e03-49c2-8797-4185ae0a3fb4'
p844
g630
sS'8e8e9ec5-53e0-4f23-92ba-378870390af5'
p845
g517
ssg350
(dp846
S'6fd3f441-f548-4724-9552-f6b7eed1812b'
p847
g545
ssg354
(dp848
S'b8eee8fc-4d21-44e6-8f45-c65771d0d51a'
p849
(dp850
ssg358
(dp851
S'5ab94089-7913-40db-92fa-aa6aac9541a1'
p852
g533
sS'30595e63-ef7c-433d-9b5c-dad88e2cb26a'
p853
g459
sS'6d230a53-8c34-4e8f-93a0-4b3ffcce1b71'
p854
g597
sS'06d2c1f2-b1e7-4dbb-a183-a1922f712f14'
p855
(dp856
ssg362
(dp857
S'b63f0abc-e559-464d-975b-bb007d6131df'
p858
g468
ssg366
(dp859
S'5ab94089-7913-40db-92fa-aa6aac9541a1'
p860
g541
sS'4ad132e2-e02a-4096-b52e-93895c5454fe'
p861
g723
sS'ff9a228f-2b1d-479f-ab40-403be068aad2'
p862
g850
sS'ce180bf9-3806-40fc-bb24-3ec6e122bc41'
p863
g790
sS'6ae44ab2-dc4c-4412-8511-c7f6a0bf5fed'
p864
g687
sS'432558b3-0f40-4bd2-bb27-4b45fa620ecf'
p865
(dp866
sS'8e8e9ec5-53e0-4f23-92ba-378870390af5'
p867
g515
sS'8b9ceed2-d90a-4e88-a982-6b2aa9c6d372'
p868
g456
sS'38b625e3-ba6c-4e85-8192-f1babd638302'
p869
g843
sS'5b10eefc-5294-43d6-b5c4-91217835391a'
p870
g709
sS'8301a0b5-0398-47a1-a331-fa9a35aeb5f8'
p871
g528
ssg370
(dp872
S'd8b163df-7720-47d2-a2a6-3196c49a0da0'
p873
(dp874
ssg374
(dp875
S'd8b163df-7720-47d2-a2a6-3196c49a0da0'
p876
(dp877
sS'0e7a9b74-b22f-4e74-8cf0-7ddba93310f2'
p878
g856
sS'e1f9ece2-aa55-47a8-accd-6e6d2de17444'
p879
g603
ssg378
(dp880
S'c94f8c99-1003-4e97-9dc7-15ea9f8dee3e'
p881
g748
ssg382
(dp882
S'dcfe247c-582e-446e-9e96-1e8922015da9'
p883
g835
sS'7a8d4909-dc39-40c4-b44c-7179762c0683'
p884
g704
ssg386
(dp885
S'4ad132e2-e02a-4096-b52e-93895c5454fe'
p886
g716
sS'b43869a7-b200-4976-9cef-b0c1852ea5f6'
p887
g453
ssg390
(dp888
S'4ff0c4e1-1a63-4f41-85cf-c121845583a6'
p889
g608
sS'b8eee8fc-4d21-44e6-8f45-c65771d0d51a'
p890
g866
ssg394
(dp891
S'c521771c-1813-43af-886b-3f8584afd7c2'
p892
g636
ssg398
(dp893
sg402
(dp894
S'141d3417-a764-4252-a325-15d516af6f70'
p895
g444
ssg406
(dp896
S'6ae44ab2-dc4c-4412-8511-c7f6a0bf5fed'
p897
g678
sS'464ea81a-facb-4141-90e4-3bdef8d6d102'
p898
g675
ssg410
(dp899
S'5ab94089-7913-40db-92fa-aa6aac9541a1'
p900
g531
sS'757a8a63-5128-48fe-92ee-1a7d092c89d5'
p901
g813
sS'ce180bf9-3806-40fc-bb24-3ec6e122bc41'
p902
g785
sS'2e131359-225e-47f9-ab43-be01a90b66f4'
p903
g580
ssg414
(dp904
S'd8b163df-7720-47d2-a2a6-3196c49a0da0'
p905
(dp906
sS'b63f0abc-e559-464d-975b-bb007d6131df'
p907
g470
ssg418
(dp908
S'6fd3f441-f548-4724-9552-f6b7eed1812b'
p909
g547
ssg422
(dp910
S'4ad132e2-e02a-4096-b52e-93895c5454fe'
p911
g721
sS'06d2c1f2-b1e7-4dbb-a183-a1922f712f14'
p912
g877
sS'94483588-7dbf-4b49-a171-254727fb5384'
p913
g556
sS'b63f0abc-e559-464d-975b-bb007d6131df'
p914
g472
sS'c574e48e-ade8-47a6-bcb3-87b5dd10885a'
p915
g906
sS'c8e71ad8-9d23-492f-815e-f3346e4584d9'
p916
g874
ssg426
(dp917
S'c51c688e-e42e-4ed2-8971-0e9c6d193205'
p918
g779
sS'6eab60a3-9d31-426b-8905-08578f915f54'
p919
g592
sssS'adj'
p920
g433
sb.