ccopy_reg
_reconstructor
p0
(cnetworkx.classes.graph
Graph
p1
c__builtin__
object
p2
Ntp3
Rp4
(dp5
S'node'
p6
(dp7
S'78731c7d-fbe3-42f7-afa0-43e49bdc0c0c'
p8
(dp9
S'type'
p10
S'C'
p11
sS'label'
p12
S'HALL'
p13
ssS'c482ea39-8ee7-4666-9bd7-b1a6aa432ae0'
p14
(dp15
g10
S'R'
p16
sg12
S'SMALL ADMINISTRATIVE'
p17
ssS'9e18bd0a-17ff-42dd-ac98-801bb4443188'
p18
(dp19
g10
S'R'
p20
sg12
S'CLASSROOM'
p21
ssS'12ab5ac9-80cd-47f2-b026-e42f7777bdf3'
p22
(dp23
g10
S'R'
p24
sg12
S'SMALL ADMINISTRATIVE'
p25
ssS'6063677e-f9d2-4c89-91cf-a39c73996bf5'
p26
(dp27
g10
S'R'
p28
sg12
S'BIG SERVICE'
p29
ssS'38189e68-16f5-471a-b8a2-759ea29eafc4'
p30
(dp31
g10
S'C'
p32
sg12
S'CORRIDOR'
p33
ssS'4585a9c2-1c86-4cf7-837a-2c154fc86952'
p34
(dp35
g10
S'R'
p36
sg12
S'LIBRARY'
p37
ssS'828c740c-04d1-43ec-aeb4-c3ea49eea5cb'
p38
(dp39
g10
S'R'
p40
sg12
S'CANTEEN'
p41
ssS'0700b31c-50a8-4225-8863-98e171d70669'
p42
(dp43
g10
S'R'
p44
sg12
S'MEDIUM SERVICE'
p45
ssS'cba67538-3857-4f1b-b9a4-3fad615183bf'
p46
(dp47
g10
S'R'
p48
sg12
S'CLASSROOM'
p49
ssS'23393f32-f2f4-4b18-8131-e4bf8d6d98b7'
p50
(dp51
g10
S'C'
p52
sg12
S'WASHROOM'
p53
ssS'9b692207-cdf1-4b72-954b-4156c34892a5'
p54
(dp55
g10
S'R'
p56
sg12
S'SMALL ADMINISTRATIVE'
p57
ssS'26723cd1-0145-440a-95b7-65792ec18b2f'
p58
(dp59
g10
S'C'
p60
sg12
S'CORRIDOR'
p61
ssS'1986b162-0b79-4f5a-894d-d4ba7f066aa5'
p62
(dp63
g10
S'C'
p64
sg12
S'CORRIDOR'
p65
ssS'30a2851e-4b2e-4c3a-9721-ae69c0060edd'
p66
(dp67
g10
S'C'
p68
sg12
S'CORRIDOR'
p69
ssS'4ec87e8e-05bf-49d7-add7-74f929ab5558'
p70
(dp71
g10
S'R'
p72
sg12
S'CLASSROOM'
p73
ssS'c8c96a3b-416b-4ae3-b040-5cba99be1b12'
p74
(dp75
g10
S'C'
p76
sg12
S'CORRIDOR'
p77
ssS'0e4955fa-f4ee-4a2f-8e28-ac3475afe8f7'
p78
(dp79
g10
S'R'
p80
sg12
S'MEDIUM SERVICE'
p81
ssS'463082eb-f973-4ce7-a6e5-c0ac616c558b'
p82
(dp83
g10
S'R'
p84
sg12
S'CLASSROOM'
p85
ssS'ec892acf-a735-4a4c-8081-b9452019f346'
p86
(dp87
g10
S'R'
p88
sg12
S'CLASSROOM'
p89
ssS'00ca7afb-afdb-441b-9045-f2575c1a6f85'
p90
(dp91
g10
S'R'
p92
sg12
S'GYM'
p93
ssS'd1cfe5d5-3715-42e0-a112-197856e56acf'
p94
(dp95
g10
S'R'
p96
sg12
S'CLASSROOM'
p97
ssS'32ee0693-ac33-4a3a-bd4b-bf259c3c1f7d'
p98
(dp99
g10
S'R'
p100
sg12
S'CLASSROOM'
p101
ssS'b798a918-0f96-476c-a3c3-694d5c188445'
p102
(dp103
g10
S'R'
p104
sg12
S'MEDIUM ADMINISTRATIVE'
p105
ssS'af0c25af-cb40-4dcc-81b4-13f99318bf93'
p106
(dp107
g10
S'R'
p108
sg12
S'CLOSET'
p109
ssS'e3c4e56c-eec9-4edc-bf88-6f0317ee098d'
p110
(dp111
g10
S'R'
p112
sg12
S'MEDIUM SERVICE'
p113
ssS'6cca983a-e0ff-4191-9dc7-aa2ff2845e38'
p114
(dp115
g10
S'R'
p116
sg12
S'CLASSROOM'
p117
ssS'3b9a0ba5-b281-40ab-8dfd-93932198a626'
p118
(dp119
g10
S'C'
p120
sg12
S'WASHROOM'
p121
ssS'c9500571-ee34-4459-b139-4a36b10bbbef'
p122
(dp123
g10
S'R'
p124
sg12
S'MEDIUM ADMINISTRATIVE'
p125
ssS'f0579f2b-17d2-4ae3-8f59-caa61ea8538c'
p126
(dp127
g10
S'R'
p128
sg12
S'MEDIUM SERVICE'
p129
ssS'be61e105-5a32-4e5a-b0c4-3edb6c7cd2aa'
p130
(dp131
g10
S'R'
p132
sg12
S'CLASSROOM'
p133
sssS'graph'
p134
(dp135
sS'edge'
p136
(dp137
g8
(dp138
S'26723cd1-0145-440a-95b7-65792ec18b2f'
p139
(dp140
sS'4585a9c2-1c86-4cf7-837a-2c154fc86952'
p141
(dp142
ssg14
(dp143
S'f0579f2b-17d2-4ae3-8f59-caa61ea8538c'
p144
(dp145
ssg18
(dp146
S'30a2851e-4b2e-4c3a-9721-ae69c0060edd'
p147
(dp148
ssg22
(dp149
S'c8c96a3b-416b-4ae3-b040-5cba99be1b12'
p150
(dp151
ssg26
(dp152
S'af0c25af-cb40-4dcc-81b4-13f99318bf93'
p153
(dp154
ssg30
(dp155
S'1986b162-0b79-4f5a-894d-d4ba7f066aa5'
p156
(dp157
sS'30a2851e-4b2e-4c3a-9721-ae69c0060edd'
p158
(dp159
sS'23393f32-f2f4-4b18-8131-e4bf8d6d98b7'
p160
(dp161
sS'cba67538-3857-4f1b-b9a4-3fad615183bf'
p162
(dp163
sS'6cca983a-e0ff-4191-9dc7-aa2ff2845e38'
p164
(dp165
sS'0e4955fa-f4ee-4a2f-8e28-ac3475afe8f7'
p166
(dp167
sS'be61e105-5a32-4e5a-b0c4-3edb6c7cd2aa'
p168
(dp169
ssg34
(dp170
S'78731c7d-fbe3-42f7-afa0-43e49bdc0c0c'
p171
g142
ssg38
(dp172
S'1986b162-0b79-4f5a-894d-d4ba7f066aa5'
p173
(dp174
sS'f0579f2b-17d2-4ae3-8f59-caa61ea8538c'
p175
(dp176
ssg42
(dp177
S'c8c96a3b-416b-4ae3-b040-5cba99be1b12'
p178
(dp179
ssg46
(dp180
S'38189e68-16f5-471a-b8a2-759ea29eafc4'
p181
g163
ssg50
(dp182
S'38189e68-16f5-471a-b8a2-759ea29eafc4'
p183
g161
ssg54
(dp184
S'c8c96a3b-416b-4ae3-b040-5cba99be1b12'
p185
(dp186
ssg58
(dp187
S'78731c7d-fbe3-42f7-afa0-43e49bdc0c0c'
p188
g140
sS'c8c96a3b-416b-4ae3-b040-5cba99be1b12'
p189
(dp190
sS'30a2851e-4b2e-4c3a-9721-ae69c0060edd'
p191
(dp192
ssg62
(dp193
S'828c740c-04d1-43ec-aeb4-c3ea49eea5cb'
p194
g174
sS'00ca7afb-afdb-441b-9045-f2575c1a6f85'
p195
(dp196
sS'38189e68-16f5-471a-b8a2-759ea29eafc4'
p197
g157
ssg66
(dp198
S'd1cfe5d5-3715-42e0-a112-197856e56acf'
p199
(dp200
sS'32ee0693-ac33-4a3a-bd4b-bf259c3c1f7d'
p201
(dp202
sS'4ec87e8e-05bf-49d7-add7-74f929ab5558'
p203
(dp204
sS'38189e68-16f5-471a-b8a2-759ea29eafc4'
p205
g159
sS'af0c25af-cb40-4dcc-81b4-13f99318bf93'
p206
(dp207
sS'9e18bd0a-17ff-42dd-ac98-801bb4443188'
p208
g148
sS'3b9a0ba5-b281-40ab-8dfd-93932198a626'
p209
(dp210
sS'26723cd1-0145-440a-95b7-65792ec18b2f'
p211
g192
sS'463082eb-f973-4ce7-a6e5-c0ac616c558b'
p212
(dp213
sS'ec892acf-a735-4a4c-8081-b9452019f346'
p214
(dp215
ssg70
(dp216
S'30a2851e-4b2e-4c3a-9721-ae69c0060edd'
p217
g204
ssg74
(dp218
S'0700b31c-50a8-4225-8863-98e171d70669'
p219
g179
sS'b798a918-0f96-476c-a3c3-694d5c188445'
p220
(dp221
sS'9b692207-cdf1-4b72-954b-4156c34892a5'
p222
g186
sS'12ab5ac9-80cd-47f2-b026-e42f7777bdf3'
p223
g151
sS'26723cd1-0145-440a-95b7-65792ec18b2f'
p224
g190
sS'c9500571-ee34-4459-b139-4a36b10bbbef'
p225
(dp226
ssg78
(dp227
S'38189e68-16f5-471a-b8a2-759ea29eafc4'
p228
g167
ssg82
(dp229
S'30a2851e-4b2e-4c3a-9721-ae69c0060edd'
p230
g213
ssg86
(dp231
S'30a2851e-4b2e-4c3a-9721-ae69c0060edd'
p232
g215
ssg90
(dp233
S'1986b162-0b79-4f5a-894d-d4ba7f066aa5'
p234
g196
ssg94
(dp235
S'30a2851e-4b2e-4c3a-9721-ae69c0060edd'
p236
g200
ssg98
(dp237
S'30a2851e-4b2e-4c3a-9721-ae69c0060edd'
p238
g202
ssg102
(dp239
S'c8c96a3b-416b-4ae3-b040-5cba99be1b12'
p240
g221
ssg106
(dp241
S'6063677e-f9d2-4c89-91cf-a39c73996bf5'
p242
g154
sS'30a2851e-4b2e-4c3a-9721-ae69c0060edd'
p243
g207
ssg110
(dp244
S'f0579f2b-17d2-4ae3-8f59-caa61ea8538c'
p245
(dp246
ssg114
(dp247
S'38189e68-16f5-471a-b8a2-759ea29eafc4'
p248
g165
ssg118
(dp249
S'30a2851e-4b2e-4c3a-9721-ae69c0060edd'
p250
g210
ssg122
(dp251
S'c8c96a3b-416b-4ae3-b040-5cba99be1b12'
p252
g226
ssg126
(dp253
S'828c740c-04d1-43ec-aeb4-c3ea49eea5cb'
p254
g176
sS'e3c4e56c-eec9-4edc-bf88-6f0317ee098d'
p255
g246
sS'c482ea39-8ee7-4666-9bd7-b1a6aa432ae0'
p256
g145
ssg130
(dp257
S'38189e68-16f5-471a-b8a2-759ea29eafc4'
p258
g169
sssS'adj'
p259
g137
sb.