ccopy_reg
_reconstructor
p0
(cnetworkx.classes.graph
Graph
p1
c__builtin__
object
p2
Ntp3
Rp4
(dp5
S'node'
p6
(dp7
S'51d4e878-c186-4a98-8173-abd211b73f4c'
p8
(dp9
S'type'
p10
S'R'
p11
sS'label'
p12
S'CLASSROOM'
p13
ssS'25c40e44-bd25-4b07-8aca-994a63191846'
p14
(dp15
g10
S'R'
p16
sg12
S'BATHROOM'
p17
ssS'903d6ca0-3fae-4384-a6a2-e53222179853'
p18
(dp19
g10
S'C'
p20
sg12
S'CORRIDOR'
p21
ssS'742503be-1b22-4f39-bcea-3a467551d633'
p22
(dp23
g10
S'R'
p24
sg12
S'CLASSROOM'
p25
ssS'74b76294-e8fd-4894-ab5c-dd742b073ed2'
p26
(dp27
g10
S'R'
p28
sg12
S'CLASSROOM'
p29
ssS'0fcd3896-92a8-4ec5-ad68-275381287430'
p30
(dp31
g10
S'C'
p32
sg12
S'WASHROOM'
p33
ssS'bee885f4-09c3-4233-91a1-1721454fc67a'
p34
(dp35
g10
S'C'
p36
sg12
S'WASHROOM'
p37
ssS'0c09f683-c7f2-4a21-abeb-da08628d4bef'
p38
(dp39
g10
S'R'
p40
sg12
S'MEDIUM'
p41
ssS'e6e4d372-eb22-40af-b158-fb637a3d95e9'
p42
(dp43
g10
S'E'
p44
sg12
S'STAIRS'
p45
ssS'3a1562d4-1129-4da0-8a99-69b6e684b30a'
p46
(dp47
g10
S'R'
p48
sg12
S'CLASSROOM'
p49
ssS'ae561efb-e9c0-4d0e-b0d9-0449318911da'
p50
(dp51
g10
S'C'
p52
sg12
S'CORRIDOR'
p53
ssS'dc642873-6e00-4eee-8493-7bf113ea529e'
p54
(dp55
g10
S'R'
p56
sg12
S'MEDIUM'
p57
ssS'2d3980b1-8f8c-46e6-aa42-bf780b87f7b9'
p58
(dp59
g10
S'R'
p60
sg12
S'MEDIUM'
p61
ssS'1ccb983c-5a19-4a6a-bf91-7654d75466f0'
p62
(dp63
g10
S'R'
p64
sg12
S'CLASSROOM'
p65
ssS'9b506877-645a-47ef-a68d-1ecc41f7d225'
p66
(dp67
g10
S'R'
p68
sg12
S'CLASSROOM'
p69
ssS'17a8b64f-8f34-4061-8a35-b689c6a5a80f'
p70
(dp71
g10
S'R'
p72
sg12
S'CLASSROOM'
p73
ssS'6d5ca3b0-f5c8-40cd-8a13-8fd056dd5703'
p74
(dp75
g10
S'R'
p76
sg12
S'CLASSROOM'
p77
ssS'5ae1a9cf-fcca-47be-805e-b51c541d5214'
p78
(dp79
g10
S'C'
p80
sg12
S'HALL'
p81
ssS'e308b1fb-200f-438f-8559-35304d96d609'
p82
(dp83
g10
S'R'
p84
sg12
S'CLASSROOM'
p85
ssS'aedfa2fe-21b9-4ec1-acc1-e46652bbafc4'
p86
(dp87
g10
S'E'
p88
sg12
S'ELEVATOR'
p89
ssS'0690345b-6392-4ed1-9542-11214082d2f6'
p90
(dp91
g10
S'R'
p92
sg12
S'CLASSROOM'
p93
ssS'976e2a60-b5c9-430c-be73-9ee9fca3eb96'
p94
(dp95
g10
S'R'
p96
sg12
S'CLOSET'
p97
ssS'21ff5e2f-16b4-4104-aad5-282c2c8be155'
p98
(dp99
g10
S'R'
p100
sg12
S'MEDIUM SERVICE'
p101
ssS'7f4335ed-a741-4ad0-845f-bda5d033fd0c'
p102
(dp103
g10
S'R'
p104
sg12
S'CLASSROOM'
p105
sssS'graph'
p106
(dp107
sS'edge'
p108
(dp109
g8
(dp110
S'ae561efb-e9c0-4d0e-b0d9-0449318911da'
p111
(dp112
ssg14
(dp113
S'5ae1a9cf-fcca-47be-805e-b51c541d5214'
p114
(dp115
ssg18
(dp116
S'17a8b64f-8f34-4061-8a35-b689c6a5a80f'
p117
(dp118
sS'dc642873-6e00-4eee-8493-7bf113ea529e'
p119
(dp120
sS'2d3980b1-8f8c-46e6-aa42-bf780b87f7b9'
p121
(dp122
sS'5ae1a9cf-fcca-47be-805e-b51c541d5214'
p123
(dp124
sS'e308b1fb-200f-438f-8559-35304d96d609'
p125
(dp126
sS'0c09f683-c7f2-4a21-abeb-da08628d4bef'
p127
(dp128
sS'742503be-1b22-4f39-bcea-3a467551d633'
p129
(dp130
ssg22
(dp131
S'903d6ca0-3fae-4384-a6a2-e53222179853'
p132
g130
ssg26
(dp133
S'5ae1a9cf-fcca-47be-805e-b51c541d5214'
p134
(dp135
ssg30
(dp136
S'5ae1a9cf-fcca-47be-805e-b51c541d5214'
p137
(dp138
ssg34
(dp139
S'5ae1a9cf-fcca-47be-805e-b51c541d5214'
p140
(dp141
ssg38
(dp142
S'903d6ca0-3fae-4384-a6a2-e53222179853'
p143
g128
ssg42
(dp144
S'5ae1a9cf-fcca-47be-805e-b51c541d5214'
p145
(dp146
ssg46
(dp147
S'5ae1a9cf-fcca-47be-805e-b51c541d5214'
p148
(dp149
ssg50
(dp150
S'21ff5e2f-16b4-4104-aad5-282c2c8be155'
p151
(dp152
sS'51d4e878-c186-4a98-8173-abd211b73f4c'
p153
g112
sS'5ae1a9cf-fcca-47be-805e-b51c541d5214'
p154
(dp155
sS'0690345b-6392-4ed1-9542-11214082d2f6'
p156
(dp157
sS'1ccb983c-5a19-4a6a-bf91-7654d75466f0'
p158
(dp159
sS'9b506877-645a-47ef-a68d-1ecc41f7d225'
p160
(dp161
ssg54
(dp162
S'903d6ca0-3fae-4384-a6a2-e53222179853'
p163
g120
ssg58
(dp164
S'903d6ca0-3fae-4384-a6a2-e53222179853'
p165
g122
ssg62
(dp166
S'ae561efb-e9c0-4d0e-b0d9-0449318911da'
p167
g159
ssg66
(dp168
S'ae561efb-e9c0-4d0e-b0d9-0449318911da'
p169
g161
ssg70
(dp170
S'903d6ca0-3fae-4384-a6a2-e53222179853'
p171
g118
ssg74
(dp172
S'5ae1a9cf-fcca-47be-805e-b51c541d5214'
p173
(dp174
ssg78
(dp175
S'7f4335ed-a741-4ad0-845f-bda5d033fd0c'
p176
(dp177
sS'25c40e44-bd25-4b07-8aca-994a63191846'
p178
g115
sS'3a1562d4-1129-4da0-8a99-69b6e684b30a'
p179
g149
sS'903d6ca0-3fae-4384-a6a2-e53222179853'
p180
g124
sS'ae561efb-e9c0-4d0e-b0d9-0449318911da'
p181
g155
sS'6d5ca3b0-f5c8-40cd-8a13-8fd056dd5703'
p182
g174
sS'74b76294-e8fd-4894-ab5c-dd742b073ed2'
p183
g135
sS'0fcd3896-92a8-4ec5-ad68-275381287430'
p184
g138
sS'aedfa2fe-21b9-4ec1-acc1-e46652bbafc4'
p185
(dp186
sS'976e2a60-b5c9-430c-be73-9ee9fca3eb96'
p187
(dp188
sS'bee885f4-09c3-4233-91a1-1721454fc67a'
p189
g141
sS'e6e4d372-eb22-40af-b158-fb637a3d95e9'
p190
g146
ssg82
(dp191
S'903d6ca0-3fae-4384-a6a2-e53222179853'
p192
g126
ssg86
(dp193
S'5ae1a9cf-fcca-47be-805e-b51c541d5214'
p194
g186
ssg90
(dp195
S'ae561efb-e9c0-4d0e-b0d9-0449318911da'
p196
g157
ssg94
(dp197
S'5ae1a9cf-fcca-47be-805e-b51c541d5214'
p198
g188
ssg98
(dp199
S'ae561efb-e9c0-4d0e-b0d9-0449318911da'
p200
g152
ssg102
(dp201
S'5ae1a9cf-fcca-47be-805e-b51c541d5214'
p202
g177
sssS'adj'
p203
g109
sb.