ccopy_reg
_reconstructor
p0
(cnetworkx.classes.graph
Graph
p1
c__builtin__
object
p2
Ntp3
Rp4
(dp5
S'node'
p6
(dp7
S'5ba9d2d7-b512-42d8-a33d-18e082d56e5d'
p8
(dp9
S'type'
p10
S'E'
p11
sS'label'
p12
S'ENTRANCE'
p13
ssS'e5ef913c-e322-4e37-89e9-7e809abff2e7'
p14
(dp15
g10
S'R'
p16
sg12
S'CLASSROOM'
p17
ssS'c4d6f5a4-2fd8-4924-8ae0-aaded51da423'
p18
(dp19
g10
S'C'
p20
sg12
S'WASHROOM'
p21
ssS'd8055e97-78db-408a-afd0-95b9e415ca98'
p22
(dp23
g10
S'E'
p24
sg12
S'ENTRANCE'
p25
ssS'a5185c53-7c46-4df4-95f0-b56a0e767223'
p26
(dp27
g10
S'E'
p28
sg12
S'ELEVATOR'
p29
ssS'fd01a700-6fa5-443a-9048-08d9f1af4c74'
p30
(dp31
g10
S'R'
p32
sg12
S'CLOSET'
p33
ssS'ac6ea2c8-cba8-4aac-829b-703f880a79c4'
p34
(dp35
g10
S'C'
p36
sg12
S'CORRIDOR'
p37
ssS'd3c47541-2039-49d0-8472-4c0c55b619b5'
p38
(dp39
g10
S'C'
p40
sg12
S'CORRIDOR'
p41
ssS'35b5f7f1-5fc0-42bf-a702-29cfd8678c87'
p42
(dp43
g10
S'E'
p44
sg12
S'ENTRANCE'
p45
ssS'21977f00-4e76-49cd-be30-c7d59a593122'
p46
(dp47
g10
S'E'
p48
sg12
S'ENTRANCE'
p49
ssS'71e7467b-f02c-42a3-876b-12a37cdcf386'
p50
(dp51
g10
S'C'
p52
sg12
S'WASHROOM'
p53
ssS'2a0cfb21-2c7b-45a4-b8ce-0959b8ba7af2'
p54
(dp55
g10
S'R'
p56
sg12
S'MEDIUM ADMINISTRATIVE'
p57
ssS'd539f89b-8086-4333-b4e5-69b4e1a91586'
p58
(dp59
g10
S'C'
p60
sg12
S'WASHROOM'
p61
ssS'9f00e26d-72a9-4c94-8b15-1d9e21d0af1f'
p62
(dp63
g10
S'C'
p64
sg12
S'WASHROOM'
p65
ssS'9591d90f-fa88-4af3-8000-6ddda1df38bb'
p66
(dp67
g10
S'C'
p68
sg12
S'HALL'
p69
ssS'9e53c6df-b341-4064-a40e-7f674bda1c48'
p70
(dp71
g10
S'C'
p72
sg12
S'CORRIDOR'
p73
ssS'ff31c900-97ca-4587-8769-eee9991357d7'
p74
(dp75
g10
S'R'
p76
sg12
S'CLASSROOM'
p77
ssS'98284774-39a3-4ebe-93d2-96fc3bc4fd05'
p78
(dp79
g10
S'C'
p80
sg12
S'WASHROOM'
p81
ssS'8b445b57-9fb4-4937-9d74-3eb02337b1a4'
p82
(dp83
g10
S'R'
p84
sg12
S'CONFERENCE'
p85
ssS'28d371a4-724f-461e-82d2-f1dce9a5e0dd'
p86
(dp87
g10
S'R'
p88
sg12
S'MEDIUM SERVICE'
p89
ssS'bc63d18c-7a19-498a-927e-c4805b875e96'
p90
(dp91
g10
S'R'
p92
sg12
S'CLASSROOM'
p93
ssS'e6c80f54-a553-4a09-a2a2-be3089d67f81'
p94
(dp95
g10
S'R'
p96
sg12
S'CLASSROOM'
p97
sssS'graph'
p98
(dp99
sS'edge'
p100
(dp101
g8
(dp102
S'ac6ea2c8-cba8-4aac-829b-703f880a79c4'
p103
(dp104
ssg14
(dp105
S'ac6ea2c8-cba8-4aac-829b-703f880a79c4'
p106
(dp107
ssg18
(dp108
S'ac6ea2c8-cba8-4aac-829b-703f880a79c4'
p109
(dp110
ssg22
(dp111
S'd3c47541-2039-49d0-8472-4c0c55b619b5'
p112
(dp113
ssg26
(dp114
S'9e53c6df-b341-4064-a40e-7f674bda1c48'
p115
(dp116
ssg30
(dp117
S'9e53c6df-b341-4064-a40e-7f674bda1c48'
p118
(dp119
ssg34
(dp120
S'c4d6f5a4-2fd8-4924-8ae0-aaded51da423'
p121
g110
sS'ff31c900-97ca-4587-8769-eee9991357d7'
p122
(dp123
sS'5ba9d2d7-b512-42d8-a33d-18e082d56e5d'
p124
g104
sS'd3c47541-2039-49d0-8472-4c0c55b619b5'
p125
(dp126
sS'e5ef913c-e322-4e37-89e9-7e809abff2e7'
p127
g107
ssg38
(dp128
S'ac6ea2c8-cba8-4aac-829b-703f880a79c4'
p129
g126
sS'd8055e97-78db-408a-afd0-95b9e415ca98'
p130
g113
sS'9e53c6df-b341-4064-a40e-7f674bda1c48'
p131
(dp132
sS'71e7467b-f02c-42a3-876b-12a37cdcf386'
p133
(dp134
sS'9591d90f-fa88-4af3-8000-6ddda1df38bb'
p135
(dp136
sS'8b445b57-9fb4-4937-9d74-3eb02337b1a4'
p137
(dp138
sS'98284774-39a3-4ebe-93d2-96fc3bc4fd05'
p139
(dp140
sS'd539f89b-8086-4333-b4e5-69b4e1a91586'
p141
(dp142
ssg42
(dp143
S'9e53c6df-b341-4064-a40e-7f674bda1c48'
p144
(dp145
ssg46
(dp146
S'9591d90f-fa88-4af3-8000-6ddda1df38bb'
p147
(dp148
ssg50
(dp149
S'd3c47541-2039-49d0-8472-4c0c55b619b5'
p150
g134
ssg54
(dp151
S'9591d90f-fa88-4af3-8000-6ddda1df38bb'
p152
(dp153
sS'9e53c6df-b341-4064-a40e-7f674bda1c48'
p154
(dp155
ssg58
(dp156
S'd3c47541-2039-49d0-8472-4c0c55b619b5'
p157
g142
ssg62
(dp158
S'28d371a4-724f-461e-82d2-f1dce9a5e0dd'
p159
(dp160
ssg66
(dp161
S'28d371a4-724f-461e-82d2-f1dce9a5e0dd'
p162
(dp163
sS'2a0cfb21-2c7b-45a4-b8ce-0959b8ba7af2'
p164
g153
sS'21977f00-4e76-49cd-be30-c7d59a593122'
p165
g148
sS'd3c47541-2039-49d0-8472-4c0c55b619b5'
p166
g136
ssg70
(dp167
S'bc63d18c-7a19-498a-927e-c4805b875e96'
p168
(dp169
sS'd3c47541-2039-49d0-8472-4c0c55b619b5'
p170
g132
sS'35b5f7f1-5fc0-42bf-a702-29cfd8678c87'
p171
g145
sS'2a0cfb21-2c7b-45a4-b8ce-0959b8ba7af2'
p172
g155
sS'a5185c53-7c46-4df4-95f0-b56a0e767223'
p173
g116
sS'e6c80f54-a553-4a09-a2a2-be3089d67f81'
p174
(dp175
sS'fd01a700-6fa5-443a-9048-08d9f1af4c74'
p176
g119
ssg74
(dp177
S'ac6ea2c8-cba8-4aac-829b-703f880a79c4'
p178
g123
ssg78
(dp179
S'd3c47541-2039-49d0-8472-4c0c55b619b5'
p180
g140
ssg82
(dp181
S'd3c47541-2039-49d0-8472-4c0c55b619b5'
p182
g138
ssg86
(dp183
S'9591d90f-fa88-4af3-8000-6ddda1df38bb'
p184
g163
sS'9f00e26d-72a9-4c94-8b15-1d9e21d0af1f'
p185
g160
ssg90
(dp186
S'9e53c6df-b341-4064-a40e-7f674bda1c48'
p187
g169
ssg94
(dp188
S'9e53c6df-b341-4064-a40e-7f674bda1c48'
p189
g175
sssS'adj'
p190
g101
sb.