ccopy_reg
_reconstructor
p0
(cnetworkx.classes.graph
Graph
p1
c__builtin__
object
p2
Ntp3
Rp4
(dp5
S'node'
p6
(dp7
S'104d40b1-bfca-440e-a184-35e548e21935'
p8
(dp9
S'type'
p10
S'R'
p11
sS'label'
p12
S'CONFERENCE'
p13
ssS'5b897d8c-be12-45c5-b893-df30efb130ab'
p14
(dp15
g10
S'R'
p16
sg12
S'CLASSROOM'
p17
ssS'bc6ee0f9-7ca3-4a2f-b71a-7981ed5e5525'
p18
(dp19
g10
S'E'
p20
sg12
S'STAIRS'
p21
ssS'a07b13bf-81d6-42a2-bd19-6f046b24485b'
p22
(dp23
g10
S'C'
p24
sg12
S'WASHROOM'
p25
ssS'f24dd147-92e7-4e5a-bdc3-792421d81442'
p26
(dp27
g10
S'R'
p28
sg12
S'CLASSROOM'
p29
ssS'6636b45a-1997-4efd-968c-57c9581978cf'
p30
(dp31
g10
S'R'
p32
sg12
S'CLASSROOM'
p33
ssS'9decd2b5-4466-423e-83e4-718a79dd718a'
p34
(dp35
g10
S'R'
p36
sg12
S'CLASSROOM'
p37
ssS'3386f43d-35e1-4c0b-8bb5-6aeba3f50db1'
p38
(dp39
g10
S'R'
p40
sg12
S'CLASSROOM'
p41
ssS'5f25eea0-11cd-4e44-ac7e-bd899ce8b01c'
p42
(dp43
g10
S'C'
p44
sg12
S'WASHROOM'
p45
ssS'01d791dd-72d6-491d-bc94-d260dfcd85d8'
p46
(dp47
g10
S'R'
p48
sg12
S'LAB'
p49
ssS'72cd46c7-5ea7-4dc6-a8a4-0d6d50e0acec'
p50
(dp51
g10
S'R'
p52
sg12
S'CLASSROOM'
p53
ssS'ee4a0c0e-57fb-4760-b5ee-7be841a38d6e'
p54
(dp55
g10
S'C'
p56
sg12
S'CORRIDOR'
p57
ssS'71db1fc5-8fb3-472c-89ab-6c91ca18c05c'
p58
(dp59
g10
S'E'
p60
sg12
S'ELEVATOR'
p61
ssS'c2eddf15-d5d9-4218-a80f-73fa5e29d9ea'
p62
(dp63
g10
S'C'
p64
sg12
S'CORRIDOR'
p65
ssS'65127aaa-525f-40ec-855f-cd816c7dae9e'
p66
(dp67
g10
S'C'
p68
sg12
S'CORRIDOR'
p69
ssS'1961f359-2094-440b-84a4-cafbaced00f6'
p70
(dp71
g10
S'C'
p72
sg12
S'WASHROOM'
p73
ssS'47b23439-8958-4211-9e48-2366e1abcdb9'
p74
(dp75
g10
S'E'
p76
sg12
S'STAIRS'
p77
sssS'graph'
p78
(dp79
sS'edge'
p80
(dp81
g8
(dp82
S'c2eddf15-d5d9-4218-a80f-73fa5e29d9ea'
p83
(dp84
ssg14
(dp85
S'65127aaa-525f-40ec-855f-cd816c7dae9e'
p86
(dp87
ssg18
(dp88
S'65127aaa-525f-40ec-855f-cd816c7dae9e'
p89
(dp90
ssg22
(dp91
S'c2eddf15-d5d9-4218-a80f-73fa5e29d9ea'
p92
(dp93
ssg26
(dp94
S'c2eddf15-d5d9-4218-a80f-73fa5e29d9ea'
p95
(dp96
ssg30
(dp97
S'ee4a0c0e-57fb-4760-b5ee-7be841a38d6e'
p98
(dp99
ssg34
(dp100
S'c2eddf15-d5d9-4218-a80f-73fa5e29d9ea'
p101
(dp102
ssg38
(dp103
S'ee4a0c0e-57fb-4760-b5ee-7be841a38d6e'
p104
(dp105
ssg42
(dp106
S'c2eddf15-d5d9-4218-a80f-73fa5e29d9ea'
p107
(dp108
ssg46
(dp109
S'c2eddf15-d5d9-4218-a80f-73fa5e29d9ea'
p110
(dp111
ssg50
(dp112
S'65127aaa-525f-40ec-855f-cd816c7dae9e'
p113
(dp114
ssg54
(dp115
S'1961f359-2094-440b-84a4-cafbaced00f6'
p116
(dp117
sS'c2eddf15-d5d9-4218-a80f-73fa5e29d9ea'
p118
(dp119
sS'3386f43d-35e1-4c0b-8bb5-6aeba3f50db1'
p120
g105
sS'6636b45a-1997-4efd-968c-57c9581978cf'
p121
g99
ssg58
(dp122
S'65127aaa-525f-40ec-855f-cd816c7dae9e'
p123
(dp124
ssg62
(dp125
S'f24dd147-92e7-4e5a-bdc3-792421d81442'
p126
g96
sS'104d40b1-bfca-440e-a184-35e548e21935'
p127
g84
sS'9decd2b5-4466-423e-83e4-718a79dd718a'
p128
g102
sS'01d791dd-72d6-491d-bc94-d260dfcd85d8'
p129
g111
sS'ee4a0c0e-57fb-4760-b5ee-7be841a38d6e'
p130
g119
sS'65127aaa-525f-40ec-855f-cd816c7dae9e'
p131
(dp132
sS'5f25eea0-11cd-4e44-ac7e-bd899ce8b01c'
p133
g108
sS'47b23439-8958-4211-9e48-2366e1abcdb9'
p134
(dp135
sS'a07b13bf-81d6-42a2-bd19-6f046b24485b'
p136
g93
ssg66
(dp137
S'72cd46c7-5ea7-4dc6-a8a4-0d6d50e0acec'
p138
g114
sS'5b897d8c-be12-45c5-b893-df30efb130ab'
p139
g87
sS'71db1fc5-8fb3-472c-89ab-6c91ca18c05c'
p140
g124
sS'c2eddf15-d5d9-4218-a80f-73fa5e29d9ea'
p141
g132
sS'bc6ee0f9-7ca3-4a2f-b71a-7981ed5e5525'
p142
g90
ssg70
(dp143
S'ee4a0c0e-57fb-4760-b5ee-7be841a38d6e'
p144
g117
ssg74
(dp145
S'c2eddf15-d5d9-4218-a80f-73fa5e29d9ea'
p146
g135
sssS'adj'
p147
g81
sb.