ccopy_reg
_reconstructor
p0
(cnetworkx.classes.graph
Graph
p1
c__builtin__
object
p2
Ntp3
Rp4
(dp5
S'node'
p6
(dp7
S'd850896a-8e6a-4c6b-8758-3a1e07d70a7e'
p8
(dp9
S'type'
p10
S'E'
p11
sS'label'
p12
S'ELEVATOR'
p13
ssS'13afb062-a42a-4a3f-a576-ca4e64c0a9d9'
p14
(dp15
g10
S'R'
p16
sg12
S'CLASSROOM'
p17
ssS'c82cf0df-104d-492d-ad8b-c33a36099a64'
p18
(dp19
g10
S'R'
p20
sg12
S'MEDIUM'
p21
ssS'f32da0c0-a42e-400a-ab57-b4cfbc0135c3'
p22
(dp23
g10
S'R'
p24
sg12
S'CLASSROOM'
p25
ssS'0a8f3ef0-9fce-48f6-92b2-35d4b0649daa'
p26
(dp27
g10
S'R'
p28
sg12
S'MEDIUM'
p29
ssS'0687b1e5-7716-4946-a6d5-7ab1ffe65ec1'
p30
(dp31
g10
S'E'
p32
sg12
S'STAIRS'
p33
ssS'090ca7db-a7b4-49e5-8c96-4bb2aee718a5'
p34
(dp35
g10
S'R'
p36
sg12
S'CLASSROOM'
p37
ssS'037df02a-3ba9-447c-8ec4-d36675d378c2'
p38
(dp39
g10
S'C'
p40
sg12
S'CORRIDOR'
p41
ssS'33253e29-ede1-4b2a-a980-1d2c93312418'
p42
(dp43
g10
S'R'
p44
sg12
S'CLASSROOM'
p45
ssS'4c7f1c54-31d0-4f93-a787-ad3756b852a6'
p46
(dp47
g10
S'R'
p48
sg12
S'CLASSROOM'
p49
ssS'd65ba479-f92f-48aa-8108-3b15cefb25a6'
p50
(dp51
g10
S'C'
p52
sg12
S'LOBBY'
p53
ssS'2bdd9a34-1432-404a-8262-b57b2ed06931'
p54
(dp55
g10
S'E'
p56
sg12
S'STAIRS'
p57
ssS'03677c30-320b-43ef-b468-01bc3d3bedb6'
p58
(dp59
g10
S'R'
p60
sg12
S'CLASSROOM'
p61
ssS'4975bb6c-fefa-41a2-a19b-7d7a3590fa19'
p62
(dp63
g10
S'R'
p64
sg12
S'CLASSROOM'
p65
ssS'71f2d166-8442-4700-ac01-f97d5771dcf3'
p66
(dp67
g10
S'R'
p68
sg12
S'CLASSROOM'
p69
ssS'bfea0429-5729-4dd8-9f37-fd7462abd1f4'
p70
(dp71
g10
S'R'
p72
sg12
S'CLASSROOM'
p73
ssS'4bffbe3e-53ec-45df-8916-4cf8d9343a04'
p74
(dp75
g10
S'R'
p76
sg12
S'CLASSROOM'
p77
sssS'graph'
p78
(dp79
sS'edge'
p80
(dp81
g8
(dp82
S'd65ba479-f92f-48aa-8108-3b15cefb25a6'
p83
(dp84
ssg14
(dp85
S'037df02a-3ba9-447c-8ec4-d36675d378c2'
p86
(dp87
ssg18
(dp88
S'037df02a-3ba9-447c-8ec4-d36675d378c2'
p89
(dp90
ssg22
(dp91
S'037df02a-3ba9-447c-8ec4-d36675d378c2'
p92
(dp93
ssg26
(dp94
S'037df02a-3ba9-447c-8ec4-d36675d378c2'
p95
(dp96
ssg30
(dp97
S'037df02a-3ba9-447c-8ec4-d36675d378c2'
p98
(dp99
ssg34
(dp100
S'037df02a-3ba9-447c-8ec4-d36675d378c2'
p101
(dp102
ssg38
(dp103
S'13afb062-a42a-4a3f-a576-ca4e64c0a9d9'
p104
g87
sS'c82cf0df-104d-492d-ad8b-c33a36099a64'
p105
g90
sS'f32da0c0-a42e-400a-ab57-b4cfbc0135c3'
p106
g93
sS'0a8f3ef0-9fce-48f6-92b2-35d4b0649daa'
p107
g96
sS'0687b1e5-7716-4946-a6d5-7ab1ffe65ec1'
p108
g99
sS'090ca7db-a7b4-49e5-8c96-4bb2aee718a5'
p109
g102
sS'33253e29-ede1-4b2a-a980-1d2c93312418'
p110
(dp111
sS'4c7f1c54-31d0-4f93-a787-ad3756b852a6'
p112
(dp113
sS'd65ba479-f92f-48aa-8108-3b15cefb25a6'
p114
(dp115
sS'2bdd9a34-1432-404a-8262-b57b2ed06931'
p116
(dp117
sS'03677c30-320b-43ef-b468-01bc3d3bedb6'
p118
(dp119
sS'4975bb6c-fefa-41a2-a19b-7d7a3590fa19'
p120
(dp121
sS'71f2d166-8442-4700-ac01-f97d5771dcf3'
p122
(dp123
sS'bfea0429-5729-4dd8-9f37-fd7462abd1f4'
p124
(dp125
sS'4bffbe3e-53ec-45df-8916-4cf8d9343a04'
p126
(dp127
ssg42
(dp128
S'037df02a-3ba9-447c-8ec4-d36675d378c2'
p129
g111
ssg46
(dp130
S'037df02a-3ba9-447c-8ec4-d36675d378c2'
p131
g113
ssg50
(dp132
S'037df02a-3ba9-447c-8ec4-d36675d378c2'
p133
g115
sS'd850896a-8e6a-4c6b-8758-3a1e07d70a7e'
p134
g84
ssg54
(dp135
S'037df02a-3ba9-447c-8ec4-d36675d378c2'
p136
g117
ssg58
(dp137
S'037df02a-3ba9-447c-8ec4-d36675d378c2'
p138
g119
ssg62
(dp139
S'037df02a-3ba9-447c-8ec4-d36675d378c2'
p140
g121
ssg66
(dp141
S'037df02a-3ba9-447c-8ec4-d36675d378c2'
p142
g123
ssg70
(dp143
S'037df02a-3ba9-447c-8ec4-d36675d378c2'
p144
g125
ssg74
(dp145
S'037df02a-3ba9-447c-8ec4-d36675d378c2'
p146
g127
sssS'adj'
p147
g81
sb.