ccopy_reg
_reconstructor
p0
(cnetworkx.classes.graph
Graph
p1
c__builtin__
object
p2
Ntp3
Rp4
(dp5
S'node'
p6
(dp7
S'a40f3cc3-7ef4-4feb-b11c-f8e007869891'
p8
(dp9
S'type'
p10
S'C'
p11
sS'label'
p12
S'LOBBY'
p13
ssS'12248b2b-006d-4533-93e8-9c3347b136f7'
p14
(dp15
g10
S'R'
p16
sg12
S'LAB'
p17
ssS'072fad70-f447-4adb-9129-b987d89be84f'
p18
(dp19
g10
S'E'
p20
sg12
S'ELEVATOR'
p21
ssS'f01fe860-b023-41bd-8bcf-962dca788f80'
p22
(dp23
g10
S'E'
p24
sg12
S'STAIRS'
p25
ssS'7f4877f6-d642-4da3-9cff-c5225627fa08'
p26
(dp27
g10
S'C'
p28
sg12
S'CORRIDOR'
p29
ssS'c89f3b5e-511e-4787-a0cb-56c4835044a1'
p30
(dp31
g10
S'R'
p32
sg12
S'MEDIUM ADMINISTRATIVE'
p33
ssS'37da4995-3dbd-4783-bdc2-3b2ad362a611'
p34
(dp35
g10
S'R'
p36
sg12
S'MEDIUM ADMINISTRATIVE'
p37
ssS'b7b8d0fa-5299-42f1-a1ec-3e22af31d20f'
p38
(dp39
g10
S'R'
p40
sg12
S'LAB'
p41
ssS'9730fc16-142e-4702-9b23-dc4840e30f47'
p42
(dp43
g10
S'C'
p44
sg12
S'WASHROOM'
p45
ssS'72c5e246-6a9f-4ab9-971c-b2396bd06c05'
p46
(dp47
g10
S'C'
p48
sg12
S'CORRIDOR'
p49
ssS'8bcae262-e95c-4d5c-bdfd-11a8d1078adf'
p50
(dp51
g10
S'C'
p52
sg12
S'WASHROOM'
p53
ssS'a8ec637d-5f51-4753-8727-0e32b876b399'
p54
(dp55
g10
S'E'
p56
sg12
S'STAIRS'
p57
ssS'e922cb83-686d-4637-bbb7-01f7178cc6e7'
p58
(dp59
g10
S'R'
p60
sg12
S'MEDIUM'
p61
ssS'8fc732dc-fe4c-4f22-9613-51029dbbfd1a'
p62
(dp63
g10
S'R'
p64
sg12
S'MEDIUM SERVICE'
p65
sssS'graph'
p66
(dp67
sS'edge'
p68
(dp69
g8
(dp70
S'072fad70-f447-4adb-9129-b987d89be84f'
p71
(dp72
sS'7f4877f6-d642-4da3-9cff-c5225627fa08'
p73
(dp74
ssg14
(dp75
S'7f4877f6-d642-4da3-9cff-c5225627fa08'
p76
(dp77
ssg18
(dp78
S'a40f3cc3-7ef4-4feb-b11c-f8e007869891'
p79
g72
ssg22
(dp80
S'7f4877f6-d642-4da3-9cff-c5225627fa08'
p81
(dp82
ssg26
(dp83
S'a40f3cc3-7ef4-4feb-b11c-f8e007869891'
p84
g74
sS'12248b2b-006d-4533-93e8-9c3347b136f7'
p85
g77
sS'f01fe860-b023-41bd-8bcf-962dca788f80'
p86
g82
sS'b7b8d0fa-5299-42f1-a1ec-3e22af31d20f'
p87
(dp88
sS'72c5e246-6a9f-4ab9-971c-b2396bd06c05'
p89
(dp90
sS'a8ec637d-5f51-4753-8727-0e32b876b399'
p91
(dp92
sS'e922cb83-686d-4637-bbb7-01f7178cc6e7'
p93
(dp94
sS'8fc732dc-fe4c-4f22-9613-51029dbbfd1a'
p95
(dp96
ssg30
(dp97
S'72c5e246-6a9f-4ab9-971c-b2396bd06c05'
p98
(dp99
ssg34
(dp100
S'72c5e246-6a9f-4ab9-971c-b2396bd06c05'
p101
(dp102
ssg38
(dp103
S'7f4877f6-d642-4da3-9cff-c5225627fa08'
p104
g88
ssg42
(dp105
S'72c5e246-6a9f-4ab9-971c-b2396bd06c05'
p106
(dp107
ssg46
(dp108
S'8bcae262-e95c-4d5c-bdfd-11a8d1078adf'
p109
(dp110
sS'37da4995-3dbd-4783-bdc2-3b2ad362a611'
p111
g102
sS'c89f3b5e-511e-4787-a0cb-56c4835044a1'
p112
g99
sS'7f4877f6-d642-4da3-9cff-c5225627fa08'
p113
g90
sS'9730fc16-142e-4702-9b23-dc4840e30f47'
p114
g107
ssg50
(dp115
S'72c5e246-6a9f-4ab9-971c-b2396bd06c05'
p116
g110
ssg54
(dp117
S'7f4877f6-d642-4da3-9cff-c5225627fa08'
p118
g92
ssg58
(dp119
S'7f4877f6-d642-4da3-9cff-c5225627fa08'
p120
g94
ssg62
(dp121
S'7f4877f6-d642-4da3-9cff-c5225627fa08'
p122
g96
sssS'adj'
p123
g69
sb.