ccopy_reg
_reconstructor
p0
(cnetworkx.classes.graph
Graph
p1
c__builtin__
object
p2
Ntp3
Rp4
(dp5
S'node'
p6
(dp7
S'bb120d3a-249d-4028-ab8e-50ca4680207b'
p8
(dp9
S'type'
p10
S'R'
p11
sS'label'
p12
S'CLOSET'
p13
ssS'7e6fe8a4-7b77-47d2-9990-53a300ae4507'
p14
(dp15
g10
S'R'
p16
sg12
S'CLOSET'
p17
ssS'2e762b7f-a32f-4761-989c-3bf8e015defb'
p18
(dp19
g10
S'C'
p20
sg12
S'WASHROOM'
p21
ssS'19f484f3-2d64-4fa6-8b34-dbd08b6d5436'
p22
(dp23
g10
S'C'
p24
sg12
S'CORRIDOR'
p25
ssS'bb2f55ac-9906-4fbf-8d99-9478c6ea98c1'
p26
(dp27
g10
S'C'
p28
sg12
S'WASHROOM'
p29
ssS'a356506f-6c62-421c-9b68-37692015450c'
p30
(dp31
g10
S'C'
p32
sg12
S'CORRIDOR'
p33
ssS'863a535f-cf13-4c24-8d33-4aea7d5bf010'
p34
(dp35
g10
S'R'
p36
sg12
S'CLOSET'
p37
ssS'd4025b4c-2183-40a1-aeb6-54acb4d21162'
p38
(dp39
g10
S'R'
p40
sg12
S'CANTEEN'
p41
ssS'd382102d-e699-49a9-a0b6-5e54426fef02'
p42
(dp43
g10
S'C'
p44
sg12
S'CORRIDOR'
p45
ssS'f9225af5-333b-4c5c-ba51-2a79e31461b2'
p46
(dp47
g10
S'C'
p48
sg12
S'HALL'
p49
ssS'64a04425-244f-4d30-aaba-48a38d3c03af'
p50
(dp51
g10
S'R'
p52
sg12
S'BATHROOM'
p53
ssS'f5a41f07-4bfb-4fa2-b49b-18b143a494d5'
p54
(dp55
g10
S'R'
p56
sg12
S'MEDIUM SERVICE'
p57
ssS'037ba8cf-dcd8-4b1f-b711-fae4467f9ab1'
p58
(dp59
g10
S'R'
p60
sg12
S'CLASSROOM'
p61
ssS'f25a742b-43f9-4059-8d72-afff39be76e7'
p62
(dp63
g10
S'R'
p64
sg12
S'MEDIUM SERVICE'
p65
ssS'3e589bba-9e3e-4b49-b0ac-c5a69c1a5039'
p66
(dp67
g10
S'E'
p68
sg12
S'ENTRANCE'
p69
ssS'eb2d746a-6a1e-44c1-ab89-694a7deb8940'
p70
(dp71
g10
S'R'
p72
sg12
S'CLOSET'
p73
ssS'18d070f7-4019-46e2-bc8d-58b2924356e7'
p74
(dp75
g10
S'R'
p76
sg12
S'CLOSET'
p77
ssS'989f1465-ab01-4d0f-af9c-483ba2113e2c'
p78
(dp79
g10
S'R'
p80
sg12
S'KITCHEN'
p81
ssS'8b47e6b1-855f-4caf-bb4b-a0976dcfc343'
p82
(dp83
g10
S'R'
p84
sg12
S'MEDIUM ADMINISTRATIVE'
p85
ssS'fc912954-7912-43f0-a767-5d9893ec0754'
p86
(dp87
g10
S'R'
p88
sg12
S'MEDIUM SERVICE'
p89
ssS'458aa5d7-fd8a-4a4e-a439-11505750493c'
p90
(dp91
g10
S'R'
p92
sg12
S'LAB'
p93
ssS'332a8fb2-b5f1-49f5-b408-3997ff822e3e'
p94
(dp95
g10
S'E'
p96
sg12
S'ENTRANCE'
p97
ssS'4f3de979-ff46-4820-9ef1-ace022bc2eb3'
p98
(dp99
g10
S'R'
p100
sg12
S'CLASSROOM'
p101
ssS'990f40d8-5692-4bf7-bb3a-9a89bfdbbffe'
p102
(dp103
g10
S'R'
p104
sg12
S'BATHROOM'
p105
ssS'29f8f1be-d7af-4412-983f-6eec99ed7ccf'
p106
(dp107
g10
S'C'
p108
sg12
S'WASHROOM'
p109
ssS'245b27e7-27ce-4ff5-95fb-c7c5a7778ab4'
p110
(dp111
g10
S'C'
p112
sg12
S'WASHROOM'
p113
ssS'342e600c-9ab9-47c4-9686-a2f36a14adb5'
p114
(dp115
g10
S'R'
p116
sg12
S'BATHROOM'
p117
ssS'c80c59c4-cf06-4a3e-b38c-764498a40476'
p118
(dp119
g10
S'R'
p120
sg12
S'BATHROOM'
p121
ssS'7e54acf3-f536-4565-9684-b511848513da'
p122
(dp123
g10
S'R'
p124
sg12
S'MEDIUM SERVICE'
p125
ssS'7d0a696a-f71f-488a-a2b4-86dec12dbc32'
p126
(dp127
g10
S'R'
p128
sg12
S'MEDIUM ADMINISTRATIVE'
p129
ssS'47b6d4e6-42a3-4536-8c0f-6127ec475f91'
p130
(dp131
g10
S'C'
p132
sg12
S'CORRIDOR'
p133
ssS'f1885810-d0cd-4353-b746-cd52c868e3f6'
p134
(dp135
g10
S'E'
p136
sg12
S'ENTRANCE'
p137
ssS'87eb6521-25d2-40dd-b40d-9f768140913c'
p138
(dp139
g10
S'R'
p140
sg12
S'CLASSROOM'
p141
ssS'9309dd63-f5f3-4ed7-841d-38900a2fb3ed'
p142
(dp143
g10
S'C'
p144
sg12
S'CORRIDOR'
p145
ssS'7d511eb9-cacf-4956-9525-6bd31b53e445'
p146
(dp147
g10
S'C'
p148
sg12
S'CORRIDOR'
p149
ssS'8776274d-e83c-4408-9591-fc429cb0512a'
p150
(dp151
g10
S'R'
p152
sg12
S'BATHROOM'
p153
ssS'7fdd1258-065c-4814-81e6-93c1610c351f'
p154
(dp155
g10
S'R'
p156
sg12
S'CANTEEN'
p157
sssS'graph'
p158
(dp159
sS'edge'
p160
(dp161
g8
(dp162
S'8b47e6b1-855f-4caf-bb4b-a0976dcfc343'
p163
(dp164
ssg14
(dp165
S'd382102d-e699-49a9-a0b6-5e54426fef02'
p166
(dp167
ssg18
(dp168
S'47b6d4e6-42a3-4536-8c0f-6127ec475f91'
p169
(dp170
ssg22
(dp171
S'9309dd63-f5f3-4ed7-841d-38900a2fb3ed'
p172
(dp173
sS'7fdd1258-065c-4814-81e6-93c1610c351f'
p174
(dp175
sS'fc912954-7912-43f0-a767-5d9893ec0754'
p176
(dp177
sS'f9225af5-333b-4c5c-ba51-2a79e31461b2'
p178
(dp179
ssg26
(dp180
S'd382102d-e699-49a9-a0b6-5e54426fef02'
p181
(dp182
ssg30
(dp183
S'8b47e6b1-855f-4caf-bb4b-a0976dcfc343'
p184
(dp185
sS'64a04425-244f-4d30-aaba-48a38d3c03af'
p186
(dp187
sS'458aa5d7-fd8a-4a4e-a439-11505750493c'
p188
(dp189
sS'c80c59c4-cf06-4a3e-b38c-764498a40476'
p190
(dp191
ssg34
(dp192
S'990f40d8-5692-4bf7-bb3a-9a89bfdbbffe'
p193
(dp194
sS'7d511eb9-cacf-4956-9525-6bd31b53e445'
p195
(dp196
ssg38
(dp197
sg42
(dp198
S'7e6fe8a4-7b77-47d2-9990-53a300ae4507'
p199
g167
sS'332a8fb2-b5f1-49f5-b408-3997ff822e3e'
p200
(dp201
sS'7d0a696a-f71f-488a-a2b4-86dec12dbc32'
p202
(dp203
sS'bb2f55ac-9906-4fbf-8d99-9478c6ea98c1'
p204
g182
sS'037ba8cf-dcd8-4b1f-b711-fae4467f9ab1'
p205
(dp206
sS'87eb6521-25d2-40dd-b40d-9f768140913c'
p207
(dp208
sS'4f3de979-ff46-4820-9ef1-ace022bc2eb3'
p209
(dp210
sS'9309dd63-f5f3-4ed7-841d-38900a2fb3ed'
p211
(dp212
sS'f25a742b-43f9-4059-8d72-afff39be76e7'
p213
(dp214
sS'29f8f1be-d7af-4412-983f-6eec99ed7ccf'
p215
(dp216
sS'8776274d-e83c-4408-9591-fc429cb0512a'
p217
(dp218
sS'eb2d746a-6a1e-44c1-ab89-694a7deb8940'
p219
(dp220
ssg46
(dp221
S'f5a41f07-4bfb-4fa2-b49b-18b143a494d5'
p222
(dp223
sS'7fdd1258-065c-4814-81e6-93c1610c351f'
p224
(dp225
sS'19f484f3-2d64-4fa6-8b34-dbd08b6d5436'
p226
g179
sS'f1885810-d0cd-4353-b746-cd52c868e3f6'
p227
(dp228
ssg50
(dp229
S'a356506f-6c62-421c-9b68-37692015450c'
p230
g187
ssg54
(dp231
S'f9225af5-333b-4c5c-ba51-2a79e31461b2'
p232
g223
ssg58
(dp233
S'd382102d-e699-49a9-a0b6-5e54426fef02'
p234
g206
sS'87eb6521-25d2-40dd-b40d-9f768140913c'
p235
(dp236
ssg62
(dp237
S'd382102d-e699-49a9-a0b6-5e54426fef02'
p238
g214
ssg66
(dp239
S'458aa5d7-fd8a-4a4e-a439-11505750493c'
p240
(dp241
ssg70
(dp242
S'd382102d-e699-49a9-a0b6-5e54426fef02'
p243
g220
ssg74
(dp244
sg78
(dp245
S'7fdd1258-065c-4814-81e6-93c1610c351f'
p246
(dp247
sS'7d511eb9-cacf-4956-9525-6bd31b53e445'
p248
(dp249
ssg82
(dp250
S'bb120d3a-249d-4028-ab8e-50ca4680207b'
p251
g164
sS'a356506f-6c62-421c-9b68-37692015450c'
p252
g185
ssg86
(dp253
S'19f484f3-2d64-4fa6-8b34-dbd08b6d5436'
p254
g177
ssg90
(dp255
S'9309dd63-f5f3-4ed7-841d-38900a2fb3ed'
p256
(dp257
sS'3e589bba-9e3e-4b49-b0ac-c5a69c1a5039'
p258
g241
sS'a356506f-6c62-421c-9b68-37692015450c'
p259
g189
ssg94
(dp260
S'd382102d-e699-49a9-a0b6-5e54426fef02'
p261
g201
ssg98
(dp262
S'd382102d-e699-49a9-a0b6-5e54426fef02'
p263
g210
sS'87eb6521-25d2-40dd-b40d-9f768140913c'
p264
(dp265
ssg102
(dp266
S'863a535f-cf13-4c24-8d33-4aea7d5bf010'
p267
g194
ssg106
(dp268
S'd382102d-e699-49a9-a0b6-5e54426fef02'
p269
g216
ssg110
(dp270
S'47b6d4e6-42a3-4536-8c0f-6127ec475f91'
p271
(dp272
ssg114
(dp273
S'47b6d4e6-42a3-4536-8c0f-6127ec475f91'
p274
(dp275
ssg118
(dp276
S'a356506f-6c62-421c-9b68-37692015450c'
p277
g191
ssg122
(dp278
S'7d511eb9-cacf-4956-9525-6bd31b53e445'
p279
(dp280
ssg126
(dp281
S'9309dd63-f5f3-4ed7-841d-38900a2fb3ed'
p282
(dp283
sS'd382102d-e699-49a9-a0b6-5e54426fef02'
p284
g203
ssg130
(dp285
S'7fdd1258-065c-4814-81e6-93c1610c351f'
p286
(dp287
sS'342e600c-9ab9-47c4-9686-a2f36a14adb5'
p288
g275
sS'2e762b7f-a32f-4761-989c-3bf8e015defb'
p289
g170
sS'245b27e7-27ce-4ff5-95fb-c7c5a7778ab4'
p290
g272
ssg134
(dp291
S'f9225af5-333b-4c5c-ba51-2a79e31461b2'
p292
g228
ssg138
(dp293
S'037ba8cf-dcd8-4b1f-b711-fae4467f9ab1'
p294
g236
sS'd382102d-e699-49a9-a0b6-5e54426fef02'
p295
g208
sS'4f3de979-ff46-4820-9ef1-ace022bc2eb3'
p296
g265
ssg142
(dp297
S'd382102d-e699-49a9-a0b6-5e54426fef02'
p298
g212
sS'7d0a696a-f71f-488a-a2b4-86dec12dbc32'
p299
g283
sS'458aa5d7-fd8a-4a4e-a439-11505750493c'
p300
g257
sS'19f484f3-2d64-4fa6-8b34-dbd08b6d5436'
p301
g173
ssg146
(dp302
S'7e54acf3-f536-4565-9684-b511848513da'
p303
g280
sS'989f1465-ab01-4d0f-af9c-483ba2113e2c'
p304
g249
sS'863a535f-cf13-4c24-8d33-4aea7d5bf010'
p305
g196
ssg150
(dp306
S'd382102d-e699-49a9-a0b6-5e54426fef02'
p307
g218
ssg154
(dp308
S'f9225af5-333b-4c5c-ba51-2a79e31461b2'
p309
g225
sS'19f484f3-2d64-4fa6-8b34-dbd08b6d5436'
p310
g175
sS'989f1465-ab01-4d0f-af9c-483ba2113e2c'
p311
g247
sS'47b6d4e6-42a3-4536-8c0f-6127ec475f91'
p312
g287
sssS'adj'
p313
g161
sb.