ccopy_reg
_reconstructor
p0
(cnetworkx.classes.graph
Graph
p1
c__builtin__
object
p2
Ntp3
Rp4
(dp5
S'node'
p6
(dp7
S'90e6b20e-844d-4502-b484-7913e834cbc3'
p8
(dp9
S'type'
p10
S'R'
p11
sS'label'
p12
S'CLOSET'
p13
ssS'6b1a1e75-63c1-4879-8cb8-775513ce723a'
p14
(dp15
g10
S'R'
p16
sg12
S'CLASSROOM'
p17
ssS'5379c0bf-33ea-4fb5-8a72-504bd54e34f7'
p18
(dp19
g10
S'R'
p20
sg12
S'CLASSROOM'
p21
ssS'745d8998-1e0f-4265-9d89-d07b1c70e994'
p22
(dp23
g10
S'R'
p24
sg12
S'CLASSROOM'
p25
ssS'ea4185a7-6906-4650-be7a-dad4d5a21c75'
p26
(dp27
g10
S'R'
p28
sg12
S'CLASSROOM'
p29
ssS'b4347faf-8388-41c8-94ad-66906ecf3766'
p30
(dp31
g10
S'R'
p32
sg12
S'CLASSROOM'
p33
ssS'3bccc66e-59b1-4b0f-8e3b-4557078263c1'
p34
(dp35
g10
S'R'
p36
sg12
S'MEDIUM SERVICE'
p37
ssS'200f2a5a-185d-42db-a3ba-1939aa9f6cdc'
p38
(dp39
g10
S'R'
p40
sg12
S'CLASSROOM'
p41
ssS'f1fe8020-137b-4ddc-a655-2b5e6fe4ccc0'
p42
(dp43
g10
S'R'
p44
sg12
S'CLASSROOM'
p45
ssS'd0d8842e-269e-4b93-9daf-6231c322599d'
p46
(dp47
g10
S'E'
p48
sg12
S'STAIRS'
p49
ssS'991129b0-186c-473b-968b-f95ce802ab64'
p50
(dp51
g10
S'C'
p52
sg12
S'LOBBY'
p53
ssS'e880622b-602c-4030-8168-62b0e06fcac7'
p54
(dp55
g10
S'C'
p56
sg12
S'CORRIDOR'
p57
ssS'4468698b-8752-4c73-9de0-f643e2cbea8d'
p58
(dp59
g10
S'E'
p60
sg12
S'ENTRANCE'
p61
ssS'b06f1040-d2f7-466f-bc6f-f0ee961d18e6'
p62
(dp63
g10
S'R'
p64
sg12
S'BATHROOM'
p65
ssS'8f0db55b-5e06-4666-a5a3-10df2d42b243'
p66
(dp67
g10
S'R'
p68
sg12
S'CLASSROOM'
p69
ssS'44061a05-1a54-4ffc-94ef-52bb7a99fc70'
p70
(dp71
g10
S'R'
p72
sg12
S'CANTEEN'
p73
ssS'0a8e3093-c31a-4683-b81f-79661caf65d4'
p74
(dp75
g10
S'R'
p76
sg12
S'MEDIUM SERVICE'
p77
ssS'236660d7-0968-4e73-ba98-249310ff067f'
p78
(dp79
g10
S'R'
p80
sg12
S'LAB'
p81
ssS'9ceb2ae4-1131-4542-b668-f246c85ae188'
p82
(dp83
g10
S'C'
p84
sg12
S'WASHROOM'
p85
ssS'bc79a850-3c99-411c-ab3f-3f961444423f'
p86
(dp87
g10
S'R'
p88
sg12
S'CLASSROOM'
p89
ssS'caaa0448-7f7d-4ea0-a121-547f5cc96393'
p90
(dp91
g10
S'R'
p92
sg12
S'BATHROOM'
p93
ssS'3ec7cf9b-5ef9-4011-83ac-b19cfdbb16e6'
p94
(dp95
g10
S'R'
p96
sg12
S'CLASSROOM'
p97
ssS'6ee3b77f-3428-4905-a154-3dd3d2a06a19'
p98
(dp99
g10
S'C'
p100
sg12
S'HALL'
p101
ssS'546c2e26-889f-4f8d-abd0-921e90c85bbc'
p102
(dp103
g10
S'C'
p104
sg12
S'CORRIDOR'
p105
ssS'fa7bc1c8-fba5-4a0f-89da-80af777eedb9'
p106
(dp107
g10
S'R'
p108
sg12
S'CLASSROOM'
p109
ssS'01a9fb5a-4304-49c7-9fac-634375119eb9'
p110
(dp111
g10
S'R'
p112
sg12
S'CLOSET'
p113
ssS'56e2ff07-7bbe-4e4e-b625-130cf2962c74'
p114
(dp115
g10
S'C'
p116
sg12
S'CORRIDOR'
p117
ssS'ac3318e1-9d22-4867-92e6-e67e85d69076'
p118
(dp119
g10
S'R'
p120
sg12
S'MEDIUM SERVICE'
p121
ssS'5a35677d-2e10-4809-aabf-6e222e49d8ae'
p122
(dp123
g10
S'C'
p124
sg12
S'HALL'
p125
ssS'6d78dba8-20d7-41f9-a07b-47285454cbc3'
p126
(dp127
g10
S'R'
p128
sg12
S'KITCHEN'
p129
sssS'graph'
p130
(dp131
sS'edge'
p132
(dp133
g8
(dp134
S'e880622b-602c-4030-8168-62b0e06fcac7'
p135
(dp136
ssg14
(dp137
S'546c2e26-889f-4f8d-abd0-921e90c85bbc'
p138
(dp139
ssg18
(dp140
S'546c2e26-889f-4f8d-abd0-921e90c85bbc'
p141
(dp142
ssg22
(dp143
S'546c2e26-889f-4f8d-abd0-921e90c85bbc'
p144
(dp145
ssg26
(dp146
S'56e2ff07-7bbe-4e4e-b625-130cf2962c74'
p147
(dp148
ssg30
(dp149
S'546c2e26-889f-4f8d-abd0-921e90c85bbc'
p150
(dp151
ssg34
(dp152
S'546c2e26-889f-4f8d-abd0-921e90c85bbc'
p153
(dp154
ssg38
(dp155
S'56e2ff07-7bbe-4e4e-b625-130cf2962c74'
p156
(dp157
ssg42
(dp158
S'e880622b-602c-4030-8168-62b0e06fcac7'
p159
(dp160
ssg46
(dp161
S'991129b0-186c-473b-968b-f95ce802ab64'
p162
(dp163
ssg50
(dp164
S'6ee3b77f-3428-4905-a154-3dd3d2a06a19'
p165
(dp166
sS'd0d8842e-269e-4b93-9daf-6231c322599d'
p167
g163
sS'0a8e3093-c31a-4683-b81f-79661caf65d4'
p168
(dp169
ssg54
(dp170
S'90e6b20e-844d-4502-b484-7913e834cbc3'
p171
g136
sS'6ee3b77f-3428-4905-a154-3dd3d2a06a19'
p172
(dp173
sS'44061a05-1a54-4ffc-94ef-52bb7a99fc70'
p174
(dp175
sS'236660d7-0968-4e73-ba98-249310ff067f'
p176
(dp177
sS'ac3318e1-9d22-4867-92e6-e67e85d69076'
p178
(dp179
sS'6d78dba8-20d7-41f9-a07b-47285454cbc3'
p180
(dp181
sS'f1fe8020-137b-4ddc-a655-2b5e6fe4ccc0'
p182
g160
ssg58
(dp183
S'6ee3b77f-3428-4905-a154-3dd3d2a06a19'
p184
(dp185
ssg62
(dp186
S'546c2e26-889f-4f8d-abd0-921e90c85bbc'
p187
(dp188
ssg66
(dp189
S'546c2e26-889f-4f8d-abd0-921e90c85bbc'
p190
(dp191
ssg70
(dp192
S'6ee3b77f-3428-4905-a154-3dd3d2a06a19'
p193
(dp194
sS'e880622b-602c-4030-8168-62b0e06fcac7'
p195
g175
ssg74
(dp196
S'991129b0-186c-473b-968b-f95ce802ab64'
p197
g169
ssg78
(dp198
S'e880622b-602c-4030-8168-62b0e06fcac7'
p199
g177
ssg82
(dp200
S'546c2e26-889f-4f8d-abd0-921e90c85bbc'
p201
(dp202
ssg86
(dp203
S'546c2e26-889f-4f8d-abd0-921e90c85bbc'
p204
(dp205
ssg90
(dp206
S'546c2e26-889f-4f8d-abd0-921e90c85bbc'
p207
(dp208
ssg94
(dp209
S'6ee3b77f-3428-4905-a154-3dd3d2a06a19'
p210
(dp211
ssg98
(dp212
S'546c2e26-889f-4f8d-abd0-921e90c85bbc'
p213
(dp214
sS'4468698b-8752-4c73-9de0-f643e2cbea8d'
p215
g185
sS'01a9fb5a-4304-49c7-9fac-634375119eb9'
p216
(dp217
sS'991129b0-186c-473b-968b-f95ce802ab64'
p218
g166
sS'44061a05-1a54-4ffc-94ef-52bb7a99fc70'
p219
g194
sS'e880622b-602c-4030-8168-62b0e06fcac7'
p220
g173
sS'56e2ff07-7bbe-4e4e-b625-130cf2962c74'
p221
(dp222
sS'5a35677d-2e10-4809-aabf-6e222e49d8ae'
p223
(dp224
sS'3ec7cf9b-5ef9-4011-83ac-b19cfdbb16e6'
p225
g211
ssg102
(dp226
S'6ee3b77f-3428-4905-a154-3dd3d2a06a19'
p227
g214
sS'8f0db55b-5e06-4666-a5a3-10df2d42b243'
p228
g191
sS'5379c0bf-33ea-4fb5-8a72-504bd54e34f7'
p229
g142
sS'745d8998-1e0f-4265-9d89-d07b1c70e994'
p230
g145
sS'6b1a1e75-63c1-4879-8cb8-775513ce723a'
p231
g139
sS'b4347faf-8388-41c8-94ad-66906ecf3766'
p232
g151
sS'9ceb2ae4-1131-4542-b668-f246c85ae188'
p233
g202
sS'3bccc66e-59b1-4b0f-8e3b-4557078263c1'
p234
g154
sS'bc79a850-3c99-411c-ab3f-3f961444423f'
p235
g205
sS'fa7bc1c8-fba5-4a0f-89da-80af777eedb9'
p236
(dp237
sS'caaa0448-7f7d-4ea0-a121-547f5cc96393'
p238
g208
sS'b06f1040-d2f7-466f-bc6f-f0ee961d18e6'
p239
g188
ssg106
(dp240
S'546c2e26-889f-4f8d-abd0-921e90c85bbc'
p241
g237
ssg110
(dp242
S'6ee3b77f-3428-4905-a154-3dd3d2a06a19'
p243
g217
ssg114
(dp244
S'6ee3b77f-3428-4905-a154-3dd3d2a06a19'
p245
g222
sS'200f2a5a-185d-42db-a3ba-1939aa9f6cdc'
p246
g157
sS'ea4185a7-6906-4650-be7a-dad4d5a21c75'
p247
g148
ssg118
(dp248
S'6d78dba8-20d7-41f9-a07b-47285454cbc3'
p249
(dp250
sS'e880622b-602c-4030-8168-62b0e06fcac7'
p251
g179
ssg122
(dp252
S'6ee3b77f-3428-4905-a154-3dd3d2a06a19'
p253
g224
ssg126
(dp254
S'ac3318e1-9d22-4867-92e6-e67e85d69076'
p255
g250
sS'e880622b-602c-4030-8168-62b0e06fcac7'
p256
g181
sssS'adj'
p257
g133
sb.