ccopy_reg
_reconstructor
p0
(cnetworkx.classes.graph
Graph
p1
c__builtin__
object
p2
Ntp3
Rp4
(dp5
S'node'
p6
(dp7
S'27009b7d-c4bd-4085-b6d2-39f6aa144fab'
p8
(dp9
S'type'
p10
S'R'
p11
sS'label'
p12
S'LIBRARY'
p13
ssS'73e8f218-c690-41ae-8d08-d1755855eea8'
p14
(dp15
g10
S'C'
p16
sg12
S'CORRIDOR'
p17
ssS'af2124c3-7e90-4285-892d-3c6c371e20a1'
p18
(dp19
g10
S'R'
p20
sg12
S'CLASSROOM'
p21
ssS'7a360900-f3fe-4d08-8ebf-47e1b99de249'
p22
(dp23
g10
S'R'
p24
sg12
S'CLOSET'
p25
ssS'a5b8e5ea-29e8-4a17-b915-9fb67cb30dd5'
p26
(dp27
g10
S'R'
p28
sg12
S'CLASSROOM'
p29
ssS'fb388dc4-878b-42b0-ac6f-99e6798181de'
p30
(dp31
g10
S'R'
p32
sg12
S'BATHROOM'
p33
ssS'd549c7a2-edab-4bd2-a90f-6be7b640a904'
p34
(dp35
g10
S'R'
p36
sg12
S'CONFERENCE'
p37
ssS'495b42e6-d6dc-4a61-bc90-339573d3243a'
p38
(dp39
g10
S'C'
p40
sg12
S'CORRIDOR'
p41
ssS'aeb109c7-f8a9-4c09-b371-0d58fba2e242'
p42
(dp43
g10
S'R'
p44
sg12
S'CLASSROOM'
p45
ssS'65c2f378-1901-42b5-bc92-5720507cf046'
p46
(dp47
g10
S'R'
p48
sg12
S'MEDIUM ADMINISTRATIVE'
p49
ssS'fdc1a408-144f-4625-88c2-10c41cc7c6b7'
p50
(dp51
g10
S'R'
p52
sg12
S'MEDIUM SERVICE'
p53
ssS'ee747e78-e801-43b1-9e9c-369e5bcb6426'
p54
(dp55
g10
S'R'
p56
sg12
S'CLOSET'
p57
ssS'57e06532-9606-4c88-bc6a-490b3e8c51b3'
p58
(dp59
g10
S'R'
p60
sg12
S'CLOSET'
p61
ssS'b18f7339-dfe7-4557-805a-481823a19410'
p62
(dp63
g10
S'R'
p64
sg12
S'MEDIUM SERVICE'
p65
ssS'1d387838-64ca-4cd3-999c-dba4116d205f'
p66
(dp67
g10
S'E'
p68
sg12
S'ENTRANCE'
p69
ssS'b009b88b-5b71-46e3-8950-f93c965d559c'
p70
(dp71
g10
S'E'
p72
sg12
S'STAIRS'
p73
ssS'f3b9af61-e913-4788-9d25-530d9e179e8f'
p74
(dp75
g10
S'R'
p76
sg12
S'MEDIUM SERVICE'
p77
ssS'9bd2c778-5525-42d7-a853-ca6e2fc87b3d'
p78
(dp79
g10
S'R'
p80
sg12
S'MEDIUM SERVICE'
p81
ssS'd388738c-b9e7-487f-88f2-6ba00c4e16cf'
p82
(dp83
g10
S'C'
p84
sg12
S'CORRIDOR'
p85
ssS'7577ef60-b97c-44c6-9151-868b6b36a052'
p86
(dp87
g10
S'R'
p88
sg12
S'CLASSROOM'
p89
ssS'916d2ff7-861f-46cf-bfd3-2c0acebbe341'
p90
(dp91
g10
S'R'
p92
sg12
S'MEDIUM SERVICE'
p93
ssS'0091fef9-9aae-4bd9-b0c1-cd980aeca4d5'
p94
(dp95
g10
S'C'
p96
sg12
S'WASHROOM'
p97
ssS'3c468cfe-51cd-4395-8039-9723af18587f'
p98
(dp99
g10
S'R'
p100
sg12
S'LAB'
p101
ssS'e227aff0-a4af-416a-a20d-d7bba4324d96'
p102
(dp103
g10
S'C'
p104
sg12
S'CORRIDOR'
p105
ssS'df7f48b6-7d17-45c1-b9ef-fad75fb8bae5'
p106
(dp107
g10
S'R'
p108
sg12
S'MEDIUM SERVICE'
p109
ssS'd3bf8e27-1380-45b1-a380-e0a42cb3208c'
p110
(dp111
g10
S'R'
p112
sg12
S'CLASSROOM'
p113
ssS'96c1dec6-1976-426c-8a41-9ff67201751d'
p114
(dp115
g10
S'C'
p116
sg12
S'LOBBY'
p117
ssS'37d6580d-277d-4636-b815-e59e790ccc21'
p118
(dp119
g10
S'R'
p120
sg12
S'CLASSROOM'
p121
ssS'7b500dde-5bc2-4358-aee2-5de6fd4a5f21'
p122
(dp123
g10
S'C'
p124
sg12
S'CORRIDOR'
p125
ssS'cb2e2642-659a-460d-a2ff-36cba4bd1097'
p126
(dp127
g10
S'R'
p128
sg12
S'CLASSROOM'
p129
ssS'23798090-3f81-4d21-91e3-2c76a1649cb9'
p130
(dp131
g10
S'E'
p132
sg12
S'ENTRANCE'
p133
ssS'b9e643f6-7495-4a84-9262-8b7f9eae4fa1'
p134
(dp135
g10
S'E'
p136
sg12
S'STAIRS'
p137
ssS'525c208b-7172-4483-acf6-f6baf1afd00b'
p138
(dp139
g10
S'R'
p140
sg12
S'MEDIUM ADMINISTRATIVE'
p141
ssS'ed5bdd25-d74b-4ba7-89d2-ca7189e85c39'
p142
(dp143
g10
S'C'
p144
sg12
S'WASHROOM'
p145
ssS'0504fb4f-af4a-4742-8b67-a0156e53f3dd'
p146
(dp147
g10
S'R'
p148
sg12
S'BATHROOM'
p149
ssS'e82e609c-8d35-482b-8da5-cd8396e3240c'
p150
(dp151
g10
S'R'
p152
sg12
S'MEDIUM SERVICE'
p153
ssS'7a707b5c-0fbc-444a-b607-21624b81e2fb'
p154
(dp155
g10
S'C'
p156
sg12
S'WASHROOM'
p157
ssS'2990e475-caef-48a0-ac6b-9d69176adeb0'
p158
(dp159
g10
S'C'
p160
sg12
S'CORRIDOR'
p161
ssS'1aea30d2-c266-4f24-af9d-83ee70da57b5'
p162
(dp163
g10
S'R'
p164
sg12
S'MEDIUM SERVICE'
p165
ssS'1a5932d7-4ca4-4b96-8deb-8e55ab7b232c'
p166
(dp167
g10
S'R'
p168
sg12
S'MEDIUM SERVICE'
p169
ssS'652a2287-2ef0-4dd7-95f7-07a733771185'
p170
(dp171
g10
S'C'
p172
sg12
S'CORRIDOR'
p173
ssS'5c5e3f35-006c-41e4-a194-e1b35b54c6d1'
p174
(dp175
g10
S'R'
p176
sg12
S'MEDIUM SERVICE'
p177
ssS'116ab6e0-e7af-4c0f-a5b0-e526906dea35'
p178
(dp179
g10
S'R'
p180
sg12
S'GYM'
p181
ssS'c8bff068-da0d-4ae0-a45b-ee4303d33107'
p182
(dp183
g10
S'R'
p184
sg12
S'MEDIUM ADMINISTRATIVE'
p185
ssS'3e7a078b-2589-4bf9-9dc1-a93d5d4cfd12'
p186
(dp187
g10
S'R'
p188
sg12
S'MEDIUM'
p189
ssS'86ccb35e-8c57-4cdc-80c2-7ced6482bf91'
p190
(dp191
g10
S'C'
p192
sg12
S'CORRIDOR'
p193
ssS'fc62d5cf-f92f-4c9b-8f3c-4d74412579a5'
p194
(dp195
g10
S'E'
p196
sg12
S'ELEVATOR'
p197
sssS'graph'
p198
(dp199
sS'edge'
p200
(dp201
g8
(dp202
S'1d387838-64ca-4cd3-999c-dba4116d205f'
p203
(dp204
sS'ee747e78-e801-43b1-9e9c-369e5bcb6426'
p205
(dp206
sS'2990e475-caef-48a0-ac6b-9d69176adeb0'
p207
(dp208
ssg14
(dp209
S'1a5932d7-4ca4-4b96-8deb-8e55ab7b232c'
p210
(dp211
sS'7b500dde-5bc2-4358-aee2-5de6fd4a5f21'
p212
(dp213
sS'1aea30d2-c266-4f24-af9d-83ee70da57b5'
p214
(dp215
sS'495b42e6-d6dc-4a61-bc90-339573d3243a'
p216
(dp217
ssg18
(dp218
S'e227aff0-a4af-416a-a20d-d7bba4324d96'
p219
(dp220
ssg22
(dp221
S'd388738c-b9e7-487f-88f2-6ba00c4e16cf'
p222
(dp223
ssg26
(dp224
S'e227aff0-a4af-416a-a20d-d7bba4324d96'
p225
(dp226
ssg30
(dp227
S'e227aff0-a4af-416a-a20d-d7bba4324d96'
p228
(dp229
ssg34
(dp230
S'96c1dec6-1976-426c-8a41-9ff67201751d'
p231
(dp232
sS'd388738c-b9e7-487f-88f2-6ba00c4e16cf'
p233
(dp234
ssg38
(dp235
S'fdc1a408-144f-4625-88c2-10c41cc7c6b7'
p236
(dp237
sS'1a5932d7-4ca4-4b96-8deb-8e55ab7b232c'
p238
(dp239
sS'73e8f218-c690-41ae-8d08-d1755855eea8'
p240
g217
sS'9bd2c778-5525-42d7-a853-ca6e2fc87b3d'
p241
(dp242
sS'116ab6e0-e7af-4c0f-a5b0-e526906dea35'
p243
(dp244
ssg42
(dp245
S'7b500dde-5bc2-4358-aee2-5de6fd4a5f21'
p246
(dp247
ssg46
(dp248
S'652a2287-2ef0-4dd7-95f7-07a733771185'
p249
(dp250
ssg50
(dp251
S'23798090-3f81-4d21-91e3-2c76a1649cb9'
p252
(dp253
sS'495b42e6-d6dc-4a61-bc90-339573d3243a'
p254
g237
ssg54
(dp255
S'27009b7d-c4bd-4085-b6d2-39f6aa144fab'
p256
g206
ssg58
(dp257
S'86ccb35e-8c57-4cdc-80c2-7ced6482bf91'
p258
(dp259
ssg62
(dp260
S'9bd2c778-5525-42d7-a853-ca6e2fc87b3d'
p261
(dp262
ssg66
(dp263
S'27009b7d-c4bd-4085-b6d2-39f6aa144fab'
p264
g204
sS'96c1dec6-1976-426c-8a41-9ff67201751d'
p265
(dp266
sS'e227aff0-a4af-416a-a20d-d7bba4324d96'
p267
(dp268
ssg70
(dp269
S'e227aff0-a4af-416a-a20d-d7bba4324d96'
p270
(dp271
ssg74
(dp272
S'd388738c-b9e7-487f-88f2-6ba00c4e16cf'
p273
(dp274
ssg78
(dp275
S'b18f7339-dfe7-4557-805a-481823a19410'
p276
g262
sS'495b42e6-d6dc-4a61-bc90-339573d3243a'
p277
g242
ssg82
(dp278
S'd549c7a2-edab-4bd2-a90f-6be7b640a904'
p279
g234
sS'f3b9af61-e913-4788-9d25-530d9e179e8f'
p280
g274
sS'7a360900-f3fe-4d08-8ebf-47e1b99de249'
p281
g223
sS'96c1dec6-1976-426c-8a41-9ff67201751d'
p282
(dp283
sS'3c468cfe-51cd-4395-8039-9723af18587f'
p284
(dp285
ssg86
(dp286
S'7b500dde-5bc2-4358-aee2-5de6fd4a5f21'
p287
(dp288
ssg90
(dp289
S'2990e475-caef-48a0-ac6b-9d69176adeb0'
p290
(dp291
ssg94
(dp292
S'e227aff0-a4af-416a-a20d-d7bba4324d96'
p293
(dp294
ssg98
(dp295
S'd388738c-b9e7-487f-88f2-6ba00c4e16cf'
p296
g285
ssg102
(dp297
S'd3bf8e27-1380-45b1-a380-e0a42cb3208c'
p298
(dp299
sS'7b500dde-5bc2-4358-aee2-5de6fd4a5f21'
p300
(dp301
sS'96c1dec6-1976-426c-8a41-9ff67201751d'
p302
(dp303
sS'1d387838-64ca-4cd3-999c-dba4116d205f'
p304
g268
sS'b009b88b-5b71-46e3-8950-f93c965d559c'
p305
g271
sS'af2124c3-7e90-4285-892d-3c6c371e20a1'
p306
g220
sS'a5b8e5ea-29e8-4a17-b915-9fb67cb30dd5'
p307
g226
sS'fb388dc4-878b-42b0-ac6f-99e6798181de'
p308
g229
sS'0091fef9-9aae-4bd9-b0c1-cd980aeca4d5'
p309
g294
sS'ed5bdd25-d74b-4ba7-89d2-ca7189e85c39'
p310
(dp311
sS'0504fb4f-af4a-4742-8b67-a0156e53f3dd'
p312
(dp313
ssg106
(dp314
S'7b500dde-5bc2-4358-aee2-5de6fd4a5f21'
p315
(dp316
ssg110
(dp317
S'e227aff0-a4af-416a-a20d-d7bba4324d96'
p318
g299
ssg114
(dp319
S'2990e475-caef-48a0-ac6b-9d69176adeb0'
p320
(dp321
sS'1d387838-64ca-4cd3-999c-dba4116d205f'
p322
g266
sS'652a2287-2ef0-4dd7-95f7-07a733771185'
p323
(dp324
sS'd388738c-b9e7-487f-88f2-6ba00c4e16cf'
p325
g283
sS'b9e643f6-7495-4a84-9262-8b7f9eae4fa1'
p326
(dp327
sS'd549c7a2-edab-4bd2-a90f-6be7b640a904'
p328
g232
sS'fc62d5cf-f92f-4c9b-8f3c-4d74412579a5'
p329
(dp330
sS'e227aff0-a4af-416a-a20d-d7bba4324d96'
p331
g303
sS'3e7a078b-2589-4bf9-9dc1-a93d5d4cfd12'
p332
(dp333
ssg118
(dp334
S'7b500dde-5bc2-4358-aee2-5de6fd4a5f21'
p335
(dp336
ssg122
(dp337
S'37d6580d-277d-4636-b815-e59e790ccc21'
p338
g336
sS'73e8f218-c690-41ae-8d08-d1755855eea8'
p339
g213
sS'cb2e2642-659a-460d-a2ff-36cba4bd1097'
p340
(dp341
sS'7577ef60-b97c-44c6-9151-868b6b36a052'
p342
g288
sS'aeb109c7-f8a9-4c09-b371-0d58fba2e242'
p343
g247
sS'86ccb35e-8c57-4cdc-80c2-7ced6482bf91'
p344
(dp345
sS'e227aff0-a4af-416a-a20d-d7bba4324d96'
p346
g301
sS'df7f48b6-7d17-45c1-b9ef-fad75fb8bae5'
p347
g316
ssg126
(dp348
S'7b500dde-5bc2-4358-aee2-5de6fd4a5f21'
p349
g341
ssg130
(dp350
S'fdc1a408-144f-4625-88c2-10c41cc7c6b7'
p351
g253
ssg134
(dp352
S'96c1dec6-1976-426c-8a41-9ff67201751d'
p353
g327
ssg138
(dp354
S'652a2287-2ef0-4dd7-95f7-07a733771185'
p355
(dp356
sS'c8bff068-da0d-4ae0-a45b-ee4303d33107'
p357
(dp358
ssg142
(dp359
S'e227aff0-a4af-416a-a20d-d7bba4324d96'
p360
g311
ssg146
(dp361
S'e227aff0-a4af-416a-a20d-d7bba4324d96'
p362
g313
ssg150
(dp363
S'1a5932d7-4ca4-4b96-8deb-8e55ab7b232c'
p364
(dp365
ssg154
(dp366
S'86ccb35e-8c57-4cdc-80c2-7ced6482bf91'
p367
(dp368
ssg158
(dp369
S'27009b7d-c4bd-4085-b6d2-39f6aa144fab'
p370
g208
sS'96c1dec6-1976-426c-8a41-9ff67201751d'
p371
g321
sS'916d2ff7-861f-46cf-bfd3-2c0acebbe341'
p372
g291
ssg162
(dp373
S'73e8f218-c690-41ae-8d08-d1755855eea8'
p374
g215
ssg166
(dp375
S'73e8f218-c690-41ae-8d08-d1755855eea8'
p376
g211
sS'e82e609c-8d35-482b-8da5-cd8396e3240c'
p377
g365
sS'495b42e6-d6dc-4a61-bc90-339573d3243a'
p378
g239
ssg170
(dp379
S'c8bff068-da0d-4ae0-a45b-ee4303d33107'
p380
(dp381
sS'96c1dec6-1976-426c-8a41-9ff67201751d'
p382
g324
sS'525c208b-7172-4483-acf6-f6baf1afd00b'
p383
g356
sS'65c2f378-1901-42b5-bc92-5720507cf046'
p384
g250
ssg174
(dp385
S'116ab6e0-e7af-4c0f-a5b0-e526906dea35'
p386
(dp387
ssg178
(dp388
S'86ccb35e-8c57-4cdc-80c2-7ced6482bf91'
p389
(dp390
sS'5c5e3f35-006c-41e4-a194-e1b35b54c6d1'
p391
g387
sS'495b42e6-d6dc-4a61-bc90-339573d3243a'
p392
g244
ssg182
(dp393
S'652a2287-2ef0-4dd7-95f7-07a733771185'
p394
g381
sS'525c208b-7172-4483-acf6-f6baf1afd00b'
p395
g358
ssg186
(dp396
S'96c1dec6-1976-426c-8a41-9ff67201751d'
p397
g333
ssg190
(dp398
S'116ab6e0-e7af-4c0f-a5b0-e526906dea35'
p399
g390
sS'7a707b5c-0fbc-444a-b607-21624b81e2fb'
p400
g368
sS'57e06532-9606-4c88-bc6a-490b3e8c51b3'
p401
g259
sS'7b500dde-5bc2-4358-aee2-5de6fd4a5f21'
p402
g345
ssg194
(dp403
S'96c1dec6-1976-426c-8a41-9ff67201751d'
p404
g330
sssS'adj'
p405
g201
sb.