ccopy_reg
_reconstructor
p0
(cnetworkx.classes.graph
Graph
p1
c__builtin__
object
p2
Ntp3
Rp4
(dp5
S'node'
p6
(dp7
S'7b8a4dc5-5498-4d32-a507-7b9742a6b331'
p8
(dp9
S'type'
p10
S'R'
p11
sS'label'
p12
S'CANTEEN'
p13
ssS'd98681ec-9520-4f6c-b437-f592db7f1c84'
p14
(dp15
g10
S'R'
p16
sg12
S'CLASSROOM'
p17
ssS'6f56b9ea-04cd-4c50-bd9f-bce7d1cdf472'
p18
(dp19
g10
S'R'
p20
sg12
S'MEDIUM SERVICE'
p21
ssS'6a4eccac-0b9d-4f8f-9b3b-248a100ed1c7'
p22
(dp23
g10
S'R'
p24
sg12
S'CLASSROOM'
p25
ssS'ac98ac4b-5583-4f9f-b5b6-a83c6adbf58a'
p26
(dp27
g10
S'R'
p28
sg12
S'CLASSROOM'
p29
ssS'47158761-f0a0-4952-ac0a-c70e048b8263'
p30
(dp31
g10
S'C'
p32
sg12
S'CORRIDOR'
p33
ssS'f6cd70b4-96dd-4179-8b21-72ecd77d5e91'
p34
(dp35
g10
S'R'
p36
sg12
S'CLASSROOM'
p37
ssS'2a0a3bf2-0bda-415a-8cc5-8c5f5e7ff483'
p38
(dp39
g10
S'R'
p40
sg12
S'CLOSET'
p41
ssS'ed994879-3c8f-4747-aab3-4a066977a58b'
p42
(dp43
g10
S'R'
p44
sg12
S'CLASSROOM'
p45
ssS'8db6a545-be2a-4375-9ffc-75ebeb7bb566'
p46
(dp47
g10
S'R'
p48
sg12
S'CLASSROOM'
p49
ssS'456bc345-96da-4174-990b-9b2e61b8684f'
p50
(dp51
g10
S'R'
p52
sg12
S'CLASSROOM'
p53
ssS'96070124-d898-4a84-997b-9d6453fe7047'
p54
(dp55
g10
S'C'
p56
sg12
S'CORRIDOR'
p57
ssS'b882aa1f-a26d-4aad-aec0-8a2c444cd9bb'
p58
(dp59
g10
S'R'
p60
sg12
S'LAB'
p61
ssS'12c76e06-2c54-404f-a9b4-776f6ccd6625'
p62
(dp63
g10
S'R'
p64
sg12
S'MEDIUM SERVICE'
p65
ssS'45d00d9c-7c6d-44b7-baf9-922daa819331'
p66
(dp67
g10
S'R'
p68
sg12
S'MEDIUM SERVICE'
p69
ssS'f2f0fc77-1081-4112-bc7c-ef8f3d168ed1'
p70
(dp71
g10
S'C'
p72
sg12
S'WASHROOM'
p73
ssS'4db814bc-917c-4e0a-a1f3-c0e432079f4a'
p74
(dp75
g10
S'C'
p76
sg12
S'WASHROOM'
p77
ssS'9184dd02-b0c3-4f72-8fe0-c0388f6f3cd2'
p78
(dp79
g10
S'R'
p80
sg12
S'CLOSET'
p81
ssS'4d3430cf-c423-4dde-bd32-22cd1be9e7de'
p82
(dp83
g10
S'R'
p84
sg12
S'CLASSROOM'
p85
ssS'bf141f8b-a0e3-42df-8abf-3ca255c03db8'
p86
(dp87
g10
S'R'
p88
sg12
S'MEDIUM SERVICE'
p89
ssS'44ad7dc4-fe14-44fe-acec-9a56e183facb'
p90
(dp91
g10
S'R'
p92
sg12
S'MEDIUM SERVICE'
p93
ssS'91d9437e-cbe6-453a-bcb3-af55d9f37925'
p94
(dp95
g10
S'R'
p96
sg12
S'LAB'
p97
ssS'955ccb33-7e91-4ce5-b4fa-ec95c30daf13'
p98
(dp99
g10
S'R'
p100
sg12
S'CONFERENCE'
p101
ssS'a2c7bd9a-dd6b-47b4-9c5d-63fef5b68195'
p102
(dp103
g10
S'R'
p104
sg12
S'CLOSET'
p105
ssS'db459fb9-7ef5-4334-8f26-d47d6fffa1be'
p106
(dp107
g10
S'C'
p108
sg12
S'CORRIDOR'
p109
ssS'703c7b11-49e0-41c3-9376-557c1e769742'
p110
(dp111
g10
S'E'
p112
sg12
S'STAIRS'
p113
ssS'39196760-2c85-4f69-a232-7e4cdce20fc3'
p114
(dp115
g10
S'R'
p116
sg12
S'MEDIUM SERVICE'
p117
ssS'6bb07359-b30f-431f-b509-e7f2d383463c'
p118
(dp119
g10
S'R'
p120
sg12
S'LIBRARY'
p121
ssS'd1484b36-c42f-4d9d-bb30-2123034adb0a'
p122
(dp123
g10
S'R'
p124
sg12
S'CLASSROOM'
p125
ssS'd48187bb-717e-4e24-891c-e25255c9c516'
p126
(dp127
g10
S'R'
p128
sg12
S'CLASSROOM'
p129
ssS'e4ab88a8-878d-45b8-9ea1-153986d3124c'
p130
(dp131
g10
S'R'
p132
sg12
S'CLASSROOM'
p133
ssS'90ff354b-24b2-48de-b34e-a3b667f83d21'
p134
(dp135
g10
S'R'
p136
sg12
S'CLOSET'
p137
ssS'8039d38d-dfa9-4374-a5aa-fbba2b647551'
p138
(dp139
g10
S'R'
p140
sg12
S'CLASSROOM'
p141
ssS'136b6d53-38ee-489a-958a-8f81ca54c9ad'
p142
(dp143
g10
S'R'
p144
sg12
S'CLASSROOM'
p145
ssS'f7618ec4-3a27-4d3d-95b8-4ce154c5e212'
p146
(dp147
g10
S'R'
p148
sg12
S'CLASSROOM'
p149
ssS'935323cb-7df8-4763-bdbf-f87e83a283d3'
p150
(dp151
g10
S'C'
p152
sg12
S'WASHROOM'
p153
ssS'fd63a138-b067-4abb-acf0-fb5f23314635'
p154
(dp155
g10
S'R'
p156
sg12
S'CLASSROOM'
p157
ssS'906bfd0d-9fb2-4c38-bf4f-bd1882762a6d'
p158
(dp159
g10
S'R'
p160
sg12
S'CLASSROOM'
p161
ssS'bf9b7c48-6847-4992-9c25-70a85cc38e28'
p162
(dp163
g10
S'R'
p164
sg12
S'CLASSROOM'
p165
ssS'097bd219-2048-44b8-9848-d7c9454ad1d1'
p166
(dp167
g10
S'R'
p168
sg12
S'BIG ADMINISTRATIVE'
p169
ssS'b10c7c22-5be5-49cd-83a6-724329876dd6'
p170
(dp171
g10
S'R'
p172
sg12
S'MEDIUM SERVICE'
p173
ssS'ed21b9eb-eb08-49f1-b943-cdf86fe98412'
p174
(dp175
g10
S'R'
p176
sg12
S'CLASSROOM'
p177
ssS'51fd7c85-f964-441a-af87-18e7790184ef'
p178
(dp179
g10
S'C'
p180
sg12
S'CORRIDOR'
p181
ssS'b023bce9-dddf-4b3f-a47a-c0368e9e22fb'
p182
(dp183
g10
S'C'
p184
sg12
S'CORRIDOR'
p185
ssS'3b247ee5-2076-4720-a8eb-150d287b574f'
p186
(dp187
g10
S'R'
p188
sg12
S'MEDIUM SERVICE'
p189
ssS'73e0c197-de31-4228-967a-1cd0adf14b00'
p190
(dp191
g10
S'C'
p192
sg12
S'HALL'
p193
ssS'f7ee0519-a267-4c81-84dd-bfdadbd1c210'
p194
(dp195
g10
S'C'
p196
sg12
S'CORRIDOR'
p197
ssS'f58a4d87-7303-4ff3-8dad-87f1586b396d'
p198
(dp199
g10
S'E'
p200
sg12
S'STAIRS'
p201
ssS'3b3a38c1-eae1-4545-813f-a758e0e14c24'
p202
(dp203
g10
S'E'
p204
sg12
S'ENTRANCE'
p205
ssS'cdec669a-2be3-4015-93ef-4f0ece725b99'
p206
(dp207
g10
S'C'
p208
sg12
S'WASHROOM'
p209
ssS'acda00a9-f470-44e5-8522-4857af17cf4b'
p210
(dp211
g10
S'R'
p212
sg12
S'CLASSROOM'
p213
sssS'graph'
p214
(dp215
sS'edge'
p216
(dp217
g8
(dp218
S'f7ee0519-a267-4c81-84dd-bfdadbd1c210'
p219
(dp220
sS'6f56b9ea-04cd-4c50-bd9f-bce7d1cdf472'
p221
(dp222
ssg14
(dp223
S'db459fb9-7ef5-4334-8f26-d47d6fffa1be'
p224
(dp225
ssg18
(dp226
S'39196760-2c85-4f69-a232-7e4cdce20fc3'
p227
(dp228
sS'7b8a4dc5-5498-4d32-a507-7b9742a6b331'
p229
g222
ssg22
(dp230
S'51fd7c85-f964-441a-af87-18e7790184ef'
p231
(dp232
ssg26
(dp233
S'51fd7c85-f964-441a-af87-18e7790184ef'
p234
(dp235
ssg30
(dp236
S'73e0c197-de31-4228-967a-1cd0adf14b00'
p237
(dp238
sS'b882aa1f-a26d-4aad-aec0-8a2c444cd9bb'
p239
(dp240
sS'91d9437e-cbe6-453a-bcb3-af55d9f37925'
p241
(dp242
ssg34
(dp243
S'b023bce9-dddf-4b3f-a47a-c0368e9e22fb'
p244
(dp245
ssg38
(dp246
S'73e0c197-de31-4228-967a-1cd0adf14b00'
p247
(dp248
ssg42
(dp249
S'b023bce9-dddf-4b3f-a47a-c0368e9e22fb'
p250
(dp251
ssg46
(dp252
sg50
(dp253
S'db459fb9-7ef5-4334-8f26-d47d6fffa1be'
p254
(dp255
ssg54
(dp256
S'9184dd02-b0c3-4f72-8fe0-c0388f6f3cd2'
p257
(dp258
sS'f2f0fc77-1081-4112-bc7c-ef8f3d168ed1'
p259
(dp260
sS'db459fb9-7ef5-4334-8f26-d47d6fffa1be'
p261
(dp262
sS'b10c7c22-5be5-49cd-83a6-724329876dd6'
p263
(dp264
sS'136b6d53-38ee-489a-958a-8f81ca54c9ad'
p265
(dp266
sS'd1484b36-c42f-4d9d-bb30-2123034adb0a'
p267
(dp268
sS'44ad7dc4-fe14-44fe-acec-9a56e183facb'
p269
(dp270
sS'73e0c197-de31-4228-967a-1cd0adf14b00'
p271
(dp272
sS'935323cb-7df8-4763-bdbf-f87e83a283d3'
p273
(dp274
ssg58
(dp275
S'47158761-f0a0-4952-ac0a-c70e048b8263'
p276
g240
ssg62
(dp277
S'f7ee0519-a267-4c81-84dd-bfdadbd1c210'
p278
(dp279
ssg66
(dp280
S'f7ee0519-a267-4c81-84dd-bfdadbd1c210'
p281
(dp282
ssg70
(dp283
S'96070124-d898-4a84-997b-9d6453fe7047'
p284
g260
ssg74
(dp285
S'b023bce9-dddf-4b3f-a47a-c0368e9e22fb'
p286
(dp287
ssg78
(dp288
S'96070124-d898-4a84-997b-9d6453fe7047'
p289
g258
ssg82
(dp290
S'db459fb9-7ef5-4334-8f26-d47d6fffa1be'
p291
(dp292
ssg86
(dp293
S'b023bce9-dddf-4b3f-a47a-c0368e9e22fb'
p294
(dp295
ssg90
(dp296
S'96070124-d898-4a84-997b-9d6453fe7047'
p297
g270
ssg94
(dp298
S'b023bce9-dddf-4b3f-a47a-c0368e9e22fb'
p299
(dp300
sS'47158761-f0a0-4952-ac0a-c70e048b8263'
p301
g242
ssg98
(dp302
S'f7ee0519-a267-4c81-84dd-bfdadbd1c210'
p303
(dp304
ssg102
(dp305
S'b023bce9-dddf-4b3f-a47a-c0368e9e22fb'
p306
(dp307
ssg106
(dp308
S'906bfd0d-9fb2-4c38-bf4f-bd1882762a6d'
p309
(dp310
sS'703c7b11-49e0-41c3-9376-557c1e769742'
p311
(dp312
sS'ed21b9eb-eb08-49f1-b943-cdf86fe98412'
p313
(dp314
sS'd98681ec-9520-4f6c-b437-f592db7f1c84'
p315
g225
sS'4d3430cf-c423-4dde-bd32-22cd1be9e7de'
p316
g292
sS'456bc345-96da-4174-990b-9b2e61b8684f'
p317
g255
sS'96070124-d898-4a84-997b-9d6453fe7047'
p318
g262
sS'acda00a9-f470-44e5-8522-4857af17cf4b'
p319
(dp320
ssg110
(dp321
S'db459fb9-7ef5-4334-8f26-d47d6fffa1be'
p322
g312
ssg114
(dp323
S'6f56b9ea-04cd-4c50-bd9f-bce7d1cdf472'
p324
g228
ssg118
(dp325
S'73e0c197-de31-4228-967a-1cd0adf14b00'
p326
(dp327
ssg122
(dp328
S'96070124-d898-4a84-997b-9d6453fe7047'
p329
g268
ssg126
(dp330
S'51fd7c85-f964-441a-af87-18e7790184ef'
p331
(dp332
ssg130
(dp333
S'51fd7c85-f964-441a-af87-18e7790184ef'
p334
(dp335
ssg134
(dp336
S'73e0c197-de31-4228-967a-1cd0adf14b00'
p337
(dp338
ssg138
(dp339
S'51fd7c85-f964-441a-af87-18e7790184ef'
p340
(dp341
ssg142
(dp342
S'96070124-d898-4a84-997b-9d6453fe7047'
p343
g266
ssg146
(dp344
S'b023bce9-dddf-4b3f-a47a-c0368e9e22fb'
p345
(dp346
ssg150
(dp347
S'96070124-d898-4a84-997b-9d6453fe7047'
p348
g274
ssg154
(dp349
S'51fd7c85-f964-441a-af87-18e7790184ef'
p350
(dp351
ssg158
(dp352
S'db459fb9-7ef5-4334-8f26-d47d6fffa1be'
p353
g310
ssg162
(dp354
S'b023bce9-dddf-4b3f-a47a-c0368e9e22fb'
p355
(dp356
ssg166
(dp357
S'f7ee0519-a267-4c81-84dd-bfdadbd1c210'
p358
(dp359
ssg170
(dp360
S'96070124-d898-4a84-997b-9d6453fe7047'
p361
g264
ssg174
(dp362
S'db459fb9-7ef5-4334-8f26-d47d6fffa1be'
p363
g314
ssg178
(dp364
S'fd63a138-b067-4abb-acf0-fb5f23314635'
p365
g351
sS'6a4eccac-0b9d-4f8f-9b3b-248a100ed1c7'
p366
g232
sS'ac98ac4b-5583-4f9f-b5b6-a83c6adbf58a'
p367
g235
sS'b023bce9-dddf-4b3f-a47a-c0368e9e22fb'
p368
(dp369
sS'd48187bb-717e-4e24-891c-e25255c9c516'
p370
g332
sS'e4ab88a8-878d-45b8-9ea1-153986d3124c'
p371
g335
sS'f58a4d87-7303-4ff3-8dad-87f1586b396d'
p372
(dp373
sS'8039d38d-dfa9-4374-a5aa-fbba2b647551'
p374
g341
ssg182
(dp375
S'bf9b7c48-6847-4992-9c25-70a85cc38e28'
p376
g356
sS'bf141f8b-a0e3-42df-8abf-3ca255c03db8'
p377
g295
sS'4db814bc-917c-4e0a-a1f3-c0e432079f4a'
p378
g287
sS'f6cd70b4-96dd-4179-8b21-72ecd77d5e91'
p379
g245
sS'51fd7c85-f964-441a-af87-18e7790184ef'
p380
g369
sS'a2c7bd9a-dd6b-47b4-9c5d-63fef5b68195'
p381
g307
sS'ed994879-3c8f-4747-aab3-4a066977a58b'
p382
g251
sS'73e0c197-de31-4228-967a-1cd0adf14b00'
p383
(dp384
sS'3b247ee5-2076-4720-a8eb-150d287b574f'
p385
(dp386
sS'91d9437e-cbe6-453a-bcb3-af55d9f37925'
p387
g300
sS'cdec669a-2be3-4015-93ef-4f0ece725b99'
p388
(dp389
sS'f7618ec4-3a27-4d3d-95b8-4ce154c5e212'
p390
g346
ssg186
(dp391
S'b023bce9-dddf-4b3f-a47a-c0368e9e22fb'
p392
g386
ssg190
(dp393
S'6bb07359-b30f-431f-b509-e7f2d383463c'
p394
g327
sS'2a0a3bf2-0bda-415a-8cc5-8c5f5e7ff483'
p395
g248
sS'b023bce9-dddf-4b3f-a47a-c0368e9e22fb'
p396
g384
sS'90ff354b-24b2-48de-b34e-a3b667f83d21'
p397
g338
sS'f7ee0519-a267-4c81-84dd-bfdadbd1c210'
p398
(dp399
sS'96070124-d898-4a84-997b-9d6453fe7047'
p400
g272
sS'47158761-f0a0-4952-ac0a-c70e048b8263'
p401
g238
ssg194
(dp402
S'12c76e06-2c54-404f-a9b4-776f6ccd6625'
p403
g279
sS'45d00d9c-7c6d-44b7-baf9-922daa819331'
p404
g282
sS'097bd219-2048-44b8-9848-d7c9454ad1d1'
p405
g359
sS'955ccb33-7e91-4ce5-b4fa-ec95c30daf13'
p406
g304
sS'7b8a4dc5-5498-4d32-a507-7b9742a6b331'
p407
g220
sS'73e0c197-de31-4228-967a-1cd0adf14b00'
p408
g399
sS'3b3a38c1-eae1-4545-813f-a758e0e14c24'
p409
(dp410
ssg198
(dp411
S'51fd7c85-f964-441a-af87-18e7790184ef'
p412
g373
ssg202
(dp413
S'f7ee0519-a267-4c81-84dd-bfdadbd1c210'
p414
g410
ssg206
(dp415
S'b023bce9-dddf-4b3f-a47a-c0368e9e22fb'
p416
g389
ssg210
(dp417
S'db459fb9-7ef5-4334-8f26-d47d6fffa1be'
p418
g320
sssS'adj'
p419
g217
sb.