ccopy_reg
_reconstructor
p0
(cnetworkx.classes.graph
Graph
p1
c__builtin__
object
p2
Ntp3
Rp4
(dp5
S'node'
p6
(dp7
S'4c684f61-8ded-4781-8e64-6011bb0eadda'
p8
(dp9
S'type'
p10
S'R'
p11
sS'label'
p12
S'CLASSROOM'
p13
ssS'42046d73-8210-4b7b-931f-dfac0b76c0d0'
p14
(dp15
g10
S'R'
p16
sg12
S'CLASSROOM'
p17
ssS'a33f7df3-2084-4f55-90c6-9fef6e4c54c7'
p18
(dp19
g10
S'R'
p20
sg12
S'MEDIUM SERVICE'
p21
ssS'19145474-fe07-45a4-9eab-0b9e413f5337'
p22
(dp23
g10
S'R'
p24
sg12
S'CLOSET'
p25
ssS'79ee332b-f747-4834-b518-6edca90d90e2'
p26
(dp27
g10
S'C'
p28
sg12
S'CORRIDOR'
p29
ssS'5b4cbc8e-6f4e-4131-bc93-f99ee402f969'
p30
(dp31
g10
S'R'
p32
sg12
S'CLOSET'
p33
ssS'6e2c3823-3b78-41e8-b989-b9bc5341e0f1'
p34
(dp35
g10
S'E'
p36
sg12
S'STAIRS'
p37
ssS'4e54afe0-91ab-40e0-82c7-0aa24419ddd9'
p38
(dp39
g10
S'R'
p40
sg12
S'MEDIUM SERVICE'
p41
ssS'020c0a11-3940-467c-9225-f086fc6c957c'
p42
(dp43
g10
S'R'
p44
sg12
S'CLASSROOM'
p45
ssS'a1a9631e-1833-4845-bf16-ed09dd0ef6e7'
p46
(dp47
g10
S'R'
p48
sg12
S'MEDIUM SERVICE'
p49
ssS'b5f5633d-e139-45f3-94ae-7a9c34c79098'
p50
(dp51
g10
S'E'
p52
sg12
S'STAIRS'
p53
ssS'80cb9db9-8182-4b97-8c8a-8dbac79a80fb'
p54
(dp55
g10
S'R'
p56
sg12
S'MEDIUM SERVICE'
p57
ssS'd8673e29-a95d-47d8-97c4-487b3fda0a25'
p58
(dp59
g10
S'R'
p60
sg12
S'CLOSET'
p61
ssS'e7326139-ecbf-4881-96cc-61b84be8bd8d'
p62
(dp63
g10
S'R'
p64
sg12
S'MEDIUM SERVICE'
p65
ssS'3bef179d-cbf7-4d95-99fa-150a0751facf'
p66
(dp67
g10
S'C'
p68
sg12
S'CORRIDOR'
p69
ssS'13db952b-c8b5-4bc1-b2c8-0f545dbecf9d'
p70
(dp71
g10
S'R'
p72
sg12
S'CLASSROOM'
p73
ssS'dab82028-d93d-4d9c-a82f-65d7d808dcc0'
p74
(dp75
g10
S'C'
p76
sg12
S'CORRIDOR'
p77
ssS'57586c2e-950b-4bbe-aed1-5353c2e49557'
p78
(dp79
g10
S'R'
p80
sg12
S'CONFERENCE'
p81
ssS'7ade9223-7804-42e6-a50a-c91400c64a67'
p82
(dp83
g10
S'R'
p84
sg12
S'CLASSROOM'
p85
ssS'1f94148e-cd6d-4e5e-8521-0ac1ef4fee4b'
p86
(dp87
g10
S'R'
p88
sg12
S'CLOSET'
p89
ssS'89899edf-609e-4b48-b656-3d1f59d83e0b'
p90
(dp91
g10
S'R'
p92
sg12
S'CLOSET'
p93
ssS'c3242a82-e8f3-487d-8bcf-071161dfbc23'
p94
(dp95
g10
S'R'
p96
sg12
S'CLOSET'
p97
ssS'30ed4ecd-aa26-4785-8559-8a5dce80cc7b'
p98
(dp99
g10
S'R'
p100
sg12
S'CLASSROOM'
p101
ssS'814266cf-424b-46ed-912d-e6958ce93df1'
p102
(dp103
g10
S'R'
p104
sg12
S'CLOSET'
p105
ssS'a54644a8-bf28-417c-894e-ec578ed2258d'
p106
(dp107
g10
S'R'
p108
sg12
S'MEDIUM SERVICE'
p109
ssS'309de1e4-36a2-467a-af07-f136d0c681f6'
p110
(dp111
g10
S'R'
p112
sg12
S'CLOSET'
p113
ssS'5fe7ee75-f867-4fc3-b64d-300464ad2395'
p114
(dp115
g10
S'R'
p116
sg12
S'MEDIUM SERVICE'
p117
ssS'1f08ea10-ff84-4c51-a70b-7a9fec067f55'
p118
(dp119
g10
S'R'
p120
sg12
S'MEDIUM SERVICE'
p121
ssS'50272a95-77f2-4a5d-a18f-fb08aff6ae48'
p122
(dp123
g10
S'R'
p124
sg12
S'CLOSET'
p125
ssS'a774cfbd-1828-41d6-ab56-b54ff79010aa'
p126
(dp127
g10
S'R'
p128
sg12
S'CLASSROOM'
p129
sssS'graph'
p130
(dp131
sS'edge'
p132
(dp133
g8
(dp134
S'dab82028-d93d-4d9c-a82f-65d7d808dcc0'
p135
(dp136
sS'e7326139-ecbf-4881-96cc-61b84be8bd8d'
p137
(dp138
ssg14
(dp139
S'dab82028-d93d-4d9c-a82f-65d7d808dcc0'
p140
(dp141
sS'a54644a8-bf28-417c-894e-ec578ed2258d'
p142
(dp143
sS'd8673e29-a95d-47d8-97c4-487b3fda0a25'
p144
(dp145
ssg18
(dp146
S'30ed4ecd-aa26-4785-8559-8a5dce80cc7b'
p147
(dp148
ssg22
(dp149
S'57586c2e-950b-4bbe-aed1-5353c2e49557'
p150
(dp151
ssg26
(dp152
S'13db952b-c8b5-4bc1-b2c8-0f545dbecf9d'
p153
(dp154
sS'c3242a82-e8f3-487d-8bcf-071161dfbc23'
p155
(dp156
sS'6e2c3823-3b78-41e8-b989-b9bc5341e0f1'
p157
(dp158
sS'3bef179d-cbf7-4d95-99fa-150a0751facf'
p159
(dp160
sS'020c0a11-3940-467c-9225-f086fc6c957c'
p161
(dp162
sS'7ade9223-7804-42e6-a50a-c91400c64a67'
p163
(dp164
ssg30
(dp165
S'020c0a11-3940-467c-9225-f086fc6c957c'
p166
(dp167
ssg34
(dp168
S'79ee332b-f747-4834-b518-6edca90d90e2'
p169
g158
ssg38
(dp170
S'020c0a11-3940-467c-9225-f086fc6c957c'
p171
(dp172
ssg42
(dp173
S'5b4cbc8e-6f4e-4131-bc93-f99ee402f969'
p174
g167
sS'4e54afe0-91ab-40e0-82c7-0aa24419ddd9'
p175
g172
sS'79ee332b-f747-4834-b518-6edca90d90e2'
p176
g162
ssg46
(dp177
S'3bef179d-cbf7-4d95-99fa-150a0751facf'
p178
(dp179
ssg50
(dp180
S'dab82028-d93d-4d9c-a82f-65d7d808dcc0'
p181
(dp182
ssg54
(dp183
S'3bef179d-cbf7-4d95-99fa-150a0751facf'
p184
(dp185
ssg58
(dp186
S'42046d73-8210-4b7b-931f-dfac0b76c0d0'
p187
g145
ssg62
(dp188
S'4c684f61-8ded-4781-8e64-6011bb0eadda'
p189
g138
ssg66
(dp190
S'dab82028-d93d-4d9c-a82f-65d7d808dcc0'
p191
(dp192
sS'57586c2e-950b-4bbe-aed1-5353c2e49557'
p193
(dp194
sS'79ee332b-f747-4834-b518-6edca90d90e2'
p195
g160
sS'a1a9631e-1833-4845-bf16-ed09dd0ef6e7'
p196
g179
sS'a774cfbd-1828-41d6-ab56-b54ff79010aa'
p197
(dp198
sS'80cb9db9-8182-4b97-8c8a-8dbac79a80fb'
p199
g185
ssg70
(dp200
S'1f08ea10-ff84-4c51-a70b-7a9fec067f55'
p201
(dp202
sS'79ee332b-f747-4834-b518-6edca90d90e2'
p203
g154
sS'814266cf-424b-46ed-912d-e6958ce93df1'
p204
(dp205
ssg74
(dp206
S'30ed4ecd-aa26-4785-8559-8a5dce80cc7b'
p207
(dp208
sS'4c684f61-8ded-4781-8e64-6011bb0eadda'
p209
g136
sS'42046d73-8210-4b7b-931f-dfac0b76c0d0'
p210
g141
sS'3bef179d-cbf7-4d95-99fa-150a0751facf'
p211
g192
sS'b5f5633d-e139-45f3-94ae-7a9c34c79098'
p212
g182
sS'89899edf-609e-4b48-b656-3d1f59d83e0b'
p213
(dp214
ssg78
(dp215
S'50272a95-77f2-4a5d-a18f-fb08aff6ae48'
p216
(dp217
sS'19145474-fe07-45a4-9eab-0b9e413f5337'
p218
g151
sS'3bef179d-cbf7-4d95-99fa-150a0751facf'
p219
g194
ssg82
(dp220
S'5fe7ee75-f867-4fc3-b64d-300464ad2395'
p221
(dp222
sS'79ee332b-f747-4834-b518-6edca90d90e2'
p223
g164
ssg86
(dp224
S'a774cfbd-1828-41d6-ab56-b54ff79010aa'
p225
(dp226
ssg90
(dp227
S'dab82028-d93d-4d9c-a82f-65d7d808dcc0'
p228
g214
ssg94
(dp229
S'79ee332b-f747-4834-b518-6edca90d90e2'
p230
g156
ssg98
(dp231
S'dab82028-d93d-4d9c-a82f-65d7d808dcc0'
p232
g208
sS'309de1e4-36a2-467a-af07-f136d0c681f6'
p233
(dp234
sS'a33f7df3-2084-4f55-90c6-9fef6e4c54c7'
p235
g148
ssg102
(dp236
S'13db952b-c8b5-4bc1-b2c8-0f545dbecf9d'
p237
g205
ssg106
(dp238
S'42046d73-8210-4b7b-931f-dfac0b76c0d0'
p239
g143
ssg110
(dp240
S'30ed4ecd-aa26-4785-8559-8a5dce80cc7b'
p241
g234
ssg114
(dp242
S'7ade9223-7804-42e6-a50a-c91400c64a67'
p243
g222
ssg118
(dp244
S'13db952b-c8b5-4bc1-b2c8-0f545dbecf9d'
p245
g202
ssg122
(dp246
S'57586c2e-950b-4bbe-aed1-5353c2e49557'
p247
g217
ssg126
(dp248
S'1f94148e-cd6d-4e5e-8521-0ac1ef4fee4b'
p249
g226
sS'3bef179d-cbf7-4d95-99fa-150a0751facf'
p250
g198
sssS'adj'
p251
g133
sb.