ccopy_reg
_reconstructor
p0
(cnetworkx.classes.graph
Graph
p1
c__builtin__
object
p2
Ntp3
Rp4
(dp5
S'node'
p6
(dp7
S'b5bed349-a912-482b-9ea0-be2a72ee94be'
p8
(dp9
S'type'
p10
S'C'
p11
sS'label'
p12
S'WASHROOM'
p13
ssS'88adbf0b-6a51-4c4c-92ac-6a190fe9a1ff'
p14
(dp15
g10
S'R'
p16
sg12
S'MEDIUM SERVICE'
p17
ssS'07d8f84c-9a80-413d-9d8b-08c00a1469e7'
p18
(dp19
g10
S'R'
p20
sg12
S'CLOSET'
p21
ssS'94b9dfb3-4e78-4503-9388-db01ea822e44'
p22
(dp23
g10
S'R'
p24
sg12
S'CLOSET'
p25
ssS'e1949eaa-8cae-448d-be16-ce889d29a940'
p26
(dp27
g10
S'R'
p28
sg12
S'BATHROOM'
p29
ssS'878a0ace-f848-484d-bb34-30daec855e40'
p30
(dp31
g10
S'E'
p32
sg12
S'STAIRS'
p33
ssS'e6661b99-dacb-4940-91c8-35a56ea200fa'
p34
(dp35
g10
S'R'
p36
sg12
S'CLASSROOM'
p37
ssS'edd10add-4b40-48d4-8019-f45d64b7b84e'
p38
(dp39
g10
S'C'
p40
sg12
S'WASHROOM'
p41
ssS'ee9cebbe-d31f-4aeb-b594-143e3ac9c8ce'
p42
(dp43
g10
S'R'
p44
sg12
S'CLASSROOM'
p45
ssS'89144329-313e-427f-8a9b-6091dce54fcf'
p46
(dp47
g10
S'R'
p48
sg12
S'CLASSROOM'
p49
ssS'332da6ca-cfcd-4376-a29a-8b07c91842e9'
p50
(dp51
g10
S'E'
p52
sg12
S'ENTRANCE'
p53
ssS'06f345d3-96f5-4271-8835-a24f72003e17'
p54
(dp55
g10
S'R'
p56
sg12
S'CLASSROOM'
p57
ssS'fdc92ef1-73ae-4298-95c0-6c4aae0df6dd'
p58
(dp59
g10
S'R'
p60
sg12
S'CLASSROOM'
p61
ssS'1a175a6e-4ffd-49d7-a95b-e2b27497d122'
p62
(dp63
g10
S'C'
p64
sg12
S'WASHROOM'
p65
ssS'd9dfc22a-3c74-4e95-8ef8-2827af0b210e'
p66
(dp67
g10
S'R'
p68
sg12
S'CLOSET'
p69
ssS'33636b59-13d2-4269-8103-beab260a0556'
p70
(dp71
g10
S'E'
p72
sg12
S'STAIRS'
p73
ssS'5ae63dbd-cdf4-4550-8fba-03304873bbd0'
p74
(dp75
g10
S'R'
p76
sg12
S'CLASSROOM'
p77
ssS'859fb3a8-0892-47f2-9867-909db3630a99'
p78
(dp79
g10
S'E'
p80
sg12
S'ENTRANCE'
p81
ssS'e1ba71e4-d9e8-4a4c-98d1-d1ff748f4c40'
p82
(dp83
g10
S'R'
p84
sg12
S'SMALL'
p85
ssS'5ba54955-efc2-4df3-bc52-a34ebe1cb32d'
p86
(dp87
g10
S'R'
p88
sg12
S'SMALL ADMINISTRATIVE'
p89
ssS'335557e1-b623-43e0-8e94-2d49428c7924'
p90
(dp91
g10
S'R'
p92
sg12
S'CLOSET'
p93
ssS'd64cf7af-5015-4895-a5a1-e265f8228fbc'
p94
(dp95
g10
S'R'
p96
sg12
S'SMALL ADMINISTRATIVE'
p97
ssS'f13bb78a-81f2-4b27-bb46-017558f379d9'
p98
(dp99
g10
S'C'
p100
sg12
S'WASHROOM'
p101
ssS'b3eb2b50-58f9-4413-926f-87499f45b112'
p102
(dp103
g10
S'E'
p104
sg12
S'STAIRS'
p105
ssS'd9db5d96-12d1-4504-87c1-4afffc70fc71'
p106
(dp107
g10
S'R'
p108
sg12
S'CLASSROOM'
p109
ssS'ca26e8f3-2759-4fa8-8fa1-6331489aa2ac'
p110
(dp111
g10
S'R'
p112
sg12
S'LIBRARY'
p113
ssS'9e1b0872-4e60-4342-a688-eada3780b1b2'
p114
(dp115
g10
S'R'
p116
sg12
S'CLASSROOM'
p117
ssS'153014e2-b7fa-4253-a59c-ec37e95a73a1'
p118
(dp119
g10
S'C'
p120
sg12
S'CORRIDOR'
p121
ssS'7f1462d0-533a-45e1-a70c-15dde706f7e4'
p122
(dp123
g10
S'C'
p124
sg12
S'CORRIDOR'
p125
ssS'61423618-8f1e-4fa9-bfbd-e15e174e748f'
p126
(dp127
g10
S'C'
p128
sg12
S'WASHROOM'
p129
ssS'ade49743-bc1d-46fb-b2c1-fb5c13f9fe78'
p130
(dp131
g10
S'C'
p132
sg12
S'CORRIDOR'
p133
ssS'5241c033-07ee-4c83-8523-3788cec3a816'
p134
(dp135
g10
S'R'
p136
sg12
S'BATHROOM'
p137
ssS'8e050656-74b9-4efd-bc20-e502bff67ac8'
p138
(dp139
g10
S'C'
p140
sg12
S'CORRIDOR'
p141
ssS'ddc1d343-f58b-41d9-9bae-c54408cdbfa6'
p142
(dp143
g10
S'R'
p144
sg12
S'CLASSROOM'
p145
ssS'a4804bc7-ba50-4f30-8fec-3cf6a72bf5b6'
p146
(dp147
g10
S'R'
p148
sg12
S'CLASSROOM'
p149
ssS'a94e60b1-9dce-4f01-82c9-e658cf20596d'
p150
(dp151
g10
S'C'
p152
sg12
S'WASHROOM'
p153
ssS'bcfc87da-4c0c-4475-9e38-2315b369216a'
p154
(dp155
g10
S'R'
p156
sg12
S'GYM'
p157
ssS'9251e4f7-9cc8-44b2-bd6d-7e1efdbf5f71'
p158
(dp159
g10
S'R'
p160
sg12
S'CLOSET'
p161
ssS'418f2897-1378-46bb-b67e-4e934119eaef'
p162
(dp163
g10
S'R'
p164
sg12
S'SMALL'
p165
ssS'c68a5890-9fbd-4cad-ad92-3d1641cf37f4'
p166
(dp167
g10
S'R'
p168
sg12
S'SMALL ADMINISTRATIVE'
p169
ssS'b2ddbab8-111b-47d1-a4e3-aef1644f7c6a'
p170
(dp171
g10
S'C'
p172
sg12
S'LOBBY'
p173
ssS'e84183cd-f6a5-4be3-92c2-f2ff5f54f1a1'
p174
(dp175
g10
S'R'
p176
sg12
S'CLASSROOM'
p177
ssS'db38a647-768a-43cb-9971-be7b60660f25'
p178
(dp179
g10
S'R'
p180
sg12
S'CANTEEN'
p181
ssS'19b08379-c6b2-4b9c-b776-d3c5dbf84715'
p182
(dp183
g10
S'R'
p184
sg12
S'CLOSET'
p185
ssS'4a3514e1-824f-4114-8c4b-df981f9b87e9'
p186
(dp187
g10
S'E'
p188
sg12
S'STAIRS'
p189
ssS'8784e76e-26fb-4296-943a-a0e282792594'
p190
(dp191
g10
S'R'
p192
sg12
S'CLOSET'
p193
ssS'c64e40ee-bad1-4715-9258-55b222d3674b'
p194
(dp195
g10
S'R'
p196
sg12
S'CLOSET'
p197
ssS'f76dd030-4f2c-4363-89b8-634f9e988bb7'
p198
(dp199
g10
S'R'
p200
sg12
S'CLOSET'
p201
ssS'203f8e07-14cb-4acd-9247-6725c6e9b332'
p202
(dp203
g10
S'R'
p204
sg12
S'CLASSROOM'
p205
ssS'b450f373-54fd-47ef-a837-44c01106d7e8'
p206
(dp207
g10
S'R'
p208
sg12
S'CLOSET'
p209
ssS'af4d293c-6e62-4530-9cb7-3a539cd37793'
p210
(dp211
g10
S'R'
p212
sg12
S'MEDIUM SERVICE'
p213
ssS'f58bf02c-6653-4462-9980-992695ef5bae'
p214
(dp215
g10
S'R'
p216
sg12
S'MEDIUM ADMINISTRATIVE'
p217
sssS'graph'
p218
(dp219
sS'edge'
p220
(dp221
g8
(dp222
S'f76dd030-4f2c-4363-89b8-634f9e988bb7'
p223
(dp224
ssg14
(dp225
S'94b9dfb3-4e78-4503-9388-db01ea822e44'
p226
(dp227
sS'db38a647-768a-43cb-9971-be7b60660f25'
p228
(dp229
ssg18
(dp230
S'ade49743-bc1d-46fb-b2c1-fb5c13f9fe78'
p231
(dp232
ssg22
(dp233
S'88adbf0b-6a51-4c4c-92ac-6a190fe9a1ff'
p234
g227
sS'af4d293c-6e62-4530-9cb7-3a539cd37793'
p235
(dp236
ssg26
(dp237
S'af4d293c-6e62-4530-9cb7-3a539cd37793'
p238
(dp239
ssg30
(dp240
S'f76dd030-4f2c-4363-89b8-634f9e988bb7'
p241
(dp242
ssg34
(dp243
S'ade49743-bc1d-46fb-b2c1-fb5c13f9fe78'
p244
(dp245
ssg38
(dp246
S'153014e2-b7fa-4253-a59c-ec37e95a73a1'
p247
(dp248
ssg42
(dp249
S'ade49743-bc1d-46fb-b2c1-fb5c13f9fe78'
p250
(dp251
ssg46
(dp252
S'8e050656-74b9-4efd-bc20-e502bff67ac8'
p253
(dp254
ssg50
(dp255
S'8e050656-74b9-4efd-bc20-e502bff67ac8'
p256
(dp257
ssg54
(dp258
S'8e050656-74b9-4efd-bc20-e502bff67ac8'
p259
(dp260
ssg58
(dp261
S'7f1462d0-533a-45e1-a70c-15dde706f7e4'
p262
(dp263
ssg62
(dp264
S'ade49743-bc1d-46fb-b2c1-fb5c13f9fe78'
p265
(dp266
ssg66
(dp267
S'f76dd030-4f2c-4363-89b8-634f9e988bb7'
p268
(dp269
ssg70
(dp270
S'153014e2-b7fa-4253-a59c-ec37e95a73a1'
p271
(dp272
ssg74
(dp273
S'153014e2-b7fa-4253-a59c-ec37e95a73a1'
p274
(dp275
ssg78
(dp276
S'b2ddbab8-111b-47d1-a4e3-aef1644f7c6a'
p277
(dp278
ssg82
(dp279
S'f13bb78a-81f2-4b27-bb46-017558f379d9'
p280
(dp281
sS'b2ddbab8-111b-47d1-a4e3-aef1644f7c6a'
p282
(dp283
ssg86
(dp284
S'f58bf02c-6653-4462-9980-992695ef5bae'
p285
(dp286
ssg90
(dp287
S'153014e2-b7fa-4253-a59c-ec37e95a73a1'
p288
(dp289
ssg94
(dp290
S'153014e2-b7fa-4253-a59c-ec37e95a73a1'
p291
(dp292
sS'f58bf02c-6653-4462-9980-992695ef5bae'
p293
(dp294
ssg98
(dp295
S'e1ba71e4-d9e8-4a4c-98d1-d1ff748f4c40'
p296
g281
ssg102
(dp297
S'f76dd030-4f2c-4363-89b8-634f9e988bb7'
p298
(dp299
sS'ade49743-bc1d-46fb-b2c1-fb5c13f9fe78'
p300
(dp301
ssg106
(dp302
S'153014e2-b7fa-4253-a59c-ec37e95a73a1'
p303
(dp304
ssg110
(dp305
S'8e050656-74b9-4efd-bc20-e502bff67ac8'
p306
(dp307
ssg114
(dp308
S'7f1462d0-533a-45e1-a70c-15dde706f7e4'
p309
(dp310
ssg118
(dp311
S'd9db5d96-12d1-4504-87c1-4afffc70fc71'
p312
g304
sS'ade49743-bc1d-46fb-b2c1-fb5c13f9fe78'
p313
(dp314
sS'd64cf7af-5015-4895-a5a1-e265f8228fbc'
p315
g292
sS'33636b59-13d2-4269-8103-beab260a0556'
p316
g272
sS'5ae63dbd-cdf4-4550-8fba-03304873bbd0'
p317
g275
sS'335557e1-b623-43e0-8e94-2d49428c7924'
p318
g289
sS'7f1462d0-533a-45e1-a70c-15dde706f7e4'
p319
(dp320
sS'edd10add-4b40-48d4-8019-f45d64b7b84e'
p321
g248
sS'b2ddbab8-111b-47d1-a4e3-aef1644f7c6a'
p322
(dp323
ssg122
(dp324
S'9e1b0872-4e60-4342-a688-eada3780b1b2'
p325
g310
sS'153014e2-b7fa-4253-a59c-ec37e95a73a1'
p326
g320
sS'e84183cd-f6a5-4be3-92c2-f2ff5f54f1a1'
p327
(dp328
sS'a4804bc7-ba50-4f30-8fec-3cf6a72bf5b6'
p329
(dp330
sS'fdc92ef1-73ae-4298-95c0-6c4aae0df6dd'
p331
g263
sS'a94e60b1-9dce-4f01-82c9-e658cf20596d'
p332
(dp333
ssg126
(dp334
S'ade49743-bc1d-46fb-b2c1-fb5c13f9fe78'
p335
(dp336
ssg130
(dp337
S'b3eb2b50-58f9-4413-926f-87499f45b112'
p338
g301
sS'07d8f84c-9a80-413d-9d8b-08c00a1469e7'
p339
g232
sS'1a175a6e-4ffd-49d7-a95b-e2b27497d122'
p340
g266
sS'bcfc87da-4c0c-4475-9e38-2315b369216a'
p341
(dp342
sS'9251e4f7-9cc8-44b2-bd6d-7e1efdbf5f71'
p343
(dp344
sS'61423618-8f1e-4fa9-bfbd-e15e174e748f'
p345
g336
sS'8e050656-74b9-4efd-bc20-e502bff67ac8'
p346
(dp347
sS'203f8e07-14cb-4acd-9247-6725c6e9b332'
p348
(dp349
sS'e6661b99-dacb-4940-91c8-35a56ea200fa'
p350
g245
sS'db38a647-768a-43cb-9971-be7b60660f25'
p351
(dp352
sS'153014e2-b7fa-4253-a59c-ec37e95a73a1'
p353
g314
sS'ee9cebbe-d31f-4aeb-b594-143e3ac9c8ce'
p354
g251
ssg134
(dp355
S'418f2897-1378-46bb-b67e-4e934119eaef'
p356
(dp357
ssg138
(dp358
S'ade49743-bc1d-46fb-b2c1-fb5c13f9fe78'
p359
g347
sS'ca26e8f3-2759-4fa8-8fa1-6331489aa2ac'
p360
g307
sS'06f345d3-96f5-4271-8835-a24f72003e17'
p361
g260
sS'89144329-313e-427f-8a9b-6091dce54fcf'
p362
g254
sS'ddc1d343-f58b-41d9-9bae-c54408cdbfa6'
p363
(dp364
sS'af4d293c-6e62-4530-9cb7-3a539cd37793'
p365
(dp366
sS'332da6ca-cfcd-4376-a29a-8b07c91842e9'
p367
g257
ssg142
(dp368
S'8e050656-74b9-4efd-bc20-e502bff67ac8'
p369
g364
ssg146
(dp370
S'7f1462d0-533a-45e1-a70c-15dde706f7e4'
p371
g330
ssg150
(dp372
S'7f1462d0-533a-45e1-a70c-15dde706f7e4'
p373
g333
ssg154
(dp374
S'19b08379-c6b2-4b9c-b776-d3c5dbf84715'
p375
(dp376
sS'b450f373-54fd-47ef-a837-44c01106d7e8'
p377
(dp378
sS'8784e76e-26fb-4296-943a-a0e282792594'
p379
(dp380
sS'ade49743-bc1d-46fb-b2c1-fb5c13f9fe78'
p381
g342
sS'b2ddbab8-111b-47d1-a4e3-aef1644f7c6a'
p382
(dp383
ssg158
(dp384
S'ade49743-bc1d-46fb-b2c1-fb5c13f9fe78'
p385
g344
ssg162
(dp386
S'5241c033-07ee-4c83-8523-3788cec3a816'
p387
g357
sS'b2ddbab8-111b-47d1-a4e3-aef1644f7c6a'
p388
(dp389
ssg166
(dp390
S'f58bf02c-6653-4462-9980-992695ef5bae'
p391
(dp392
ssg170
(dp393
S'418f2897-1378-46bb-b67e-4e934119eaef'
p394
g389
sS'859fb3a8-0892-47f2-9867-909db3630a99'
p395
g278
sS'e1ba71e4-d9e8-4a4c-98d1-d1ff748f4c40'
p396
g283
sS'bcfc87da-4c0c-4475-9e38-2315b369216a'
p397
g383
sS'153014e2-b7fa-4253-a59c-ec37e95a73a1'
p398
g323
ssg174
(dp399
S'7f1462d0-533a-45e1-a70c-15dde706f7e4'
p400
g328
ssg178
(dp401
S'19b08379-c6b2-4b9c-b776-d3c5dbf84715'
p402
(dp403
sS'88adbf0b-6a51-4c4c-92ac-6a190fe9a1ff'
p404
g229
sS'ade49743-bc1d-46fb-b2c1-fb5c13f9fe78'
p405
g352
ssg182
(dp406
S'db38a647-768a-43cb-9971-be7b60660f25'
p407
g403
sS'bcfc87da-4c0c-4475-9e38-2315b369216a'
p408
g376
ssg186
(dp409
S'af4d293c-6e62-4530-9cb7-3a539cd37793'
p410
(dp411
ssg190
(dp412
S'bcfc87da-4c0c-4475-9e38-2315b369216a'
p413
g380
ssg194
(dp414
sg198
(dp415
S'b3eb2b50-58f9-4413-926f-87499f45b112'
p416
g299
sS'b5bed349-a912-482b-9ea0-be2a72ee94be'
p417
g224
sS'878a0ace-f848-484d-bb34-30daec855e40'
p418
g242
sS'd9dfc22a-3c74-4e95-8ef8-2827af0b210e'
p419
g269
ssg202
(dp420
S'ade49743-bc1d-46fb-b2c1-fb5c13f9fe78'
p421
g349
ssg206
(dp422
S'bcfc87da-4c0c-4475-9e38-2315b369216a'
p423
g378
ssg210
(dp424
S'8e050656-74b9-4efd-bc20-e502bff67ac8'
p425
g366
sS'4a3514e1-824f-4114-8c4b-df981f9b87e9'
p426
g411
sS'94b9dfb3-4e78-4503-9388-db01ea822e44'
p427
g236
sS'e1949eaa-8cae-448d-be16-ce889d29a940'
p428
g239
ssg214
(dp429
S'd64cf7af-5015-4895-a5a1-e265f8228fbc'
p430
g294
sS'5ba54955-efc2-4df3-bc52-a34ebe1cb32d'
p431
g286
sS'c68a5890-9fbd-4cad-ad92-3d1641cf37f4'
p432
g392
sssS'adj'
p433
g221
sb.