(dp0
VCLASSROOM
p1
I13
sVWASHROOM
p2
I5
sVMEDIUM SERVICE
p3
I2
sVELEVATOR
p4
I0
sVSMALL
p5
I0
sVCONFERENCE
p6
I0
sVBATHROOM
p7
I0
sVGYM
p8
I0
sVLIBRARY
p9
I1
sVBIG SERVICE
p10
I0
sVCORRIDOR
p11
I7
sVMEDIUM ADMINISTRATIVE
p12
I1
sVBIG ADMINISTRATIVE
p13
I0
sVLOBBY
p14
I0
sVKITCHEN
p15
I0
sVENTRANCE
p16
I0
sVMEDIUM
p17
I0
sVSMALL ADMINISTRATIVE
p18
I0
sVSTAIRS
p19
I6
sVHALL
p20
I0
sVCLOSET
p21
I3
sVLAB
p22
I6
sVCANTEEN
p23
I0
s.