(dp0
VCLASSROOM
p1
I9
sVWASHROOM
p2
I2
sVMEDIUM SERVICE
p3
I2
sVELEVATOR
p4
I0
sVSMALL
p5
I0
sVCONFERENCE
p6
I0
sVBATHROOM
p7
I1
sVGYM
p8
I1
sVLIBRARY
p9
I1
sVBIG SERVICE
p10
I0
sVCORRIDOR
p11
I4
sVMEDIUM ADMINISTRATIVE
p12
I2
sVBIG ADMINISTRATIVE
p13
I0
sVLOBBY
p14
I0
sVKITCHEN
p15
I0
sVENTRANCE
p16
I5
sVMEDIUM
p17
I0
sVSMALL ADMINISTRATIVE
p18
I0
sVSTAIRS
p19
I1
sVHALL
p20
I1
sVCLOSET
p21
I1
sVLAB
p22
I3
sVCANTEEN
p23
I0
s.