(dp0
VCLASSROOM
p1
I3
sVWASHROOM
p2
I2
sVMEDIUM SERVICE
p3
I4
sVELEVATOR
p4
I0
sVSMALL
p5
I0
sVCONFERENCE
p6
I0
sVBATHROOM
p7
I0
sVGYM
p8
I1
sVLIBRARY
p9
I0
sVBIG SERVICE
p10
I2
sVCORRIDOR
p11
I5
sVMEDIUM ADMINISTRATIVE
p12
I2
sVBIG ADMINISTRATIVE
p13
I0
sVLOBBY
p14
I0
sVKITCHEN
p15
I0
sVENTRANCE
p16
I1
sVMEDIUM
p17
I0
sVSMALL ADMINISTRATIVE
p18
I4
sVSTAIRS
p19
I4
sVHALL
p20
I0
sVCLOSET
p21
I2
sVLAB
p22
I2
sVCANTEEN
p23
I0
s.